
; ******** Source: ozmoo.asm
     1                          ; Which Z-machine to generate binary for
     2                          ; (usually defined on the acme command line instead)
     3                          ; Z1, Z2, Z6 and Z7 will (probably) never be supported
     4                          ;Z3 = 1
     5                          ;Z4 = 1
     6                          ;Z5 = 1
     7                          ;Z8 = 1
     8                          
     9                          ; Which machine to generate code for
    10                          ; C64 is default and currently the only supported target, but
    11                          ; future versions may include new targets such as Mega65, Plus/4 etc.
    12                          !ifndef ACORN {
    13                          !ifndef TARGET_C64 {
    14                              TARGET_C64 = 1 ; C64 is the default target
    15                          }
    16                          }
    17                          
    18                          !ifdef VMEM {
    19                          !ifndef ALLRAM {
    20                          	ALLRAM = 1
    21                          }
    22                          }
    23                          
    24                          !ifndef ACORN {
    25                          !ifdef ALLRAM {
    26                          !ifdef CACHE_PAGES {
    27                          	cache_pages = CACHE_PAGES ; Note, this is not final. One page may be added. vmem_cache_count will hold final # of pages.
    28                          } else {
    29                          	cache_pages = 4 ; Note, this is not final. One page may be added. vmem_cache_count will hold final # of pages.
    30                          }
    31                          }
    32                          }
    33                          
    34                          !ifndef TERPNO {
    35                          	TERPNO = 8
    36                          }
    37                          
    38                          !ifdef Z3 {
    39                          	ZMACHINEVERSION = 3
    40                          }
    41                          !ifdef Z4 {
    42                          	ZMACHINEVERSION = 4
    43                          	Z4PLUS = 1
    44                          }
    45                          !ifdef Z5 {
    46                          	ZMACHINEVERSION = 5
    47                          	Z4PLUS = 1
    48                          	Z5PLUS = 1
    49                          }
    50                          !ifdef Z8 {
    51                          	ZMACHINEVERSION = 8
    52                          	Z4PLUS = 1
    53                          	Z5PLUS = 1
    54                          }
    55                          

; ******** Source: constants.asm
     1                          ; --- ZERO PAGE --
     2                          ; BASIC not much used, so many positions free to use
     3                          ; memory bank control
     4                          !ifndef ACORN {
     5                          zero_datadirection    = $00
     6                          zero_processorports   = $01
     7                          }
     8                          ; available zero page variables (pseudo registers)
     9                          z_opcode              = $02
    10                          mempointer            = $03 ; 2 bytes
    11                          mem_temp              = $05 ; 2 bytes
    12                          z_extended_opcode	  = $07
    13                          
    14                          z_opcode_number       = $09
    15                          zp_pc_h               = $0a
    16                          zp_pc_l               = $0b
    17                          z_opcode_opcount      = $0c ; 0 = 0OP, 1=1OP, 2=2OP, 3=VAR
    18                          z_operand_count		  = $0d
    19                          zword				  = $0e ; 6 bytes
    20                          
    21                          zp_mempos             = $14 ; 2 bytes
    22                          
    23                          z_operand_value_high_arr = $16 ; !byte 0, 0, 0, 0, 0, 0, 0, 0
    24                          z_operand_value_low_arr = $1e ;  !byte 0, 0, 0, 0, 0, 0, 0, 0
    25                          
    26                          ; NOTE: This entire block, except last byte of z_pc_mempointer and z_pc_mempointer_is_unsafe is saved!
    27                          z_local_vars_ptr      = $26 ; 2 bytes
    28                          z_local_var_count	  = $28
    29                          stack_pushed_bytes	  = $29 ; !byte 0, 0
    30                          stack_ptr             = $2b ; 2 bytes
    31                          stack_top_value 	  = $2d ; 2 bytes !byte 0, 0
    32                          stack_has_top_value   = $2f ; !byte 0
    33                          ; SF: z_pc is big-endian, z_pc_mempointer is little-endian
    34                          z_pc				  = $30 ; 3 bytes (last byte shared with z_pc_mempointer)
    35                          z_pc_mempointer		  = $32 ; 2 bytes (first byte shared with z_pc)
    36                          ; z_pc_mempointer_is_unsafe = $34
    37                          
    38                          zp_save_start = z_local_vars_ptr
    39                          zp_bytes_to_save = z_pc + 3 - z_local_vars_ptr
    40                          
    41                          
    42                          !ifndef ACORN {
    43                          vmap_max_entries	  = $34
    44                          }
    45                          
    46                          zchar_triplet_cnt	  = $35
    47                          packed_text			  = $36 ; 2 bytes
    48                          alphabet_offset		  = $38
    49                          escape_char			  = $39
    50                          escape_char_counter	  = $3a
    51                          abbreviation_command  = $40
    52                          
    53                          parse_array           = $41 ; 2 bytes
    54                          string_array          = $43 ; 2 bytes
    55                          ;terminators_ptr       = $45 ; 2 bytes
    56                          
    57                          z_address			  = $45 ; 3 bytes
    58                          z_address_temp		  = $48
    59                          
    60                          object_tree_ptr       = $49 ; 2 bytes
    61                          object_num			  = $4b ; 2 bytes
    62                          object_temp			  = $4d ; 2 bytes
    63                          
    64                          vmap_used_entries	  = $4f
    65                          
    66                          z_low_global_vars_ptr	  = $50 ; 2 bytes
    67                          z_high_global_vars_ptr	  = $52 ; 2 bytes
    68                          !ifndef ACORN {
    69                          z_trace_index		  = $54
    70                          }
    71                          z_exe_mode	  		  = $55
    72                          
    73                          stack_tmp			  = $56; ! 5 bytes
    74                          default_properties_ptr = $5b ; 2 bytes
    75                          zchars				  = $5d ; 3 bytes
    76                          
    77                          ; SF: I experimented with increasing vmap_quick_index_length to see if it helps
    78                          ; on "big" systems with the maximum supported 144K of sideways RAM. Upping it
    79                          ; to 12 knocked 0.9% off the run time for the benchmark; given the scarcity of
    80                          ; zero page on Acorn non-tube builds, I don't think this is worth having.
    81                          ; SFTODO: Could/should we use a larger vmap_quick_index_length on a second
    82                          ; processor build? This might be particularly valuable on "big" games with a
    83                          ; larger working set which might benefit from the turbo variant. Be careful
    84                          ; though, it's possible that increasing this too much may harm performance,
    85                          ; though my gut feeling is that even if it doesn't help much it won't hurt in
    86                          ; practice. Still, it would be one way to use the extra ZP on a second processor.
    87                          vmap_quick_index_match= $60
    88                          vmap_next_quick_index = $61
    89                          vmap_quick_index	  = $62 ; Must follow vmap_next_quick_index!
    90                          vmap_quick_index_length = 6 ; Says how many bytes vmap_quick_index_uses
    91                          
    92                          z_temp				  = $68 ; 12 bytes
    93                          
    94                          !ifndef ACORN {
    95                          
    96                          s_colour 			  = $74 ; !byte 1 ; white as default
    97                          
    98                          vmem_temp			  = $92 ; 2 bytes
    99                          alphabet_table		  = $96 ; 2 bytes
   100                          
   101                          use_reu				  = $9b
   102                          
   103                          window_start_row	  = $9c; 4 bytes
   104                          
   105                          num_rows			  = $a6 ; !byte 0
   106                          current_window		  = $a7 ; !byte 0
   107                          
   108                          is_buffered_window	  = $ab;  !byte 1
   109                          
   110                          ; Screen kernal stuff. Must be kept together or update s_init in screenkernal.
   111                          s_ignore_next_linebreak = $b0 ; 3 bytes
   112                          s_reverse 			  = $b3 ; !byte 0
   113                          
   114                          s_stored_x			  = $b4 ; !byte 0
   115                          s_stored_y			  = $b5 ; !byte 0
   116                          s_current_screenpos_row = $b6 ; !byte $ff
   117                          
   118                          max_chars_on_line	  = $bd; !byte 0
   119                          buffer_index		  = $be ; !byte 0
   120                          last_break_char_buffer_pos = $bf ; !byte 0
   121                          
   122                          
   123                          zp_cursorswitch       = $cc
   124                          zp_screenline         = $d1 ; 2 bytes current line (pointer to screen memory)
   125                          zp_screencolumn       = $d3 ; current cursor column
   126                          zp_screenrow          = $d6 ; current cursor row
   127                          zp_colourline         = $f3 ; 2 bytes current line (pointer to colour memory)
   128                          cursor_row			  = $f7 ; 2 bytes
   129                          cursor_column		  = $f9 ; 2 bytes
   130                          zp_temp               = $fb ; 5 bytes
   131                          }
   132                          
   133                          !ifndef ACORN {
   134                          print_buffer		  = $100 ; 41 bytes
   135                          print_buffer2             = $129 ; 41 bytes
   136                          } else {
   137                          ; SFTODO: Is it OK to use 162 bytes of the stack like this? In practice we
   138                          ; certainly seem to get away with it, and my brief experiments when I
   139                          ; implemented setjmp suggest Ozmoo won't ever get near 64 bytes of stack use,
   140                          ; but (particularly if we have some otherwise wasted space floating around due
   141                          ; to page alignment issues) it might be worth relocating at least one of these
   142                          ; buffers.
   143                          ; SFTODO: I think I can and probably should move these buffers to the *top* of
   144                          ; the stack and initialise the stack pointer to start just below them when we
   145                          ; intialise. This will burn about three bytes of totally discardable init code,
   146                          ; so it's virtually free, and it then means we are morally in the clear - Ozmoo
   147                          ; then uses "quite a lot" of stack (but it is the foreground application) and if
   148                          ; a filing system or interrupt handler goes bananas and uses loads of stack it
   149                          ; will cause a wrap (its fault!) rather than trampling over our data not 
   150                          ; protected by being above the stack pointer (our fault). It is worth noting
   151                          ; this is a temporary buffer used only during printing, so there shouldn't be
   152                          ; any filing system calls, and an interrupt handler is unlikely to go crazy with
   153                          ; stack use, but even so, making this change would be slightly better I think.
   154                          ; (It *might* also remove the need for relocating these when using ACORN_OSRDCH,
   155                          ; though it's probably safest not to let the stack get "too full" if we can
   156                          ; help it.)
   157                          !ifndef ACORN_OSRDCH {
   158                          print_buffer		  = $100 ; 81 bytes SF: OK? THIS IS OBV STACK ON C64 TOO SO IT'S PROB FINE BUT CHECK HOW IT'S USED
   159                          print_buffer2		  = $151 ; 81 bytes SF: OK? THIS IS OBV STACK ON C64 TOO SO IT'S PROB FINE BUT CHECK HOW IT'S USED
   160                          }
   161                          }
   162                          
   163                          !ifndef ACORN {
   164                          memory_buffer         =	$02a7
   165                          memory_buffer_length  = 89
   166                          
   167                          first_banked_memory_page = $d0 ; Normally $d0 (meaning $d000-$ffff needs banking for read/write access) 
   168                          
   169                          charset_switchable 	  = $291
   170                          
   171                          datasette_buffer_start= $0334 ; Actually starts at 33c, but the eight bytes before that are unused
   172                          datasette_buffer_end  = $03fb
   173                          
   174                          ; --- BASIC rom routines ---
   175                          ;basic_printstring     = $ab1e ; write string in a/y (LO </HI >)
   176                          ;basic_printinteger    = $bdcd ; write integer value in a/x
   177                          
   178                          ; --- I/O registers ---
   179                          reg_screen_char_mode  = $d018 
   180                          reg_bordercolour      = $d020
   181                          reg_backgroundcolour  = $d021 
   182                          
   183                          ; --- Kernel routines ---
   184                          kernal_delay_1ms      = $eeb3 ; delay 1 ms
   185                          kernal_setcursor      = $e50c ; set cursor to x/y (row/column)
   186                          kernal_reset          = $fce2 ; cold reset of the C64
   187                          kernal_scnkey         = $ff9f ; scan the keyboard
   188                          kernal_setlfs         = $ffba ; set file parameters
   189                          kernal_setnam         = $ffbd ; set file name
   190                          kernal_open           = $ffc0 ; open a file
   191                          kernal_close          = $ffc3 ; close a file
   192                          kernal_chkin          = $ffc6 ; define file as default input
   193                          kernal_chkout         = $ffc9 ; define file as default output
   194                          kernal_clrchn         = $ffcc ; close default input/output files
   195                          kernal_readchar       = $ffcf ; read byte from default input into a
   196                          ;use streams_print_output instead of kernal_printchar
   197                          ;($ffd2 only allowed for input/output in screen.asm and text.asm)
   198                          kernal_printchar      = $ffd2 ; write char in a
   199                          kernal_load           = $ffd5 ; load file
   200                          kernal_save           = $ffd8 ; save file
   201                          kernal_readtime       = $ffde ; get time of day in a/x/y
   202                          kernal_getchar        = $ffe4 ; get a character
   203                          kernal_plot           = $fff0 ; set (c=1)/get (c=0) cursor: x=row, y=column
   204                          }
   205                          
   206                          
   207                          ; story file header constants
   208                          header_version = $0
   209                          header_flags_1 = $1
   210                          header_high_mem = $4
   211                          header_initial_pc = $6
   212                          header_dictionary = $8
   213                          header_object_table = $a
   214                          header_globals = $c
   215                          header_static_mem = $e
   216                          header_flags_2 = $10
   217                          header_serial = $12
   218                          header_abbreviations = $18
   219                          header_filelength = $1a
   220                          header_checksum = $1c
   221                          header_interpreter_number = $1e
   222                          header_interpreter_version = $1f
   223                          header_screen_height_lines = $20
   224                          header_screen_width_chars = $21
   225                          header_screen_width_units = $22
   226                          header_screen_height_units = $24
   227                          header_font_width_units = $26
   228                          header_font_height_units = $27
   229                          !ifndef ACORN {
   230                          header_default_bg_colour = $2c
   231                          header_default_fg_colour = $2d
   232                          }
   233                          header_terminating_chars_table = $2e
   234                          header_standard_revision_number = $32
   235                          header_alphabet_table = $34
   236                          header_header_extension_table = $36
   237                          
   238                          !ifdef ACORN {
   239                          
   240                          ; Acorn OS and hardware constants
   241                          brkv = $202
   242                          wrchv = $20e
   243                          keyv = $228
   244                          error_ptr = $fd
   245                          osfind = $ffce
   246                          osgbpb = $ffd1
   247                          osbput = $ffd4
   248                          osfile = $ffdd
   249                          osrdch = $ffe0
   250                          osasci = $ffe3
   251                          osnewl = $ffe7
   252                          oswrch = $ffee
   253                          osword = $fff1
   254                          osbyte = $fff4
   255                          oscli = $fff7
   256                          vdu_down = 10
   257                          vdu_cls = 12
   258                          vdu_cr = 13
   259                          vdu_set_text_colour = 17
   260                          vdu_redefine_colour = 19
   261                          vdu_set_mode = 22
   262                          vdu_miscellaneous = 23
   263                          vdu_reset_text_window = 26
   264                          vdu_define_text_window = 28
   265                          vdu_home = 30
   266                          vdu_goto_xy = 31
   267                          osfile_save = $00
   268                          osfile_load = $ff
   269                          osfile_read_catalogue_information = $05
   270                          osfind_close = $00
   271                          osfind_open_input = $40
   272                          osfind_open_output = $80
   273                          osgbpb_write_ignoring_ptr = $02
   274                          osgbpb_read_using_ptr = $03
   275                          osgbpb_read_ignoring_ptr = $04
   276                          osword_input_line = 0
   277                          osword_read_clock = 1
   278                          osword_sound = 7
   279                          osword_floppy_op = $7f
   280                          !ifdef ACORN_TUBE_CACHE {
   281                          osword_cache_op = $e0 ; USERV OSWORD
   282                          osword_cache_no_timestamp_hint = $ff
   283                          }
   284                          osbyte_set_cursor_editing = $04
   285                          osbyte_wait_for_vsync = $13
   286                          osbyte_flush_buffer = $15
   287                          osbyte_read_vdu_status = $75
   288                          osbyte_reflect_keyboard_status = $76
   289                          osbyte_acknowledge_escape = $7e
   290                          osbyte_read_key = $81
   291                          osbyte_read_screen_address = $84
   292                          osbyte_read_cursor_position = $86
   293                          osbyte_read_screen_mode = $87
   294                          !ifdef ACORN_TUBE_CACHE {
   295                          osbyte_initialise_cache = $88 ; USERV *CODE/OSBYTE
   296                          }
   297                          osbyte_enter_language = $8e
   298                          osbyte_read_vdu_variable = $a0
   299                          osbyte_rw_function_key_status = $e1
   300                          osbyte_rw_shift_function_key_status = $e2
   301                          osbyte_rw_escape_key = $e5
   302                          osbyte_read_language = $fc
   303                          vdu_variable_text_window_bottom = $09
   304                          vdu_variable_text_window_top = $0b
   305                          vdu_status_cursor_editing = 1<<6
   306                          cr = 13
   307                          del = 127
   308                          mode_7_text_colour_base = 128
   309                          err_not_found = $d6
   310                          ctrl_key_adjust = 64
   311                          buffer_keyboard = 0
   312                          max_screen_width = 80
   313                          !ifdef ACORN_SWR {
   314                          flat_ramtop = $8000
   315                          swr_ramtop = $c000
   316                          } else {
   317                          flat_ramtop = $f800
   318                          }
   319                          !ifdef ACORN_NO_SHADOW {
   320                          vdu_status = $d0
   321                          text_cursor_address = $34a
   322                          bottom_of_screen_memory_high = $34e
   323                          display_start_address = $350
   324                          crtc_register = $fe00
   325                          crtc_data = $fe01
   326                          crtc_screen_start_high = 12
   327                          crtc_cursor_start_high = 14
   328                          }
   329                          
   330                          ; Acorn memory allocations
   331                          ; SFTODO: It might be worth reordering/reallocating these so the order is a
   332                          ; bit more logical.
   333                          
   334                          zp_temp               = $75 ; 5 bytes
   335                          ; SF: cursor_{row,column} are used to hold the cursor positions for the two
   336                          ; on-screen windows. They mainly come into play via save_cursor/restore_cursor;
   337                          ; the active cursor position is zp_screen{row,column} and that's all that
   338                          ; matters most of the time.
   339                          cursor_row            = $7a ; 2 bytes
   340                          cursor_column         = $7c ; 2 bytes
   341                          !ifndef ACORN_NO_SHADOW {
   342                          screen_width          = $54 ; 1 byte
   343                          screen_height         = $89 ; 1 byte
   344                          screen_height_minus_1 = $8a ; 1 byte
   345                          }
   346                          
   347                          vmem_temp			  = $00 ; 2 bytes
   348                          alphabet_table		  = $7e ; 2 bytes
   349                          
   350                          window_start_row	  = $80; 4 bytes
   351                          
   352                          current_window		  = $74 ; !byte 0
   353                          
   354                          is_buffered_window	  = $08;  !byte 1
   355                          
   356                          ; Screen kernal stuff. Must be kept together or update s_init in screenkernal.
   357                          s_ignore_next_linebreak = $84 ; 3 bytes
   358                          s_reverse 			  = $87 ; !byte 0
   359                          s_os_reverse          = $88 ; !byte 0
   360                          
   361                          s_cursors_inconsistent = $34 ; !byte 0
   362                          
   363                          max_chars_on_line	  = $8b; !byte 0
   364                          buffer_index		  = $8c ; !byte 0
   365                          last_break_char_buffer_pos = $8d ; !byte 0
   366                          
   367                          zp_screencolumn       = $8e ; current cursor column
   368                          zp_screenrow          = $8f ; current cursor row
   369                          
   370                          stack = $100
   371                          
   372                          ; $0400-$046B hold the BASIC resident integer variables. We use some of these
   373                          ; addresses to pass information from the loader to the Ozmoo executable.
   374                          z_trace_index = $400 ; !byte 0
   375                          s_stored_x = $401 ; !byte 0
   376                          s_stored_y = $402 ; !byte 0
   377                          !ifndef ACORN_NO_SHADOW {
   378                          screen_width_minus_1 = $403 ; !byte 0
   379                          screen_width_plus_1 = $404 ; !byte 0
   380                          }
   381                          game_disc_crc = $405 ; 2 bytes
   382                          num_rows = $407 ; !byte 0
   383                          !ifdef ACORN_RELOCATABLE {
   384                          relocate_target = $408 ; !byte 0, low byte of B%
   385                          ozmoo_relocate_target = relocate_target ; SFTODO!?
   386                          }
   387                          ; fg_colour and bg_colour must be adjacent and in this order
   388                          fg_colour = $409 ; !byte 0
   389                          bg_colour = $40a ; !byte 0
   390                          screen_mode = $40b ; !byte 0, high byte of B%
   391                          !ifdef VMEM {
   392                          vmap_max_entries = $40c ; !byte 0
   393                          }
   394                          !ifdef ACORN_HW_SCROLL {
   395                          use_hw_scroll = $40d ; !byte 0
   396                          }
   397                          !ifdef ACORN_ELECTRON_SWR {
   398                          screen_ram_start_minus_1 = $40e ; !byte 0
   399                          } else {
   400                          !ifdef ACORN_TURBO_SUPPORTED {
   401                          is_turbo = $40e ; !byte 0 SFTODO: RENAME turbo_flag?
   402                          }
   403                          }
   404                          cursor_status = $40f ; !byte 0
   405                          !ifdef ACORN_SWR {
   406                          ; SFTODO: There's a gap here in page 4 now we've stopped storing RAM bank list there; move things up.
   407                          mempointer_ram_bank = $41c ; 1 byte SFTODO: might benefit from zp? looking at profiles it's really not that hot on big or small dynmem model
   408                          vmem_blocks_in_main_ram = $41d ; 1 byte
   409                          vmem_blocks_stolen_in_first_bank = $41e ; 1 byte
   410                          z_pc_mempointer_ram_bank = $41f ; 1 byte SFTODO: might benefit from zp? yes, bigdynmem builds do use this in fairly hot path (and it's also part of macros so it might shrink code size) - savings from zp not going to be huge, but not absolutely negligible either
   411                          ; SFTODO: 2 bytes at $420 currently wasted, shuffle up
   412                          jmp_buf_ram_bank = $422 ; 1 byte
   413                          }
   414                          initial_clock = $423 ; 5 bytes
   415                          memory_buffer = $428 ; 7 bytes (larger on C64, but this is all we use)
   416                          ; The following two strings have filename_size bytes allocated. We're not short
   417                          ; on storage in low memory in general, but as the BASIC loader needs to write
   418                          ; these strings we must use memory which won't clash with BASIC's own use, so
   419                          ; this has to fit inside the resident integer variable workspace and that is
   420                          ; relatively scarce. We could probably increase filename_size but it might mean
   421                          ; some reshuffling of other data which happens to live in the resident integer
   422                          ; variable workspace but doesn't need to.
   423                          filename_size = 49 ; this takes us from inside K% to end of W%
   424                          game_data_filename_or_restart_command = $42f
   425                          jmp_buf = $42f+filename_size ; "up to" 257 bytes - in reality 64 bytes is probably enough
   426                          ; SFTODO: The remaining space in $400-$500 is wasted on an over-large jmp_buf.
   427                          
   428                          !ifdef ACORN_TURBO_SUPPORTED {
   429                          turbo_control = $fef0
   430                          turbo_bank_base = $301
   431                          mempointer_turbo_bank = turbo_bank_base + mempointer
   432                          z_pc_mempointer_turbo_bank = turbo_bank_base + z_pc_mempointer
   433                          }
   434                          
   435                          scratch_page = $500
   436                          !ifdef ACORN_SWR {
   437                          scratch_double_page = scratch_page
   438                          ; SFTODO: $700-$800 is currently wasted
   439                          ; SFTODO: There's no advantage for second processor builds, but on ACORN_SWR
   440                          ; builds we could potentially put vmap_z_[hl] somewhere in $400-800 (we'd probably
   441                          ; have the VVVVVV identifier in the discardable init code for the build script
   442                          ; to patch and copy that down to $400-800 in the discardable init code). Perhaps
   443                          ; easiest (not competing for discardable init code space) would be to have it
   444                          ; right at the end of the binary, and first thing (perhaps even before relocating
   445                          ; if we're in a reloctable build) copy it down to somewhere in $400-800. That's
   446                          ; if I think this is a good thing to do, not saying it is.
   447                          }
   448                          
   449                          }

; ******** Source: ozmoo.asm
    56                          
    57                          !ifdef ACORN {

; ******** Source: acorn-constants.asm
     1                          ; Acorn constants shared by multiple Acorn executables; constants only relevant
     2                          ; to the main Ozmoo executable are in constants.asm
     3                          
     4                          osbyte = $fff4
     5                          osbyte_read_host = 0
     6                          
     7                          romsel_copy = $f4
     8                          bbc_romsel = $fe30
     9                          electron_romsel = $fe05
    10                          
    11                          ram_bank_count = $904
    12                          ram_bank_list = $905
    13                          
    14                          ; SFTODO: MOVE THIS?
    15                          !macro assert .b {
    16                              !if .b = 0 {
    17                                  !error "assertion failed"
    18                              }
    19                          }

; ******** Source: ozmoo.asm
    58                          
    59                          }
    60                          
    61                          !ifdef TRACE {
    62                          	z_trace_size = 256
    63                          } else {
    64                          	z_trace_size = 0
    65                          }
    66                          
    67                          !ifdef STACK_PAGES {
    68                          	stack_size = STACK_PAGES * $100;
    69                          } else {
    70                          	stack_size = $0400;
    71                          }
    72                          
    73                          
    74                          !ifndef COL2 {
    75                          	COL2 = 0
    76                          }
    77                          !ifndef COL3 {
    78                          	COL3 = 2
    79                          }
    80                          !ifndef COL4 {
    81                          	COL4 = 5
    82                          }
    83                          !ifndef COL5 {
    84                          	COL5 = 7
    85                          }
    86                          !ifndef COL6 {
    87                          	COL6 = 6
    88                          }
    89                          !ifndef COL7 {
    90                          	COL7 = 4
    91                          }
    92                          !ifndef COL8 {
    93                          	COL8 = 3
    94                          }
    95                          !ifndef COL9 {
    96                          	COL9 = 1
    97                          }
    98                          
    99                          !ifndef BGCOL {
   100                          	BGCOL = 9
   101                          }
   102                          !ifndef FGCOL {
   103                          	FGCOL = 2
   104                          }
   105                          
   106                          !ifndef BGCOLDM {
   107                          	BGCOLDM = 2
   108                          }
   109                          !ifndef FGCOLDM {
   110                          	FGCOLDM = 4
   111                          }
   112                          
   113                          ; Border color: 0 = as background, 1 = as foreground, 2-9: specified Z-code colour. Default: as background
   114                          
   115                          !ifndef BORDERCOL {
   116                          	!ifdef Z5PLUS {
   117                          		BORDERCOL = 0
   118                          	} else {
   119                          		BORDERCOL = BGCOL
   120                          	}
   121                          }
   122                          !ifndef BORDERCOLDM {
   123                          	!ifdef Z5PLUS {
   124                          		BORDERCOLDM = 0
   125                          	} else {
   126                          		BORDERCOLDM = BGCOLDM
   127                          	}
   128                          }
   129                          ; For z3 and z4, change border colour magic values 0 and 1 to actual bgcol or fgcol, for shorter code
   130                          !ifndef Z5PLUS {
   131                          	!if BORDERCOL = 0 {
   132                          		BORDERCOL_FINAL = BGCOL
   133                          	}
   134                          	!if BORDERCOL = 1 {
   135                          		BORDERCOL_FINAL = FGCOL
   136                          	}
   137                          	!if BORDERCOLDM = 0 {
   138                          		BORDERCOLDM_FINAL = BGCOLDM
   139                          	}
   140                          	!if BORDERCOLDM = 1 {
   141                          		BORDERCOLDM_FINAL = FGCOLDM
   142                          	}
   143                          }
   144                          !ifndef BORDERCOL_FINAL {
   145                          	BORDERCOL_FINAL = BORDERCOL
   146                          }
   147                          !ifndef BORDERCOLDM_FINAL {
   148                          	BORDERCOLDM_FINAL = BORDERCOLDM
   149                          }
   150                          !if BORDERCOL_FINAL = 0 {
   151                          	BORDER_MAY_FOLLOW_BG = 1
   152                          } else {
   153                          	!if BORDERCOLDM_FINAL = 0 {
   154                          		BORDER_MAY_FOLLOW_BG = 1
   155                          	}
   156                          }
   157                          !if BORDERCOL_FINAL = 1 {
   158                          	BORDER_MAY_FOLLOW_FG = 1
   159                          } else {
   160                          !if BORDERCOLDM_FINAL = 1 {
   161                          	BORDER_MAY_FOLLOW_FG = 1
   162                          }
   163                          }
   164                          
   165                          !ifndef STATCOL {
   166                          	STATCOL = FGCOL
   167                          }
   168                          !ifndef STATCOLDM {
   169                          	STATCOLDM = FGCOLDM
   170                          }
   171                          
   172                          !ifndef CURSORCOL {
   173                          	CURSORCOL = FGCOL
   174                          }
   175                          !ifndef CURSORCOLDM {
   176                          	CURSORCOLDM = FGCOLDM
   177                          }
   178                          
   179                          !ifndef CURSORCHAR {
   180                          	CURSORCHAR = 224
   181                          }
   182                          
   183                          !ifndef SPLASHWAIT {
   184                          	SPLASHWAIT = 3
   185                          }
   186                          
   187                          
   188                          
   189                          ;  * = $0801 ; This must now be set on command line: --setpc $0801
   190                          
   191                          program_start
   192                          
   193                          initial_jmp
   194                          !ifndef ACORN_RELOCATABLE {
   195  1900 4c0149                 jmp .initialize
   196                          } else {
   197                              jmp relocate
   198                          }
   199                          
   200                          ; global variables
   201                          ; filelength !byte 0, 0, 0
   202                          ; fileblocks !byte 0, 0
   203                          ; c64_model !byte 0 ; 1=NTSC/6567R56A, 2=NTSC/6567R8, 3=PAL/6569
   204                          !ifndef ACORN {
   205                          !ifdef VMEM {
   206                          game_id		!byte 0,0,0,0
   207                          }
   208                          }
   209                          
   210                          ; include other assembly files
   211                          ; SF: We move text.asm near the beginning for Acorn because it can contain a
   212                          ; big "un-breakable" chunk of text, so we don't want it to come anywhere near
   213                          ; the screen hole.
   214                          !ifdef ACORN {

; ******** Source: text.asm
     1                          ; text opcodes
     2                          
     3                          ;TRACE_READTEXT = 1
     4                          ;TRACE_TOKENISE = 1
     5                          ;TRACE_SHOW_DICT_ENTRIES = 1
     6                          ;TRACE_PRINT_ARRAYS = 1
     7                          ;SFTODODATA 2
     8                          !ifndef ACORN { ; SFTODO!?
     9                          .text_tmp	!byte 0
    10                          .current_character !byte 0
    11                          }
    12                          .petscii_char_read = zp_temp
    13                          
    14                          ; only ENTER + cursor + F1-F8 possible on a C64
    15                          ; SFTODO: It may be a good idea to tweak this to reflect the fact we have F1-F9 or F1-F10 on Acorn (depending on what the f0 key is mapped to), but I'll leave it alone for now until the handling of function keys settles down.
    16  1903 01                 num_terminating_characters !byte 1
    17  1904 0d                 terminating_characters !byte $0d
    18                          !ifdef Z5PLUS {	
    19  1905 8182838485868788...    !byte $81,$82,$83,$84,$85,$86,$87,$88,$89,$8a,$8b,$8c
    20                          
    21                          parse_terminating_characters
    22                              ; read terminating characters list ($2e)
    23                              ; must be one of function keys 129-154, 252-254.
    24                              ; 129-132: cursor u/d/l/r
    25                              ; 133-144: F1-F12 (only F1-F8 on C64)
    26                              ; 145-154: keypad 0-9 (not on C64 of course)
    27                              ; 252 menu click (V6) (not C64)
    28                              ; 253 double click (V6) (not C64)
    29                              ; 254 single click (not C64)
    30                              ; 255 means any function key
    31  1911 ad2e4e                 lda story_start + header_terminating_chars_table      ; 5c
    32  1914 ae2f4e                 ldx story_start + header_terminating_chars_table + 1  ; 18
    33  1917 d005                   bne +
    34  1919 c900                   cmp #0
    35  191b d001                   bne +
    36  191d 60                     rts
    37  191e 206f44             +   jsr set_z_address
    38                              ; read terminator
    39  1921 a001                   ldy #1
    40  1923 20b244             -   jsr read_next_byte
    41  1926 c9ff                   cmp #$ff
    42  1928 d006                   bne +
    43                              ; all function keys (already the default)
    44  192a a90d                   lda #$0d ; 13 keys in total (enter+cursor+F1-F8)
    45  192c 8d0319                 sta num_terminating_characters
    46  192f 60                     rts
    47  1930 c98d               +   cmp #$8d ; F8=8c. Any higher values are not accepted in C64 mode
    48  1932 1004                   bpl +
    49  1934 990419                 sta terminating_characters,y
    50  1937 c8                     iny 
    51  1938 c900               +   cmp #$00
    52  193a d0e7                   bne -
    53  193c 8c0319                 sty num_terminating_characters
    54  193f 60                     rts
    55                          }
    56                          
    57                          !ifdef BENCHMARK {
    58                          ; SFTODO +make_acorn_screen_hole
    59                          ; SFTODO: Annoying duplication here...
    60                          benchmark_commands
    61                          !ifndef ACORN {
    62                          ; !pet "turn statue w:turn it e:turn it n:n:open door:",255,0
    63                          !pet 255,"turn statue w:turn it e:turn it n:n:open door:n:turn flashlight on:n:examine model:press green:g:g:press black:g:press white:g:press green:g:g:press black:press blue:press green:g:g:g:press red:g:g:take ring:e:e:take yellow card:s:take slide:put it in slide projector:turn slide projector on:focus slide projector:take film:examine film projector:remove cap:drop it:put film in film projector:turn film projector on:examine screen:n:w:w:s:e:e:examine piano:open lid:take violet card:play tomorrow:push piano n:d:s:take dirty pillar:n:u:push piano s:g:d:n:take meter:s:u:drop pillar:w:w:w:drop ring:drop meter:e:drop yellow and violet:n:drop letter and photo:s:w:enter fireplace:take brick and drop it:u:u:u:e:d:take penguin:u:w:d:d:d:take indigo card:e:drop penguin:e:drop indigo:w:examine red statue:examine white statue:examine blue statue:e:e:move painting:take green card:examine safe:turn dial right 3:turn dial left 7:turn dial right 5:open safe:take grater:w:drop green:w:drop grater:e:open closet:enter cl
    64                          } else {
    65                          !text 255,"turn statue w:turn it e:turn it n:n:open door:n:turn flashlight on:n:examine model:press green:g:g:press black:g:press white:g:press green:g:g:press black:press blue:press green:g:g:g:press red:g:g:take ring:e:e:take yellow card:s:take slide:put it in slide projector:turn slide projector on:focus slide projector:take film:examine film projector:remove cap:drop it:put film in film projector:turn film projector on:examine screen:n:w:w:s:e:e:examine piano:open lid:take violet card:play tomorrow:push piano n:d:s:take dirty pillar:n:u:push piano s:g:d:n:take meter:s:u:drop pillar:w:w:w:drop ring:drop meter:e:drop yellow and violet:n:drop letter and photo:s:w:enter fireplace:take brick and drop it:u:u:u:e:d:take penguin:u:w:d:d:d:take indigo card:e:drop penguin:e:drop indigo:w:examine red statue:examine white statue:examine blue statue:e:e:move painting:take green card:examine safe:turn dial right 3:turn dial left 7:turn dial right 5:open safe:take grater:w:drop green:w:drop grater:e:open closet:enter c
    66                          }
    67                          benchmark_read_char
    68                          	lda benchmark_commands
    69                          	beq +++
    70                          	inc benchmark_read_char + 1
    71                          	bne +
    72                          	inc benchmark_read_char + 2
    73                          +	cmp #255
    74                          	beq ++
    75                          	sta .petscii_char_read
    76                          	jsr translate_petscii_to_zscii
    77                          +++	rts
    78                          ++	jsr dollar
    79                          !ifndef ACORN {
    80                          	lda $a0
    81                          	jsr print_byte_as_hex
    82                          	lda $a1
    83                          	jsr print_byte_as_hex
    84                          	lda $a2
    85                          } else {
    86                              jsr kernal_readtime
    87                              pha
    88                              tya
    89                              jsr print_byte_as_hex
    90                              txa
    91                              jsr print_byte_as_hex
    92                              pla
    93                          }
    94                          	jsr print_byte_as_hex
    95                          	jsr space
    96                          	jsr printchar_flush
    97                          	lda #13
    98                          	rts
    99                          }
   100                          	
   101                          z_ins_print_char
   102                              ; lda #0
   103                              ; sta alphabet_offset
   104                              ; sta escape_char_counter
   105                              ; sta abbreviation_command
   106  1940 a51e                   lda z_operand_value_low_arr
   107                          ;	jsr invert_case
   108                          ;	jsr translate_zscii_to_petscii
   109  1942 4c1d26             	jmp streams_print_output
   110                          	
   111                          z_ins_new_line
   112  1945 a90d               	lda #13
   113  1947 4c1d26             	jmp streams_print_output
   114                          
   115                          !ifdef Z4PLUS {	
   116                          z_ins_read_char
   117                              ; read_char 1 [time routine] -> (result)
   118                              ; ignore argument 0 (always 1)
   119                              ; ldy z_operand_value_low_arr
   120                              ; optional time routine arguments
   121  194a 207037             	jsr printchar_flush
   122  194d 20d538                 jsr turn_on_cursor
   123  1950 a000                   ldy #0
   124  1952 98                 	tya
   125  1953 8c371e                 sty .read_text_time
   126  1956 8c381e                 sty .read_text_time + 1
   127  1959 a40d                   ldy z_operand_count
   128  195b c003                   cpy #3
   129  195d d017                   bne .read_char_loop
   130  195f a417                   ldy z_operand_value_high_arr + 1
   131  1961 8c371e                 sty .read_text_time
   132  1964 a41f                   ldy z_operand_value_low_arr + 1
   133  1966 8c381e                 sty .read_text_time + 1
   134  1969 a418                   ldy z_operand_value_high_arr + 2
   135  196b 8c3f1e                 sty .read_text_routine
   136  196e a420                   ldy z_operand_value_low_arr + 2
   137  1970 8c401e                 sty .read_text_routine + 1
   138                          !ifndef ACORN {
   139                          !ifdef USE_BLINKING_CURSOR {
   140                              jsr init_cursor_timer
   141                          }
   142                          }
   143  1973 20951c                 jsr init_read_text_timer
   144                          .read_char_loop
   145  1976 20f41c                 jsr read_char
   146  1979 c900                   cmp #0
   147  197b f0f9                   beq .read_char_loop ; timer routine returned false
   148  197d 48                 	pha
   149  197e 20db38                 jsr turn_off_cursor
   150                          	; lda current_window
   151                          	; bne .no_need_to_start_buffering
   152                          	; lda is_buffered_window
   153                          	; beq .no_need_to_start_buffering
   154  1981 208936             	jsr start_buffering
   155                          ; .no_need_to_start_buffering	
   156  1984 68                 	pla
   157  1985 c901                   cmp #1
   158  1987 d002                   bne +
   159  1989 a900                   lda #0 ; time routine returned true, and read_char should return 0
   160  198b aa                 +   tax
   161  198c a900                   lda #0
   162  198e 4c2e40             	jmp z_store_result
   163                          }
   164                          	
   165                          !ifdef Z5PLUS {	
   166                          z_ins_tokenise_text
   167                              ; tokenise text parse dictionary flag
   168                              ; setup string_array
   169  1991 a61e                   ldx z_operand_value_low_arr
   170  1993 a516               	lda z_operand_value_high_arr
   171  1995 8643                   stx string_array
   172  1997 18                     clc
   173  1998 694e                   adc #>story_start
   174  199a 8544                   sta string_array + 1
   175                              ; setup user dictionary, if supplied
   176  199c a50d               	lda z_operand_count
   177  199e c903               	cmp #3
   178  19a0 900f               	bcc .no_user_dictionary
   179  19a2 a620               	ldx z_operand_value_low_arr + 2
   180  19a4 8a                 	txa
   181  19a5 0518                   ora z_operand_value_high_arr + 2
   182  19a7 f008               	beq .no_user_dictionary
   183                          
   184                              ; user dictionary
   185                          
   186  19a9 a518               	lda z_operand_value_high_arr + 2 ; X is already set
   187  19ab 20ef44             	jsr parse_user_dictionary
   188  19ae 4cb919             	jmp .tokenise_main
   189                          	
   190                          .no_user_dictionary
   191                              ; Setup default dictionary
   192  19b1 addd44             	lda dict_is_default
   193  19b4 d003               	bne +
   194  19b6 20f944             	jsr parse_default_dictionary
   195                          +
   196                          
   197                          .tokenise_main
   198                              ; setup parse_array and flag
   199  19b9 a000               	ldy #0
   200  19bb a50d               	lda z_operand_count
   201  19bd c904               	cmp #4
   202  19bf 9002               	bcc .flag_set
   203  19c1 a421                   ldy z_operand_value_low_arr + 3
   204                          .flag_set	
   205  19c3 a61f                   ldx z_operand_value_low_arr + 1
   206  19c5 a517               	lda z_operand_value_high_arr + 1
   207  19c7 4c421e                 jmp tokenise_text
   208                          
   209                          ; SFTODO +make_acorn_screen_hole
   210                          z_ins_encode_text
   211                              ; encode_text zscii-text length from coded-text
   212                              ; setup string_array
   213  19ca a61e                   ldx z_operand_value_low_arr
   214  19cc a516               	lda z_operand_value_high_arr
   215  19ce 8643                   stx string_array
   216  19d0 18                     clc
   217  19d1 694e                   adc #>story_start
   218  19d3 8544                   sta string_array + 1
   219                              ; setup length (seems okay to ignore)
   220                              ; ldx z_operand_value_low_arr + 1
   221                              ; setup from
   222  19d5 a620                   ldx z_operand_value_low_arr + 2
   223  19d7 8ee01e                 stx .wordstart
   224                              ; do the deed
   225  19da 20261b                 jsr encode_text
   226                              ; save result
   227  19dd a621                   ldx z_operand_value_low_arr + 3
   228  19df a519               	lda z_operand_value_high_arr + 3
   229  19e1 8643                   stx string_array
   230  19e3 18                     clc
   231  19e4 694e                   adc #>story_start
   232  19e6 8544                   sta string_array + 1
   233  19e8 a000                   ldy #0
   234  19ea b90e00             -   lda zword,y
   235  19ed 9143                   sta (string_array),y
   236  19ef c8                     iny
   237  19f0 c006                   cpy #6
   238  19f2 d0f6                   bne -
   239  19f4 60                     rts
   240                          }
   241                          
   242                          z_ins_print_addr 
   243  19f5 a61e                   ldx z_operand_value_low_arr
   244  19f7 a516               	lda z_operand_value_high_arr
   245  19f9 206f44             	jsr set_z_address
   246  19fc 4c3c1f             	jmp print_addr
   247                          
   248                          z_ins_print_paddr
   249                              ; Packed address is now in (z_operand_value_high_arr, z_operand_value_low_arr)
   250  19ff a516                   lda z_operand_value_high_arr
   251  1a01 a61e                   ldx z_operand_value_low_arr
   252  1a03 20ca44                 jsr set_z_paddress
   253  1a06 4c3c1f                 jmp print_addr
   254                          
   255                          z_ins_print 
   256  1a09 a430                   ldy z_pc
   257  1a0b a531                   lda z_pc + 1
   258  1a0d a632                   ldx z_pc + 2
   259  1a0f 208d44                 jsr set_z_himem_address
   260  1a12 203c1f                 jsr print_addr
   261  1a15 20ab44                 jsr get_z_himem_address
   262  1a18 8675               	stx zp_temp
   263  1a1a aa                 	tax
   264  1a1b 98                 	tya
   265  1a1c a475               	ldy zp_temp
   266  1a1e 4c3339             	jmp set_z_pc
   267                          
   268                          z_ins_print_ret
   269  1a21 20091a                 jsr z_ins_print
   270  1a24 a90d                   lda #$0d
   271  1a26 201d26                 jsr streams_print_output
   272  1a29 a900                   lda #0
   273  1a2b a201                   ldx #1
   274  1a2d 4ce73a                 jmp stack_return_from_routine
   275                          
   276                          
   277                          ; ============================= New unified read instruction
   278                          z_ins_read
   279                              ; z3: sread text parse
   280                              ; z4: sread text parse time routine
   281                              ; z5: aread text parse time routine -> (result)
   282  1a30 207037                 jsr printchar_flush
   283                          !ifdef ACORN_CURSOR_PASS_THROUGH {
   284                          !ifdef ACORN_CURSOR_EDIT_READ {
   285                              ; Since we're reading a line of text here, we temporarily re-enable cursor
   286                              ; editing.
   287  1a33 203922                 jsr do_osbyte_set_cursor_editing_x_0
   288                          }
   289                          }
   290                          !ifdef Z3 {
   291                              ; Z1 - Z3 should redraw the status line before input
   292                              jsr draw_status_line
   293                          }
   294                          !ifdef Z4PLUS {
   295                              ; arguments that need to be copied to their own locations because there *may* be a timed interrupt call
   296  1a36 a60d                   ldx z_operand_count
   297  1a38 8e361e             	stx .read_text_operand_count
   298  1a3b a41f                   ldy z_operand_value_low_arr + 1
   299  1a3d 8c301e                 sty .read_parse_buffer
   300  1a40 a417                   ldy z_operand_value_high_arr + 1
   301  1a42 8c311e                 sty .read_parse_buffer + 1
   302  1a45 a900               	lda #0
   303  1a47 a8                     tay
   304  1a48 e003               	cpx #3
   305  1a4a 900e               	bcc + ; time and routine are omitted
   306  1a4c a419                   ldy z_operand_value_high_arr + 3
   307  1a4e 8c3f1e                 sty .read_text_routine
   308  1a51 a421                   ldy z_operand_value_low_arr + 3
   309  1a53 8c401e                 sty .read_text_routine + 1
   310  1a56 a518               	lda z_operand_value_high_arr + 2
   311  1a58 a420               	ldy z_operand_value_low_arr + 2
   312  1a5a 8d371e             +	sta .read_text_time
   313  1a5d 8c381e             	sty .read_text_time + 1
   314                          }
   315                              ; Read input
   316  1a60 a516               	lda z_operand_value_high_arr
   317  1a62 a61e               	ldx z_operand_value_low_arr
   318  1a64 20451d                 jsr read_text
   319                          !ifdef TRACE_READTEXT {
   320                              jsr print_following_string
   321                          !ifndef ACORN {
   322                              !pet "read_text ",0
   323                          } else {
   324                              !text "read_text ",0
   325                          }
   326                              ldx z_operand_value_low_arr
   327                              lda z_operand_value_high_arr
   328                              jsr printx
   329                              jsr space
   330                              jsr printa
   331                              jsr colon
   332                              ldx string_array
   333                              lda string_array+1
   334                              jsr printx
   335                              jsr space
   336                              jsr printa
   337                          !ifdef Z5PLUS {
   338                              jsr colon
   339                              lda .read_text_return_value
   340                              jsr printa
   341                          }
   342                              jsr newline
   343                              ldy #0
   344                          -   lda (string_array),y
   345                              jsr printa
   346                              jsr space
   347                              iny
   348                              cpy #10
   349                              bne -
   350                              jsr newline
   351                          }
   352                          !ifdef Z5PLUS {
   353                              ; parse it as well? In Z5, this can be avoided by setting parse to 0
   354  1a67 ae361e                 ldx .read_text_operand_count
   355  1a6a e002                   cpx #2
   356  1a6c 901b                   bcc .read_done
   357  1a6e ad301e             	lda .read_parse_buffer
   358  1a71 0d311e             	ora .read_parse_buffer + 1
   359  1a74 f013               	beq .read_done
   360                          
   361                              ; Setup default dictionary
   362  1a76 addd44             	lda dict_is_default
   363  1a79 d003               	bne +
   364  1a7b 20f944             	jsr parse_default_dictionary
   365                          +
   366                          }
   367                          
   368                          !ifdef Z3 {
   369                              lda z_operand_value_high_arr + 1
   370                              ldx z_operand_value_low_arr + 1
   371                          } else {
   372  1a7e ad311e                 lda .read_parse_buffer + 1
   373  1a81 ae301e                 ldx .read_parse_buffer
   374                          }
   375  1a84 a000                   ldy #0
   376  1a86 20421e                 jsr tokenise_text
   377                          !ifdef TRACE_TOKENISE {
   378                              ldy #0
   379                          -   lda (parse_array),y
   380                              jsr printa
   381                              jsr space
   382                              iny
   383                              cpy #10
   384                              bne -
   385                              jsr newline
   386                          }
   387                          .read_done
   388                          !ifdef ACORN_CURSOR_PASS_THROUGH {
   389                          !ifdef ACORN_CURSOR_EDIT_READ {
   390  1a89 a201                   ldx #1
   391  1a8b 203b22                 jsr do_osbyte_set_cursor_editing
   392                          }
   393                          }
   394  1a8e 208936             	jsr start_buffering
   395                              ; debug - print parsearray
   396                          !ifdef TRACE_PRINT_ARRAYS {
   397                              ldy #0
   398                          -   lda (string_array),y
   399                              tax
   400                              jsr printx
   401                              lda #$20
   402                              jsr streams_print_output
   403                              iny
   404                              cpy #12
   405                              bne -
   406                              lda #$0d
   407                              jsr streams_print_output
   408                              ldy #0
   409                          -   lda (parse_array),y
   410                              tax
   411                              jsr printx
   412                              lda #$20
   413                              jsr streams_print_output
   414                              iny
   415                              cpy #16
   416                              bne -
   417                              lda #$0d
   418                              jsr streams_print_output
   419                          }
   420                          !ifdef DEBUG {
   421                          !ifdef PREOPT {
   422                          	jsr print_following_string
   423                          	!raw "[preopt mode. type xxx to exit early.]",13,0
   424                          !ifdef Z5PLUS {
   425                          	ldy #2
   426                          } else {
   427                          	ldy #1
   428                          }
   429                          .check_next_preopt_exit_char
   430                          	lda (string_array),y
   431                          	cmp #$78
   432                          	bne .not_preopt_exit
   433                          	iny
   434                          !ifdef Z5PLUS {
   435                          	cpy #5
   436                          } else {
   437                          	cpy #4
   438                          }
   439                          	bne .check_next_preopt_exit_char
   440                          ; Exit PREOPT mode
   441                          	ldx #1
   442                          	jmp print_optimized_vm_map
   443                          .not_preopt_exit	
   444                          }	
   445                          }
   446                          !ifdef Z5PLUS {
   447  1a91 a900                   lda #0
   448  1a93 ae411e                 ldx .read_text_return_value
   449  1a96 4c2e40             	jmp z_store_result
   450                          } else {
   451                          	rts
   452                          }
   453                          ; ============================= End of new unified read instruction
   454                          
   455                          !ifdef Z5PLUS {
   456                          z_ins_check_unicode
   457  1a99 a900               	lda #0
   458  1a9b aa                 	tax
   459  1a9c 4c2e40             	jmp z_store_result
   460                          	
   461                          z_ins_print_unicode
   462  1a9f a928               	lda #$28 ; (
   463  1aa1 201d26             	jsr streams_print_output
   464  1aa4 a923               	lda #$23 ; #
   465  1aa6 201d26             	jsr streams_print_output
   466  1aa9 20fd32             	jsr print_num_unsigned
   467  1aac a929               	lda #$29 ; )
   468  1aae 4c1d26             	jmp streams_print_output
   469                          }
   470                          	
   471                          convert_zchar_to_char
   472                              ; input: a=zchar
   473                              ; output: a=char
   474                              ; side effects:
   475                              ; used registers: a,y
   476  1ab1 c920                   cmp #$20
   477  1ab3 f00d                   beq +++
   478  1ab5 c906                   cmp #6
   479  1ab7 9009                   bcc +++
   480  1ab9 38                     sec
   481  1aba e906                   sbc #6
   482  1abc 18                     clc
   483  1abd 6538                   adc alphabet_offset
   484  1abf a8                     tay
   485  1ac0 b17e                   lda (alphabet_table),y
   486  1ac2 60                 +++	rts
   487                          
   488                          translate_petscii_to_zscii
   489  1ac3 a20b               	ldx #character_translation_table_in_end - character_translation_table_in - 1
   490  1ac5 ddf525             -	cmp character_translation_table_in,x
   491  1ac8 9006               	bcc .no_match
   492  1aca f005               	beq .translation_match
   493  1acc ca                 	dex
   494  1acd ca                 	dex
   495  1ace 10f5               	bpl -
   496                          .no_match	
   497                          	; cmp #$60
   498                          	; bcc .no_shadow
   499                          	; cmp #$80
   500                          	; bcs .no_shadow
   501                          	; eor #$a0
   502                          ; .no_shadow
   503                          !ifndef ACORN {
   504                          	cmp #$41
   505                          	bcc .case_conversion_done
   506                          	cmp #$5b
   507                          	bcs .not_lower_case
   508                          	; Lower case. $41 -> $61
   509                          	ora #$20
   510                          	bcc .case_conversion_done
   511                          .not_lower_case
   512                          	cmp #$c1
   513                          	bcc .case_conversion_done
   514                          	cmp #$db
   515                          	bcs .case_conversion_done
   516                          	; Upper case. $c1 -> $41
   517                          	and #$7f
   518                          .case_conversion_done
   519                          }
   520  1ad0 60                 	rts
   521                          .translation_match
   522  1ad1 ca                 	dex
   523  1ad2 bdf525             	lda character_translation_table_in,x
   524  1ad5 60                 	rts
   525                          
   526                          	
   527                          convert_char_to_zchar
   528                              ; input: a=char
   529                              ; output: store zchars in z_temp,x. Increase x. Exit if x >= ZCHARS_PER_ENTRY
   530                              ; side effects:
   531                              ; used registers: a,x
   532                          	; NOTE: This routine can't convert space (code 0) or newline (code 7 in A2) properly, but there's no need to either.
   533                          ;	jsr translate_petscii_to_zscii
   534  1ad6 8479               	sty zp_temp + 4
   535  1ad8 a000               	ldy #0
   536  1ada d17e               -   cmp (alphabet_table),y
   537  1adc f01f                   beq .found_char_in_alphabet
   538  1ade c8                     iny
   539  1adf c04e                   cpy #26*3
   540  1ae1 d0f7                   bne -
   541                          	; Char is not in alphabet
   542  1ae3 48                 	pha
   543  1ae4 a905               	lda #5
   544  1ae6 9568               	sta z_temp,x
   545  1ae8 e8                 	inx
   546  1ae9 a906               	lda #6
   547  1aeb 9568               	sta z_temp,x
   548  1aed e8                 	inx
   549  1aee 68                 	pla
   550  1aef 48                 	pha
   551  1af0 4a                 	lsr
   552  1af1 4a                 	lsr
   553  1af2 4a                 	lsr
   554  1af3 4a                 	lsr
   555  1af4 4a                 	lsr
   556  1af5 9568               	sta z_temp,x
   557  1af7 68                 	pla
   558  1af8 291f               	and #%00011111
   559  1afa e8                 	inx
   560  1afb d021               	bne .store_last_char ; Always branch
   561                          	
   562                              ; tax
   563                          ; !ifdef DEBUG {
   564                              ; jsr printx
   565                          ; }
   566                              ; lda #ERROR_INVALID_CHAR
   567                              ; jsr fatalerror
   568                          .found_char_in_alphabet
   569  1afd c01a               	cpy #26
   570  1aff 9019               	bcc .found_in_a0
   571  1b01 a904               	lda #4 ; Shift to A1
   572  1b03 c034               	cpy #26*2
   573  1b05 9002               	bcc .found_in_a1
   574  1b07 a905               	lda #5 ; Shift to A2
   575                          .found_in_a1
   576                          ;	stx zp_temp + 3
   577                          ;	ldx zp_temp + 4
   578  1b09 9568               	sta z_temp,x
   579  1b0b e8                 	inx
   580  1b0c 8477               	sty zp_temp + 2 ; Remember old Y value
   581  1b0e a8                 	tay ; Holds 4 for A1 or 5 for A2
   582  1b0f a577               	lda zp_temp + 2
   583  1b11 38                 -	sec
   584  1b12 e91a               	sbc #26
   585  1b14 88                 	dey
   586  1b15 c004               	cpy #4
   587  1b17 b0f8               	bcs -
   588                          ;	ldy zp_temp + 2 ; Restore old Y value
   589  1b19 a8                 	tay
   590                          .found_in_a0
   591  1b1a 98                 	tya
   592  1b1b 18                     clc
   593  1b1c 6906                   adc #6
   594                          ;	ldx zp_temp + 4
   595                          .store_last_char	
   596  1b1e 9568               	sta z_temp,x
   597  1b20 e8                 	inx
   598                          .convert_return
   599  1b21 a479               	ldy zp_temp + 4
   600  1b23 60                     rts
   601                          
   602                          .first_word = z_temp ;	!byte 0,0
   603                          .last_word = z_temp + 2 ; 	!byte 0,0
   604                          .median_word = z_temp + 4	; !byte 0,0
   605                          .final_word = zp_temp;  	!byte 0	
   606                          	
   607                          .is_word_found = zp_temp + 1 ; !byte 0
   608                          .triplet_counter = zp_temp + 2; !byte 0
   609                          ; SFTODODATA 2
   610  1b24 00                 .last_char_index		!byte 0
   611  1b25 00                 .parse_array_index 		!byte 0
   612                          .dictionary_address = zp_temp + 3 ;  !byte 0,0
   613                          ; .zword !byte 0,0,0,0,0,0
   614                          	
   615                          	
   616                          !ifdef Z4PLUS {
   617                              ZCHARS_PER_ENTRY = 9
   618                          } else {
   619                              ZCHARS_PER_ENTRY = 6
   620                          }
   621                          ZCHAR_BYTES_PER_ENTRY = ZCHARS_PER_ENTRY * 2 / 3
   622                          ZWORD_OFFSET = 6 - ZCHAR_BYTES_PER_ENTRY
   623                          
   624                          encode_text
   625                              ; input .wordstart
   626                              ; registers: a,x,y
   627                              ; side effects: .last_char_index, .triplet_counter, zword
   628  1b26 ace01e             	ldy .wordstart ; Pointer to current character
   629  1b29 a200               	ldx #0 ; Next position in z_temp
   630  1b2b b143               -	lda (string_array),y
   631  1b2d 20d61a             	jsr convert_char_to_zchar
   632  1b30 e009               	cpx #ZCHARS_PER_ENTRY
   633  1b32 b00f               	bcs .done_converting_to_zchars
   634  1b34 c8                 	iny
   635  1b35 cce11e             	cpy .wordend
   636  1b38 90f1               	bcc -
   637                          	; Pad rest of word
   638  1b3a a905               	lda #5 ; Pad character
   639  1b3c 9568               -	sta z_temp,x
   640  1b3e e8                 	inx
   641  1b3f e009               	cpx #ZCHARS_PER_ENTRY
   642  1b41 90f9               	bcc -
   643                          .done_converting_to_zchars
   644  1b43 a200               	ldx #0 ; x = start of current triplet 
   645  1b45 a000               	ldy #0 ; Pointer to next character in buffer
   646  1b47 b96800             -	lda z_temp,y
   647  1b4a 950e               	sta zword + ZWORD_OFFSET,x
   648  1b4c c8                 	iny
   649  1b4d b96800             	lda z_temp,y
   650  1b50 0a                 	asl
   651  1b51 0a                 	asl
   652  1b52 0a                 	asl
   653  1b53 0a                 	asl
   654  1b54 360e               	rol zword + ZWORD_OFFSET,x
   655  1b56 0a                 	asl
   656  1b57 360e               	rol zword + ZWORD_OFFSET,x
   657  1b59 c8                 	iny
   658  1b5a 196800             	ora z_temp,y
   659  1b5d 950f               	sta zword + ZWORD_OFFSET + 1,x
   660  1b5f c8                 	iny
   661  1b60 e8                 	inx
   662  1b61 e8                 	inx
   663  1b62 e006               	cpx #(2 * (ZCHARS_PER_ENTRY / 3))
   664  1b64 90e1               	bcc -
   665  1b66 a512               	lda zword + 4
   666  1b68 0980               	ora #$80
   667  1b6a 8512               	sta zword + 4
   668  1b6c 60                 	rts
   669                          
   670                          ; SFTODO +make_acorn_screen_hole
   671                          find_word_in_dictionary
   672                              ; convert word to zchars and find it in the dictionary
   673                              ; see: http://inform-fiction.org/zmachine/standards/z1point1/sect13.html
   674                              ; http://inform-fiction.org/manual/html/s2.html#s2_5
   675                              ; input: 
   676                              ;   y = index in parse_array to store result in
   677                              ;   parse_array = indirect address to parse_array
   678                              ;   string_array = indirect address to string being parsed
   679                              ;   .wordstart = index in string_array to first char of current word
   680                              ;   .wordend = index in string_array to last char of current word
   681                              ; output: puts address in parse_array[y] and parse_array[y+1]
   682                              ; side effects:
   683                              ; used registers: a,x
   684  1b6d 8c251b                 sty .parse_array_index ; store away the index for later
   685                              ; lda #0
   686                          	; ldx #5
   687                          ; -	sta .zword,x      ; clear zword buffer
   688                          	; dex
   689                          	; bpl -
   690  1b70 a901                   lda #1
   691  1b72 8576                   sta .is_word_found ; assume success until proven otherwise
   692  1b74 20261b                 jsr encode_text
   693                          !ifdef TRACE_TOKENISE {
   694                              ; print zword (6 or 9 bytes)
   695                              jsr newline
   696                              ldx zword 
   697                              jsr printx
   698                              jsr comma
   699                              ldx zword + 1
   700                              jsr printx
   701                              jsr comma
   702                              ldx zword + 2
   703                              jsr printx
   704                              jsr comma
   705                              ldx zword + 3
   706                              jsr printx
   707                              jsr comma
   708                              ldx zword + 4
   709                              jsr printx
   710                              jsr comma
   711                              ldx zword + 5
   712                              jsr printx
   713                              jsr newline
   714                          }
   715                              ; find entry in dictionary, using binary search
   716                          	; Step 1: Set start and end of dictionary
   717  1b77 a900               	lda #0
   718  1b79 8575               	sta .final_word
   719  1b7b 8568               	sta .first_word
   720  1b7d 8569               	sta .first_word + 1
   721  1b7f ade244             	lda dict_num_entries + 1 ; This is stored High-endian
   722  1b82 aa                 	tax
   723  1b83 0de144             	ora dict_num_entries ; This is stored High-endian
   724  1b86 d003               	bne +
   725  1b88 4c331c             	jmp .no_entry_found
   726  1b8b 8a                 +	txa
   727  1b8c 38                 	sec
   728  1b8d e901               	sbc #1
   729  1b8f 856a               	sta .last_word
   730  1b91 ade144             	lda dict_num_entries
   731  1b94 e900               	sbc #0
   732  1b96 856b               	sta .last_word + 1
   733                          !ifdef Z5PLUS {
   734  1b98 ade344             	lda dict_ordered
   735  1b9b d003               	bne .loop_check_next_entry
   736  1b9d 4c541c             	jmp .find_word_in_unordered_dictionary
   737                          }		
   738                          	; Step 2: Calculate the median word
   739                          .loop_check_next_entry
   740  1ba0 a56a               	lda .last_word
   741  1ba2 c568               	cmp .first_word
   742  1ba4 d008               	bne .more_than_one_word
   743  1ba6 a66b               	ldx .last_word + 1
   744  1ba8 e469               	cpx .first_word + 1
   745  1baa d002               	bne .more_than_one_word
   746                          ; This is the last possible word that can match
   747  1bac c675               	dec .final_word ; Signal that this is the last possible word
   748                          .more_than_one_word
   749  1bae 38                 	sec
   750  1baf e568               	sbc .first_word
   751  1bb1 aa                 	tax
   752  1bb2 a56b               	lda .last_word + 1
   753  1bb4 e569               	sbc .first_word + 1
   754  1bb6 4a                 	lsr
   755  1bb7 a8                 	tay
   756  1bb8 8a                 	txa
   757  1bb9 6a                 	ror
   758  1bba 18                 	clc
   759  1bbb 6568               	adc .first_word
   760  1bbd 856c               	sta .median_word
   761  1bbf 8d1823             	sta multiplicand
   762  1bc2 98                 	tya
   763  1bc3 6569               	adc .first_word + 1
   764  1bc5 856d               	sta .median_word + 1
   765  1bc7 8d1923             	sta multiplicand + 1
   766                          	
   767                          	; Step 3: Set the address of the median word
   768  1bca ade044             	lda dict_len_entries
   769  1bcd 8d1623             	sta multiplier
   770  1bd0 a900               	lda #0
   771  1bd2 8d1723             	sta multiplier + 1
   772  1bd5 20e322             	jsr mult16
   773  1bd8 ad1a23             	lda product
   774  1bdb 18                 	clc
   775  1bdc 6dde44             	adc dict_entries
   776  1bdf aa                 	tax
   777  1be0 ad1b23             	lda product + 1
   778  1be3 6ddf44             	adc dict_entries + 1
   779  1be6 8578                   sta .dictionary_address
   780  1be8 8679                   stx .dictionary_address + 1
   781  1bea 206f44             	jsr set_z_address
   782                          
   783                              ; show the dictonary word
   784                          !ifdef TRACE_SHOW_DICT_ENTRIES {
   785                          	jsr dollar
   786                          	lda .dictionary_address
   787                          	jsr print_byte_as_hex
   788                          	lda .dictionary_address + 1
   789                          	jsr print_byte_as_hex
   790                          ;	lda z_address + 2
   791                          ;	jsr print_byte_as_hex
   792                          	jsr space
   793                          
   794                          ;	jsr pause
   795                              lda z_address + 1
   796                              pha
   797                              lda z_address + 2
   798                              pha
   799                              ; lda z_address+1
   800                              ; jsr printa
   801                              ; jsr comma
   802                              ; lda z_address+2
   803                              ; jsr printa
   804                              jsr print_addr
   805                              pla 
   806                              sta z_address + 2
   807                              pla 
   808                              sta z_address + 1
   809                          }
   810                          
   811                              ; check if correct entry
   812  1bed a000                   ldy #0
   813                          .loop_check_entry
   814  1bef 20b244                 jsr read_next_byte
   815                          ; !ifdef TRACE_SHOW_DICT_ENTRIES {
   816                              ; jsr printa
   817                              ; jsr space
   818                          ; }
   819                          !ifdef Z4PLUS {
   820  1bf2 d90e00                 cmp zword,y
   821                          } else {
   822                              cmp zword + 2,y
   823                          }
   824  1bf5 d007                   bne .zchars_differ
   825  1bf7 c8                     iny
   826  1bf8 c006                   cpy #ZCHAR_BYTES_PER_ENTRY
   827  1bfa d0f3                   bne .loop_check_entry
   828  1bfc f048               	beq .found_dict_entry ; Always branch
   829                          .zchars_differ
   830  1bfe 08                 	php
   831  1bff a575               	lda .final_word
   832  1c01 f003               	beq .not_final_word
   833  1c03 28                 	plp
   834  1c04 d02d               	bne .no_entry_found ; Always branch
   835                          .not_final_word
   836  1c06 28                 	plp
   837  1c07 b010               	bcs .larger_than_sought_word
   838                          ; The median word is smaller than the sought word
   839                          !ifdef TRACE_SHOW_DICT_ENTRIES {
   840                          	lda #60
   841                          	jsr streams_print_output
   842                              jsr newline
   843                          }
   844  1c09 a56c               	lda .median_word
   845  1c0b 18                 	clc
   846  1c0c 6901               	adc #1
   847  1c0e 8568               	sta .first_word
   848  1c10 a56d               	lda .median_word + 1
   849  1c12 6900               	adc #0
   850  1c14 8569               	sta .first_word + 1
   851  1c16 4ca01b             	jmp .loop_check_next_entry ; Always branch
   852                          .larger_than_sought_word
   853                          ; The median word is larger than the sought word
   854                          !ifdef TRACE_SHOW_DICT_ENTRIES {
   855                          	lda #62
   856                          	jsr streams_print_output
   857                              jsr newline
   858                          }
   859  1c19 a56c               	lda .median_word
   860  1c1b c568               	cmp .first_word
   861  1c1d d006               	bne .median_is_not_first
   862  1c1f a46d               	ldy .median_word + 1
   863  1c21 c469               	cpy .first_word + 1
   864  1c23 f00e               	beq .no_entry_found
   865                          .median_is_not_first
   866  1c25 38                 	sec
   867  1c26 e901               	sbc #1
   868  1c28 856a               	sta .last_word
   869  1c2a a56d               	lda .median_word + 1
   870  1c2c e900               	sbc #0
   871  1c2e 856b               	sta .last_word + 1
   872  1c30 4ca01b             	jmp .loop_check_next_entry ; Always branch
   873                          
   874                          	
   875                          ; no entry found
   876                          .no_entry_found
   877                          !ifdef TRACE_SHOW_DICT_ENTRIES {
   878                          	lda #60
   879                          	jsr streams_print_output
   880                          	lda #62
   881                          	jsr streams_print_output
   882                              jsr newline
   883                          }
   884  1c33 a900                   lda #0
   885  1c35 8578                   sta .dictionary_address
   886  1c37 8579                   sta .dictionary_address + 1
   887  1c39 8576                   sta .is_word_found
   888  1c3b ade21e             	lda .ignore_unknown_words
   889  1c3e f006               	beq .store_find_result
   890  1c40 ac251b                 ldy .parse_array_index
   891  1c43 c8                 	iny
   892  1c44 c8                 	iny
   893  1c45 60                 	rts
   894                          
   895                          ; After adding an rts above, the following code can't be reached anyway.	
   896                          ;!ifdef TRACE_SHOW_DICT_ENTRIES {
   897                          ;	beq .store_find_result ; Only needed if TRACE_SHOW_DICT_ENTRIES is set
   898                          ;}
   899                          .found_dict_entry
   900                              ; store result into parse_array and exit
   901                          !ifdef TRACE_SHOW_DICT_ENTRIES {
   902                          	lda #61
   903                          	jsr streams_print_output
   904                              jsr newline
   905                          }
   906                          .store_find_result
   907  1c46 ac251b                 ldy .parse_array_index
   908  1c49 a578                   lda .dictionary_address
   909  1c4b 9141                   sta (parse_array),y
   910  1c4d c8                     iny
   911  1c4e a579                   lda .dictionary_address + 1
   912  1c50 9141                   sta (parse_array),y
   913  1c52 c8                     iny
   914  1c53 60                     rts
   915                          
   916                          !ifdef Z5PLUS {
   917                          .find_word_in_unordered_dictionary
   918                          ; In the end, jump to either .found_dict_entry or .no_entry_found
   919  1c54 aede44             	ldx dict_entries
   920  1c57 8679               	stx .dictionary_address + 1 ; Stored with high-byte first!
   921  1c59 addf44             	lda dict_entries + 1
   922  1c5c 8578               	sta .dictionary_address ; Stored with high-byte first!
   923                          .unordered_check_next_word
   924  1c5e 206f44             	jsr set_z_address
   925                          
   926                              ; check if correct entry
   927  1c61 a000                   ldy #0
   928                          .unordered_loop_check_entry
   929  1c63 20b244                 jsr read_next_byte
   930                          !ifdef Z4PLUS {
   931  1c66 d90e00                 cmp zword,y
   932                          } else {
   933                              cmp zword + 2,y
   934                          }
   935  1c69 d007                   bne .unordered_not_a_match
   936  1c6b c8                     iny
   937  1c6c c006                   cpy #ZCHAR_BYTES_PER_ENTRY
   938  1c6e d0f3                   bne .unordered_loop_check_entry
   939  1c70 f0d4               	beq .found_dict_entry ; Always branch
   940                          	
   941                          	
   942                          .unordered_not_a_match	
   943  1c72 e668               	inc .first_word
   944  1c74 d002               	bne +
   945  1c76 e669               	inc .first_word + 1
   946  1c78 a56a               +	lda .last_word
   947  1c7a c568               	cmp .first_word
   948  1c7c a56b               	lda .last_word + 1
   949  1c7e e569               	sbc .first_word + 1
   950  1c80 9011               	bcc + ; No more words to check
   951  1c82 a579               	lda .dictionary_address + 1
   952  1c84 18                 	clc
   953  1c85 6de044             	adc dict_len_entries
   954  1c88 aa                 	tax
   955  1c89 8579               	sta .dictionary_address + 1
   956  1c8b a578               	lda .dictionary_address
   957  1c8d 6900               	adc #0
   958  1c8f 8578               	sta .dictionary_address
   959  1c91 90cb               	bcc .unordered_check_next_word ; Always branch
   960                          
   961  1c93 b09e               +	bcs .no_entry_found ; Always branch
   962                          } ; End of !ifdef Z5PLUS
   963                          
   964                          !ifndef ACORN {
   965                          !ifdef USE_BLINKING_CURSOR {
   966                          init_cursor_timer
   967                              lda #0
   968                              sta s_cursormode
   969                              ; calculate timer interval in jiffys (1/60 second NTSC, 1/50 second PAL)
   970                              sta .cursor_time_jiffy
   971                              sta .cursor_time_jiffy + 1
   972                              lda USE_BLINKING_CURSOR
   973                              sta .cursor_time_jiffy + 2
   974                          update_cursor_timer
   975                              ; calculate when the next cursor update occurs
   976                              jsr kernal_readtime  ; read current time (in jiffys)
   977                              clc
   978                              adc .cursor_time_jiffy + 2
   979                              sta .cursor_jiffy + 2
   980                              txa
   981                              adc .cursor_time_jiffy + 1
   982                              sta .cursor_jiffy + 1
   983                              tya
   984                              adc .cursor_time_jiffy
   985                              sta .cursor_jiffy
   986                              rts
   987                          }
   988                          }
   989                          
   990                          !ifdef Z4PLUS {
   991                          init_read_text_timer
   992  1c95 ad371e             	lda .read_text_time
   993  1c98 0d381e             	ora .read_text_time + 1
   994  1c9b d001                   bne +
   995  1c9d 60                     rts ; no timer
   996                          +   ; calculate timer interval in jiffys (1/60 second NTSC, 1/50 second PAL)
   997  1c9e ad371e                 lda .read_text_time
   998  1ca1 8d1723                 sta multiplier + 1
   999  1ca4 ad381e                 lda .read_text_time + 1
  1000  1ca7 8d1623                 sta multiplier
  1001  1caa a900                   lda #0
  1002  1cac 8d1923                 sta multiplicand + 1
  1003                          !ifndef ACORN {
  1004                              lda #6
  1005                          } else {
  1006  1caf a905                   lda #5 ; our kernal_readtime uses 1/50 second jiffys
  1007                          }
  1008  1cb1 8d1823                 sta multiplicand ; t*6 to get jiffies
  1009  1cb4 20e322                 jsr mult16
  1010  1cb7 ad1a23                 lda product
  1011  1cba 8d3b1e                 sta .read_text_time_jiffy + 2
  1012  1cbd ad1b23                 lda product + 1
  1013  1cc0 8d3a1e                 sta .read_text_time_jiffy + 1
  1014  1cc3 ad1c23                 lda product + 2
  1015  1cc6 8d391e                 sta .read_text_time_jiffy
  1016                          update_read_text_timer
  1017                              ; prepare time for next routine call (current time + time_jiffy)
  1018  1cc9 203b21                 jsr kernal_readtime  ; read current time (in jiffys)
  1019  1ccc 18                     clc
  1020  1ccd 6d3b1e                 adc .read_text_time_jiffy + 2
  1021  1cd0 8d3e1e                 sta .read_text_jiffy + 2
  1022  1cd3 8a                     txa
  1023  1cd4 6d3a1e                 adc .read_text_time_jiffy + 1
  1024  1cd7 8d3d1e                 sta .read_text_jiffy + 1
  1025  1cda 98                     tya
  1026  1cdb 6d391e                 adc .read_text_time_jiffy
  1027  1cde 8d3c1e                 sta .read_text_jiffy
  1028  1ce1 60                     rts
  1029                          }
  1030                          
  1031                          getchar_and_maybe_toggle_darkmode
  1032                          !ifndef ACORN {
  1033                          !ifdef NODARKMODE {
  1034                          	jmp kernal_getchar
  1035                          } else {
  1036                          	jsr kernal_getchar
  1037                           	cmp #133
  1038                          	bne +
  1039                          	jsr toggle_darkmode
  1040                          	ldx #40 ; Side effect to help when called from MORE prompt
  1041                          	lda #0
  1042                          +	rts
  1043                          }
  1044                          } else { ; ACORN
  1045                              ; In non-teletext modes, copying characters with COPY will only work if they
  1046                              ; share the current OS foreground and background colours. There's a fair
  1047                              ; chance the OS colours are still set to reverse video from drawing the
  1048                              ; status bar; s_printchar would set these correctly the next time it's
  1049                              ; called, but we need to make sure this is right now so COPY works. (We
  1050                              ; can't make this work perfectly if the game mixes normal and reverse video
  1051                              ; a lot, but this will fix things for the typical game anyway.)
  1052  1ce2 20b923                 jsr s_reverse_to_os_reverse
  1053                          
  1054                          !ifndef ACORN_OSRDCH {
  1055  1ce5 a981                   lda #osbyte_read_key
  1056  1ce7 a200                   ldx #0
  1057  1ce9 204122                 jsr do_osbyte_y_0
  1058  1cec 9002                   bcc +
  1059  1cee a200                   ldx #0
  1060  1cf0 8a                 +   txa
  1061                          } else {
  1062                              ; Some emulators (e.g. BeebEm 4.15) don't allow text to be pasted in unless
  1063                              ; it's read via OSRDCH, so we allow the use of OSRDCH as a workaround. This
  1064                              ; will break games which rely on timers being able to break into user
  1065                              ; input.
  1066                              jsr osrdch
  1067                          }
  1068  1cf1 4c7d25                 jmp check_user_interface_controls
  1069                          }
  1070                          
  1071                          read_char
  1072                          	; return: 0,1: return value of routine (false, true)
  1073                          	;         any other number: char value
  1074                          !ifdef BENCHMARK {
  1075                          	jsr benchmark_read_char
  1076                          	cmp #0
  1077                          	beq +
  1078                          	cmp #58 ; colon
  1079                          	bne ++
  1080                          	lda #13
  1081                          ++	rts
  1082                          +
  1083                          }
  1084                          
  1085                          !ifndef ACORN {
  1086                          !ifdef USE_BLINKING_CURSOR {
  1087                              ; check if time for to update the blinking cursor
  1088                              ; http://www.6502.org/tutorials/compare_beyond.html#2.2
  1089                              jsr kernal_readtime   ; read start time (in jiffys) in a,x,y (low to high)
  1090                          	cmp .cursor_jiffy + 2
  1091                          	txa
  1092                          	sbc .cursor_jiffy + 1
  1093                          	tya
  1094                          	sbc .cursor_jiffy
  1095                          	bcc .no_cursor_blink
  1096                          	; blink the cursor
  1097                          	;
  1098                          	; set up next time out
  1099                              jsr update_cursor_timer
  1100                              ; cursor on/off depending on if s_cursormode is even/odd
  1101                              lda #CURSORCHAR ; cursor on
  1102                              sta cursor_character
  1103                              jsr update_cursor
  1104                          	inc s_cursormode
  1105                          	lda s_cursormode
  1106                          	and #$01
  1107                          	beq .no_cursor_blink
  1108                              lda #$20 ; blank space, cursor off
  1109                              sta cursor_character
  1110                              jsr update_cursor
  1111                          .no_cursor_blink
  1112                          }
  1113                          }
  1114                          	
  1115                          !ifdef Z4PLUS {
  1116                              ; check if time for routine call
  1117                              ; http://www.6502.org/tutorials/compare_beyond.html#2.2
  1118  1cf4 ad371e                 lda .read_text_time
  1119  1cf7 0d381e             	ora .read_text_time + 1
  1120  1cfa f03d                   beq .no_timer
  1121  1cfc 203b21                 jsr kernal_readtime   ; read start time (in jiffys) in a,x,y (low to high)
  1122  1cff cd3e1e             	cmp .read_text_jiffy + 2
  1123  1d02 8a                 	txa
  1124  1d03 ed3d1e             	sbc .read_text_jiffy + 1
  1125  1d06 98                 	tya
  1126  1d07 ed3c1e             	sbc .read_text_jiffy
  1127  1d0a 902d               	bcc .no_timer
  1128                          .call_routine	
  1129                              ; current time >= .read_text_jiffy. Time to call routine
  1130  1d0c 20db38                 jsr turn_off_cursor
  1131                          
  1132  1d0f ad3f1e             	lda .read_text_routine
  1133  1d12 8516               	sta z_operand_value_high_arr
  1134  1d14 ae401e             	ldx .read_text_routine + 1
  1135  1d17 861e               	stx z_operand_value_low_arr
  1136  1d19 a980               	lda #z_exe_mode_return_from_read_interrupt
  1137  1d1b a200               	ldx #0
  1138  1d1d a000               	ldy #0
  1139  1d1f 20cf39             	jsr stack_call_routine
  1140                          	; let the interrupt routine start, so we need to rts.
  1141  1d22 206e2c             	jsr z_execute
  1142                          
  1143                          	; Restore buffering setting
  1144                          	; lda .text_tmp
  1145                          	; sta is_buffered_window
  1146  1d25 207037             	jsr printchar_flush
  1147                          
  1148  1d28 20d538             	jsr turn_on_cursor
  1149                          	; Interrupt routine has been executed, with value in word
  1150                          	; z_interrupt_return_value
  1151                          	; set up next time out
  1152  1d2b 20c91c                 jsr update_read_text_timer
  1153                          	; just return the value: 0 or 1 (true or false)
  1154  1d2e ad892b             	lda z_interrupt_return_value
  1155  1d31 0d8a2b             	ora z_interrupt_return_value + 1
  1156  1d34 f002               	beq +
  1157  1d36 a901               	lda #1
  1158  1d38 60                 +	rts
  1159                          }
  1160                          .no_timer
  1161  1d39 20e21c             	jsr getchar_and_maybe_toggle_darkmode
  1162  1d3c c900               	cmp #$00
  1163  1d3e f0b4                   beq read_char
  1164  1d40 8575               	sta .petscii_char_read
  1165  1d42 4cc31a             	jmp translate_petscii_to_zscii
  1166                          
  1167                          !ifndef ACORN {
  1168                          s_cursorswitch !byte 0
  1169                          !ifdef USE_BLINKING_CURSOR {
  1170                          s_cursormode !byte 0
  1171                          }
  1172                          turn_on_cursor
  1173                              lda #1
  1174                              sta s_cursorswitch
  1175                              bne update_cursor ; always branch
  1176                          
  1177                          turn_off_cursor
  1178                              lda #0
  1179                              sta s_cursorswitch
  1180                          
  1181                          update_cursor
  1182                          	sty object_temp
  1183                              ldy zp_screencolumn
  1184                              lda s_cursorswitch
  1185                              bne +
  1186                              ; no cursor
  1187                              lda (zp_screenline),y
  1188                              and #$7f
  1189                              sta (zp_screenline),y
  1190                          	ldy object_temp
  1191                              rts
  1192                          +   ; cursor
  1193                          	lda cursor_character
  1194                          	sta (zp_screenline),y
  1195                          	lda current_cursor_colour
  1196                          	sta (zp_colourline),y
  1197                          	ldy object_temp
  1198                              rts
  1199                          }
  1200                          
  1201                          !ifndef ACORN {
  1202                          !ifdef USE_BLINKING_CURSOR {
  1203                          reset_cursor_blink
  1204                              ; resets the cursor timer and blink mode
  1205                              ; effectively puts the cursor back on the screen for another timer duration
  1206                              lda #$00
  1207                              sta .cursor_jiffy
  1208                              sta .cursor_jiffy + 1
  1209                              sta .cursor_jiffy + 2
  1210                              lda #$01
  1211                              sta s_cursormode
  1212                              rts
  1213                          }
  1214                          }
  1215                          
  1216                          ; SFTODO +make_acorn_screen_hole
  1217                          read_text
  1218                              ; read line from keyboard into an array (address: a/x)
  1219                              ; See also: http://inform-fiction.org/manual/html/s2.html#p54
  1220                              ; input: a,x, .read_text_time (Z4PLUS), .read_text_routine (Z4PLUS)
  1221                              ; output: string_array, .read_text_return_value (Z5PLUS)
  1222                              ; side effects: zp_screencolumn, zp_screenline, .read_text_jiffy
  1223                              ; used registers: a,x,y
  1224  1d45 8643                   stx string_array
  1225  1d47 18                     clc
  1226  1d48 694e                   adc #>story_start
  1227  1d4a 8544                   sta string_array + 1
  1228  1d4c 207037             	jsr printchar_flush
  1229                              ; clear [More] counter
  1230  1d4f 203e37                 jsr clear_num_rows
  1231                          !ifndef ACORN {
  1232                          !ifdef USE_BLINKING_CURSOR {
  1233                              jsr init_cursor_timer
  1234                          }
  1235                          }
  1236                          !ifdef Z4PLUS {
  1237                              ; check timer usage
  1238  1d52 20951c                 jsr init_read_text_timer
  1239                          }
  1240  1d55 a000               	ldy #0
  1241  1d57 b143               	lda (string_array),y
  1242                          !ifdef Z5PLUS {
  1243  1d59 aa                 	tax
  1244  1d5a e8                 	inx
  1245  1d5b 8e351e             	stx .read_text_char_limit
  1246                          } else {
  1247                          	sta .read_text_char_limit
  1248                          }
  1249                              ; store start column
  1250  1d5e c8                     iny
  1251                          !ifdef Z5PLUS {
  1252  1d5f 98                 	tya
  1253  1d60 18                 	clc
  1254  1d61 7143                   adc (string_array),y
  1255                          } else {
  1256                              lda #0
  1257                              sta (string_array),y ; default is empty string (0 in pos 1)
  1258                          	tya
  1259                          }
  1260  1d63 8d341e                 sta .read_text_column
  1261                              ; turn on blinking cursor
  1262  1d66 20d538                 jsr turn_on_cursor
  1263                          .readkey
  1264  1d69 20b338                 jsr get_cursor ; x=row, y=column
  1265  1d6c 8e321e                 stx .read_text_cursor
  1266  1d6f 8c331e                 sty .read_text_cursor + 1
  1267  1d72 20f41c                 jsr read_char
  1268  1d75 c900                   cmp #0
  1269  1d77 d02c                   bne +
  1270                              ; timer routine returned false
  1271                              ; did the routine draw something on the screen?
  1272  1d79 20b338                 jsr get_cursor ; x=row, y=column
  1273  1d7c cc331e                 cpy .read_text_cursor + 1
  1274  1d7f f0e8                   beq .readkey
  1275                              ; text changed, redraw input line
  1276  1d81 20db38             	jsr turn_off_cursor
  1277  1d84 203e37                 jsr clear_num_rows
  1278                          !ifdef Z5PLUS {
  1279                          	; lda #$0d ; Enter
  1280                          	; jsr s_printchar
  1281                          	; lda #$3e ; ">"
  1282                          	; jsr s_printchar
  1283  1d87 a001                   ldy #1
  1284  1d89 b143                   lda (string_array),y
  1285  1d8b aa                     tax
  1286  1d8c e000               .p0 cpx #0
  1287  1d8e f00f                   beq .p1
  1288  1d90 c8                     iny
  1289  1d91 b143                   lda (string_array),y
  1290  1d93 200727             	jsr translate_zscii_to_petscii
  1291                          !ifdef DEBUG {
  1292                          	bcc .could_convert
  1293                          	cmp #0
  1294                          	beq .done_printing_this_char
  1295                          	jsr print_bad_zscii_code
  1296                          	jmp .done_printing_this_char
  1297                          .could_convert
  1298                          } else {
  1299  1d96 b003               	bcs .done_printing_this_char
  1300                          }
  1301  1d98 20e823             	jsr s_printchar
  1302                          !ifndef ACORN {
  1303                          !ifdef USE_BLINKING_CURSOR {
  1304                          	jsr reset_cursor_blink
  1305                          }
  1306                          }
  1307                          .done_printing_this_char
  1308  1d9b ca                     dex
  1309  1d9c 4c8c1d                 jmp .p0
  1310                          .p1   
  1311                          } else {
  1312                              ldy #1
  1313                          .p0 lda (string_array),y ; default is empty string (0 in pos 1)
  1314                              beq .p1
  1315                          	jsr translate_zscii_to_petscii
  1316                          !ifdef DEBUG {
  1317                          	bcc .could_convert
  1318                          	cmp #0
  1319                          	beq .done_printing_this_char
  1320                          	jsr print_bad_zscii_code
  1321                          	jmp .done_printing_this_char
  1322                          .could_convert
  1323                          } else {
  1324                          	bcs .done_printing_this_char
  1325                          }
  1326                          	jsr s_printchar
  1327                          !ifndef ACORN {
  1328                          !ifdef USE_BLINKING_CURSOR {
  1329                          	jsr reset_cursor_blink
  1330                          }
  1331                          }
  1332                          .done_printing_this_char
  1333                              iny
  1334                              jmp .p0
  1335                          .p1
  1336                          }
  1337  1d9f 20d538                 jsr turn_on_cursor
  1338  1da2 4c691d                 jmp .readkey
  1339  1da5 c901               +   cmp #1
  1340  1da7 d009                   bne +
  1341                              ; timer routine returned true
  1342                              ; clear input and return 
  1343  1da9 a001                   ldy #1
  1344  1dab a900                   lda #0
  1345  1dad 9143                   sta (string_array),y
  1346  1daf 4c221e                 jmp .read_text_done ; a should hold 0 to return 0 here
  1347                              ; check terminating characters
  1348  1db2 a000               +   ldy #0
  1349  1db4 d90419             -   cmp terminating_characters,y
  1350  1db7 f069                   beq .read_text_done
  1351  1db9 c8                     iny
  1352  1dba cc0319                 cpy num_terminating_characters
  1353  1dbd d0f5                   bne -
  1354  1dbf c908               +   cmp #8 ; SF: ZSCII delete
  1355  1dc1 d01b                   bne +
  1356                              ; allow delete if anything in the buffer
  1357  1dc3 ac341e                 ldy .read_text_column
  1358  1dc6 c002                   cpy #2
  1359  1dc8 909f                   bcc .readkey
  1360  1dca ce341e             	dec .read_text_column
  1361                          !ifndef ACORN {
  1362                          	jsr turn_off_cursor
  1363                          }
  1364  1dcd a575               	lda .petscii_char_read
  1365  1dcf 20e823                 jsr s_printchar ; print the delete char
  1366                          !ifndef ACORN {
  1367                          !ifdef USE_BLINKING_CURSOR {
  1368                              jsr reset_cursor_blink
  1369                          }
  1370                          	jsr turn_on_cursor
  1371                          }
  1372                          !ifdef Z5PLUS {
  1373  1dd2 a001                   ldy #1
  1374  1dd4 b143                   lda (string_array),y ; number of characters in the array
  1375  1dd6 38                 	sec
  1376  1dd7 e901               	sbc #1
  1377  1dd9 9143               	sta (string_array),y
  1378                          }
  1379  1ddb 4c691d                 jmp .readkey ; don't store in the array
  1380                          +   ; disallow cursor keys etc
  1381                              ; SF: Note that this is part of read_text, used only by z_ins_read, and
  1382                              ; therefore we are reading a line of text here. The following code will
  1383                              ; filter out superficially interesting things like Escape and function keys,
  1384                              ; but as we're just reading a line of text that's probably OK. This is
  1385                              ; upstream code anyway and we're in the ZSCII world here, so this is
  1386                              ; presumably well tested. (ozmoo doesn't appear to support custom
  1387                              ; terminating characters in Z5, so some of the more exotic possibilities are
  1388                              ; probably not relevant in practice.) Although I doubt there's the memory to
  1389                              ; do it properly, this would probably also mean we could implement history
  1390                              ; recall/editing using the cursor keys here without preventing the
  1391                              ; possibility of a game using the cursor keys for its own purposes, as the
  1392                              ; game would probably read them using z_ins_read_char. SFTODO: UPDATE THIS COMMENT
  1393  1dde c920                   cmp #32
  1394  1de0 b003                   bcs ++
  1395  1de2 4c691d             	jmp .readkey
  1396  1de5 c980               ++	cmp #128
  1397  1de7 900e                   bcc .char_is_ok
  1398  1de9 c99b               	cmp #155
  1399  1deb 1003               	bpl +
  1400  1ded 4c691d             	jmp .readkey
  1401  1df0 c9fc               +	cmp #252
  1402  1df2 9003               	bcc .char_is_ok
  1403  1df4 4c691d             	jmp .readkey
  1404                          	
  1405                              ; print the allowed char and store in the array
  1406                          .char_is_ok
  1407  1df7 ae341e                 ldx .read_text_column ; compare with size of keybuffer
  1408  1dfa ec351e             	cpx .read_text_char_limit
  1409  1dfd 9003                   bcc +
  1410  1dff 4c691d             	jmp .readkey
  1411                          +	; keybuffer < maxchars
  1412  1e02 48                 	pha
  1413  1e03 8a                 	txa
  1414                          !ifdef Z5PLUS {
  1415  1e04 a001                   ldy #1
  1416  1e06 9143                   sta (string_array),y ; number of characters in the array
  1417                          }
  1418  1e08 a8                     tay
  1419                          !ifdef Z5PLUS {
  1420  1e09 c8                     iny
  1421                          }
  1422  1e0a a575               	lda .petscii_char_read
  1423  1e0c 20e823                 jsr s_printchar
  1424                          !ifndef ACORN {
  1425                          !ifdef USE_BLINKING_CURSOR {
  1426                              jsr reset_cursor_blink
  1427                          }
  1428                              jsr update_cursor
  1429                          }
  1430  1e0f 68                     pla
  1431                              ; convert to lower case
  1432                              ; SF: We are working with ZSCII here, so this is nothing to do with PETSCII.
  1433                              ; I suspect this is done to comply with 3.7 of the Z-machine specification.
  1434  1e10 c941               	cmp #$41
  1435  1e12 9006               	bcc .dont_invert_case
  1436  1e14 c95b               	cmp #$5b
  1437  1e16 b002               	bcs .dont_invert_case
  1438  1e18 0920               	ora #$20
  1439                          
  1440                          .dont_invert_case
  1441  1e1a 9143                   sta (string_array),y ; store new character in the array
  1442  1e1c ee341e             	inc .read_text_column	
  1443                          !ifndef Z5PLUS {
  1444                              iny
  1445                              lda #0
  1446                              sta (string_array),y ; store 0 after last char
  1447                          }
  1448  1e1f 4c691d                 jmp .readkey
  1449                          .read_text_done
  1450  1e22 48                     pha ; the terminating character, usually newline
  1451                          !ifdef Z5PLUS {
  1452  1e23 8d411e                 sta .read_text_return_value
  1453                          }
  1454                              ; turn off blinking cursor
  1455  1e26 20db38                 jsr turn_off_cursor
  1456                          !ifndef Z5PLUS {
  1457                          	; Store terminating 0, in case characters were deleted at the end.
  1458                              ldy .read_text_column ; compare with size of keybuffer
  1459                          	lda #0
  1460                          	sta (string_array),y
  1461                          }	
  1462  1e29 68                     pla ; the terminating character, usually newline
  1463  1e2a f003                   beq +
  1464  1e2c 20e823                 jsr s_printchar; print terminating char unless 0 (0 indicates timer abort)
  1465                          !ifndef ACORN {
  1466                          !ifdef USE_BLINKING_CURSOR {
  1467                              jsr reset_cursor_blink
  1468                          }
  1469                          }
  1470                          ;	jsr start_buffering
  1471  1e2f 60                 +   rts
  1472                          ; SFTODODATA 7+10
  1473  1e30 0000               .read_parse_buffer !byte 0,0
  1474  1e32 0000               .read_text_cursor !byte 0,0
  1475  1e34 00                 .read_text_column !byte 0
  1476  1e35 00                 .read_text_char_limit !byte 0
  1477  1e36 00                 .read_text_operand_count !byte 0
  1478                          !ifdef Z4PLUS {
  1479  1e37 0000               .read_text_time !byte 0,0 ; update interval in 1/10 seconds
  1480  1e39 000000             .read_text_time_jiffy !byte 0,0,0 ; update interval in jiffys
  1481  1e3c 000000             .read_text_jiffy !byte 0,0,0  ; current time
  1482  1e3f 0000               .read_text_routine !byte 0,0 ; called with .read_text_time intervals
  1483                          }
  1484                          !ifdef Z5PLUS {
  1485  1e41 00                 .read_text_return_value !byte 0 ; return value
  1486                          }
  1487                          !ifndef ACORN {
  1488                          !ifdef USE_BLINKING_CURSOR {
  1489                          .cursor_jiffy !byte 0,0,0  ; next cursor update time
  1490                          .cursor_time_jiffy !byte 0,0,0 ; time between cursor updates
  1491                          }
  1492                          }
  1493                          
  1494                          ; SFTODO +make_acorn_screen_hole
  1495                          tokenise_text
  1496                              ; divide read_line input into words and look up them in the dictionary
  1497                              ; input: string_array should be pointing to the text array
  1498                              ; (this will be okay if called immediately after read_text)
  1499                              ; a/x should be the address of the parse array
  1500                              ; input: - string_array
  1501                              ;        - x,a: address of parse_array
  1502                              ;        - y: flag (1 = don't add unknown words to parse_array)
  1503                              ; output: parse_array
  1504                              ; side effects:
  1505                              ; used registers: a,x,y
  1506  1e42 8ce21e                 sty .ignore_unknown_words
  1507  1e45 8641                   stx parse_array
  1508  1e47 18                     clc
  1509  1e48 694e                   adc #>story_start
  1510  1e4a 8542                   sta parse_array + 1
  1511  1e4c a902                   lda #2
  1512  1e4e 8dde1e                 sta .wordoffset ; where to store the next word in parse_array
  1513  1e51 a000                   ldy #0
  1514  1e53 8cdd1e                 sty .numwords ; no words found yet
  1515  1e56 b141                   lda (parse_array),y 
  1516  1e58 8ddc1e                 sta .maxwords
  1517                          !ifdef Z5PLUS {
  1518  1e5b c8                     iny
  1519  1e5c b143                   lda (string_array),y ; number of chars in text string
  1520  1e5e aa                     tax
  1521  1e5f e8                     inx
  1522  1e60 8edf1e                 stx .textend
  1523  1e63 c8                     iny ; sets y to 2 = start position in text
  1524                          } else {
  1525                          -   iny
  1526                              lda (string_array),y
  1527                              bne -
  1528                              dey
  1529                              sty .textend
  1530                              ldy #1 ; start position in text
  1531                          }
  1532                              ; look over text and find each word
  1533                          .find_word_loop
  1534                              ; skip initial space
  1535  1e64 ccdf1e                 cpy .textend
  1536  1e67 f002                   beq +
  1537  1e69 b069                   bcs .parsing_done
  1538  1e6b b143               +	lda (string_array),y
  1539  1e6d c920                   cmp #$20
  1540  1e6f d003                   bne .start_of_word
  1541  1e71 c8                     iny
  1542  1e72 d0f0                   bne .find_word_loop ; Always branch
  1543                          .start_of_word
  1544                              ; start of next word found (y is first character of new word)
  1545  1e74 8ce01e                 sty .wordstart
  1546                          -   ; look for the end of the word
  1547  1e77 b143                   lda (string_array),y
  1548  1e79 c920                   cmp #$20
  1549  1e7b f018                   beq .space_found
  1550                              ; check for terminators
  1551  1e7d aee444             	ldx num_terminators
  1552  1e80 dde444             --  cmp terminators - 1,x
  1553  1e83 f00b                   beq .terminator_found
  1554  1e85 ca                 	dex
  1555  1e86 d0f8                   bne --
  1556                              ; check if end of string
  1557  1e88 ccdf1e                 cpy .textend
  1558  1e8b b009                   bcs .word_found
  1559  1e8d c8                     iny
  1560  1e8e d0e7                   bne - ; Always branch
  1561                          .terminator_found
  1562  1e90 cce01e                 cpy .wordstart
  1563  1e93 f001                   beq .word_found
  1564                          .space_found
  1565  1e95 88                     dey
  1566                          .word_found
  1567                              ; word found. Look it up in the dictionary
  1568  1e96 c8                     iny
  1569  1e97 8ce11e                 sty .wordend ; .wordend is the last character of the word + 1
  1570                              ; update parse_array
  1571  1e9a adde1e                 lda .wordoffset
  1572  1e9d a8                     tay
  1573  1e9e 18                     clc
  1574  1e9f 6904                   adc #4
  1575  1ea1 8dde1e                 sta .wordoffset
  1576  1ea4 206d1b                 jsr find_word_in_dictionary ; will update y
  1577  1ea7 eedd1e                 inc .numwords
  1578  1eaa a576                   lda .is_word_found
  1579  1eac d005                   bne .store_word_in_parse_array
  1580  1eae ade21e                 lda .ignore_unknown_words
  1581  1eb1 d00f                   bne .find_next_word ; word unknown, and we shouldn't store unknown words
  1582                          .store_word_in_parse_array
  1583  1eb3 ade11e                 lda .wordend
  1584  1eb6 38                     sec
  1585  1eb7 ede01e                 sbc .wordstart
  1586  1eba 9141                   sta (parse_array),y ; length
  1587  1ebc c8                     iny
  1588  1ebd ade01e                 lda .wordstart
  1589  1ec0 9141                   sta (parse_array),y ; start index
  1590                              ; find the next word
  1591                          .find_next_word
  1592  1ec2 a001                   ldy #1
  1593  1ec4 addd1e                 lda .numwords
  1594  1ec7 9141                   sta (parse_array),y ; num of words
  1595                          
  1596  1ec9 ace11e                 ldy .wordend
  1597  1ecc addd1e                 lda .numwords
  1598  1ecf cddc1e                 cmp .maxwords
  1599  1ed2 d090                   bne  .find_word_loop
  1600                          .parsing_done
  1601  1ed4 addd1e                  lda .numwords
  1602  1ed7 a001                    ldy #1
  1603  1ed9 9141                    sta (parse_array),y
  1604  1edb 60                     rts
  1605                              ;SFTODODATA 7
  1606  1edc 00                 .maxwords   !byte 0 
  1607  1edd 00                 .numwords   !byte 0 
  1608  1ede 00                 .wordoffset !byte 0 
  1609  1edf 00                 .textend    !byte 0 
  1610  1ee0 00                 .wordstart  !byte 0 
  1611  1ee1 00                 .wordend    !byte 0 
  1612  1ee2 00                 .ignore_unknown_words !byte 0 
  1613                          
  1614                          get_next_zchar
  1615                              ; returns the next zchar in a
  1616                              ; side effects: z_address
  1617                              ; used registers: a,x,y
  1618  1ee3 a635                   ldx zchar_triplet_cnt
  1619  1ee5 e002                   cpx #2
  1620  1ee7 d02c                   bne .just_read
  1621                              ; extract 3 zchars (5 bits each)
  1622                              ; stop bit remains in packed_text + 1
  1623  1ee9 20b244                 jsr read_next_byte
  1624  1eec 8536                   sta packed_text
  1625  1eee 20b244                 jsr read_next_byte
  1626  1ef1 8537                   sta packed_text + 1
  1627  1ef3 291f                   and #$1f
  1628  1ef5 855d                   sta zchars
  1629  1ef7 a536               	lda packed_text
  1630  1ef9 4a                 	lsr
  1631  1efa 6637               	ror packed_text + 1
  1632  1efc 4a                 	lsr
  1633  1efd 6637               	ror packed_text + 1
  1634  1eff 291f               	and #$1f
  1635  1f01 855f               	sta zchars + 2
  1636  1f03 a537               	lda packed_text + 1
  1637  1f05 4a                 	lsr
  1638  1f06 4a                 	lsr
  1639  1f07 4a                 	lsr
  1640  1f08 855e               	sta zchars + 1	
  1641  1f0a a200               	ldx #0
  1642  1f0c 2436               	bit packed_text
  1643  1f0e 1001               	bpl +
  1644  1f10 e8                 	inx
  1645  1f11 8637               +	stx packed_text + 1	
  1646  1f13 a635               	ldx zchar_triplet_cnt
  1647                          .just_read
  1648  1f15 b55d               	lda zchars,x
  1649  1f17 ca                     dex
  1650  1f18 1002                   bpl +
  1651                          
  1652                          init_get_zchar
  1653                          	; Setup for reading zchars from packed string
  1654                          	; side effects: -
  1655                          	; used registers: x
  1656  1f1a a202               	ldx #2
  1657  1f1c 8635               +	stx zchar_triplet_cnt
  1658  1f1e 60                 	rts
  1659                          	
  1660                          	
  1661                          ; .zchar_triplet_cnt !byte 0
  1662                          
  1663                          was_last_zchar
  1664                              ; only call after a get_next_zchar
  1665                              ; returns a=0 if current zchar is the last zchar, else > 0
  1666  1f1f a535                   lda zchar_triplet_cnt ; 0 - 2
  1667  1f21 c902                   cmp #2
  1668  1f23 d004                   bne +
  1669  1f25 a537                   lda packed_text + 1
  1670  1f27 4901                   eor #1
  1671  1f29 60                 +   rts
  1672                          
  1673                          get_abbreviation_offset
  1674                              ; abbreviation is 32(abbreviation_command-1)+a
  1675  1f2a 8d3b1f                 sta .current_zchar
  1676  1f2d 88                     dey
  1677  1f2e 98                     tya
  1678  1f2f 0a                     asl
  1679  1f30 0a                     asl
  1680  1f31 0a                     asl
  1681  1f32 0a                     asl
  1682  1f33 0a                     asl
  1683  1f34 18                     clc
  1684  1f35 6d3b1f                 adc .current_zchar
  1685  1f38 0a                     asl ; byte -> word 
  1686  1f39 a8                     tay
  1687  1f3a 60                     rts
  1688                              ;SFTODODATA 1
  1689  1f3b 00                 .current_zchar !byte 0
  1690                          
  1691                          print_addr
  1692                              ; print zchar-encoded text
  1693                              ; input: (z_address set with set_z_addr or set_z_paddr)
  1694                              ; output: 
  1695                              ; side effects: z_address
  1696                              ; used registers: a,x,y
  1697  1f3c a900                   lda #0
  1698  1f3e 8538                   sta alphabet_offset
  1699  1f40 853a                   sta escape_char_counter
  1700  1f42 8540                   sta abbreviation_command
  1701  1f44 201a1f                 jsr init_get_zchar
  1702                          .print_chars_loop
  1703  1f47 20e31e                 jsr get_next_zchar
  1704  1f4a a440                   ldy abbreviation_command
  1705  1f4c f066                   beq .l0
  1706                              ; handle abbreviation
  1707  1f4e 202a1f                 jsr get_abbreviation_offset
  1708                              ; need to store state before calling print_addr recursively
  1709  1f51 8a                     txa
  1710  1f52 48                     pha
  1711  1f53 a545                   lda z_address
  1712  1f55 48                     pha
  1713  1f56 a546                   lda z_address + 1
  1714  1f58 48                     pha
  1715  1f59 a547                   lda z_address + 2
  1716  1f5b 48                     pha
  1717  1f5c a55d                   lda zchars
  1718  1f5e 48                     pha
  1719  1f5f a55e                   lda zchars + 1
  1720  1f61 48                     pha
  1721  1f62 a55f                   lda zchars + 2
  1722  1f64 48                     pha
  1723  1f65 a536                   lda packed_text
  1724  1f67 48                     pha
  1725  1f68 a537                   lda packed_text + 1
  1726  1f6a 48                     pha
  1727  1f6b a535                   lda zchar_triplet_cnt
  1728  1f6d 48                     pha
  1729  1f6e ad184e                 lda story_start + header_abbreviations ; high byte
  1730  1f71 ae194e                 ldx story_start + header_abbreviations + 1 ; low byte
  1731  1f74 206f44                 jsr set_z_address
  1732  1f77 98                     tya
  1733  1f78 209444                 jsr skip_bytes_z_address
  1734  1f7b 20b244                 jsr read_next_byte ; 0
  1735  1f7e 48                     pha
  1736  1f7f 20b244                 jsr read_next_byte ; 33
  1737  1f82 aa                     tax
  1738  1f83 68                     pla
  1739  1f84 206f44                 jsr set_z_address
  1740                              ; abbreviation index is word, *2 for bytes
  1741  1f87 0647                   asl z_address + 2
  1742  1f89 2646                   rol z_address + 1 
  1743  1f8b 2645                   rol z_address 
  1744                              ; print the abbreviation
  1745  1f8d 203c1f                 jsr print_addr
  1746                              ; restore state
  1747  1f90 68                     pla 
  1748  1f91 8535                   sta zchar_triplet_cnt
  1749  1f93 68                     pla
  1750  1f94 8537                   sta packed_text + 1
  1751  1f96 68                     pla
  1752  1f97 8536                   sta packed_text
  1753  1f99 68                     pla
  1754  1f9a 855f                   sta zchars + 2
  1755  1f9c 68                     pla
  1756  1f9d 855e                   sta zchars + 1
  1757  1f9f 68                     pla
  1758  1fa0 855d                   sta zchars
  1759  1fa2 68                     pla
  1760  1fa3 8547                   sta z_address + 2
  1761  1fa5 68                     pla
  1762  1fa6 8546                   sta z_address + 1
  1763  1fa8 68                     pla
  1764  1fa9 8545                   sta z_address
  1765  1fab 68                     pla
  1766  1fac aa                     tax
  1767  1fad a900                   lda #0
  1768  1faf 8538                   sta alphabet_offset
  1769  1fb1 4c1f20                 jmp .next_zchar
  1770  1fb4 a43a               .l0 ldy escape_char_counter
  1771  1fb6 f01a                   beq .l0a
  1772                              ; handle the two characters that make up an escaped character
  1773  1fb8 a005                   ldy #5
  1774  1fba 0639               -   asl escape_char
  1775  1fbc 88                     dey
  1776  1fbd d0fb                   bne -
  1777  1fbf 0539                   ora escape_char
  1778  1fc1 8539                   sta escape_char
  1779  1fc3 c63a                   dec escape_char_counter
  1780  1fc5 f003                   beq +
  1781  1fc7 4c1f20                 jmp .next_zchar
  1782  1fca a539               +   lda escape_char
  1783                          ;	jsr translate_zscii_to_petscii
  1784  1fcc 201d26                 jsr streams_print_output
  1785  1fcf 4c1f20                 jmp .next_zchar
  1786                          .l0a 
  1787                          	; If alphabet A2, special treatment for code 6 and 7!
  1788  1fd2 a438                   ldy alphabet_offset
  1789  1fd4 c034                   cpy #52
  1790  1fd6 d018                   bne .not_A2
  1791                          ; newline?
  1792  1fd8 c907               	cmp #7
  1793  1fda d004               	bne .l0b
  1794  1fdc a90d               	lda #13
  1795  1fde d038               	bne .print_normal_char ; Always jump
  1796                          .l0b 
  1797                          	; Direct jump for all normal chars in A2
  1798  1fe0 b033               	bcs .l6
  1799                          	; escape char?
  1800  1fe2 c906                   cmp #6
  1801  1fe4 d00e                   bne .l1
  1802  1fe6 a902                   lda #2
  1803  1fe8 853a                   sta escape_char_counter
  1804  1fea a900                   lda #0
  1805  1fec 8539                   sta escape_char
  1806  1fee f02d               	beq .sta_offset
  1807                          .not_A2
  1808  1ff0 c906               	cmp #6
  1809  1ff2 b021               	bcs .l6
  1810                          .l1 ; Space?
  1811  1ff4 c900               	cmp #0
  1812  1ff6 d004                   bne .l2
  1813                              ; space
  1814  1ff8 a920                   lda #$20
  1815  1ffa d01c               	bne .print_normal_char ; Always jump
  1816  1ffc c904               .l2 cmp #4
  1817  1ffe 9010               	bcc .abbreviation
  1818  2000 d007                   bne .l3
  1819                              ; change to A1
  1820  2002 a91a                   lda #26
  1821  2004 8538                   sta alphabet_offset
  1822  2006 4c1f20                 jmp .next_zchar
  1823                          .l3 ; This can only be #5: Change to A2
  1824                          	; cmp #5
  1825                              ; bne .l6
  1826                              ; change to A2
  1827  2009 a934                   lda #52
  1828  200b 8538                   sta alphabet_offset
  1829  200d 4c1f20                 jmp .next_zchar
  1830                          .l5 ; abbreviation command?
  1831                          .abbreviation
  1832                              ; cmp #4
  1833                              ; bcs .l6
  1834  2010 8540                   sta abbreviation_command ; 1, 2 or 3
  1835  2012 4c1f20                 jmp .next_zchar
  1836                          .l6 ; normal char
  1837  2015 20b11a                 jsr convert_zchar_to_char
  1838                          .print_normal_char
  1839  2018 201d26                 jsr streams_print_output
  1840                              ; change back to A0
  1841  201b a900                   lda #0
  1842                          .sta_offset
  1843  201d 8538                   sta alphabet_offset
  1844                          .next_zchar
  1845  201f 201f1f                 jsr was_last_zchar
  1846  2022 f003                   beq +
  1847  2024 4c471f                 jmp .print_chars_loop
  1848  2027 60                 +   rts
  1849                          
  1850                          ; .escape_char !byte 0
  1851                          ; .escape_char_counter !byte 0
  1852                          ; .abbreviation_command !byte 0
  1853                          
  1854                          ; .zchars !byte 0,0,0
  1855                          ; .packedtext !byte 0,0
  1856                          ; .alphabet_offset !byte 0
  1857                          default_alphabet ; 26 * 3
  1858  2028 6162636465666768...    !raw "abcdefghijklmnopqrstuvwxyz"
  1859  2042 4142434445464748...    !raw "ABCDEFGHIJKLMNOPQRSTUVWXYZ"
  1860  205c 200d303132333435...    !raw 32,13,"0123456789.,!?_#'",34,47,92,"-:()"
  1861                          	
  1862                          !ifdef ACORN_OSRDCH {
  1863                              ; BeebEm (4.15, at least) pokes code into memory at $100 to implement paste
  1864                              ; via OSRDCH, so we need to relocate these buffers to avoid problems.
  1865                          print_buffer
  1866                              !fill 81
  1867                          print_buffer2
  1868                              !fill 81
  1869                          }

; ******** Source: ozmoo.asm
   215                          

; ******** Source: acorn.asm
     1                          ; Acorn-specific code factored out into its own file for readability.
     2                          
     3                          ; Note that the code macros defined in here have the suffix "_inline" if control
     4                          ; flows straight through them or "_subroutine" if they end by executing rts (or
     5                          ; equivalent).
     6                          
     7                          ; A note on Acorn memory models - this affects code in many places, but I have
     8                          ; to write this somewhere.
     9                          ;
    10                          ; The second processor build (ifndef ACORN_SWR) has a simple flat memory model
    11                          ; with user RAM from $0400-$f7ff inclusive. It's rather like the C64 but without
    12                          ; even the complication of paging the kernal ROM in and out, so it doesn't need
    13                          ; the cache which the C64 code uses when ALLMEM is defined. SFTODO: SAY SOMETHING ABOUT ACORN_TURBO_SUPPORTED
    14                          ;
    15                          ; The sideways RAM build (ifdef ACORN_SWR) is a bit more involved. The hardware
    16                          ; situation here is that we have main RAM (not paged) from $0000-$7fff
    17                          ; inclusive, with user RAM starting at OSHWM/PAGE, which varies between machines
    18                          ; but will typically be in the range $e00-$1f00. Some builds hard-code a certain
    19                          ; address, others use acorn-relocate.asm to accommodate this variation. We also
    20                          ; have up to 16 different 16K banks of "sideways" RAM paged in at $8000-$bfff
    21                          ; inclusive. (The BBC series and Electron have different ways to control paging;
    22                          ; see the acorn_page_in_bank_* macros.) The OS is not paged and lives
    23                          ; permanently at $c000-$ffff inclusive. The loader will have located any
    24                          ; available sideways RAM banks, verified there's at least one and put the count
    25                          ; and a list of bank numbers at ram_bank_{count,list} for us. SFTODO: MINOR QUIBBLE - LOADER WILL HAVE VERIFIED WE HAVE ENOUGH SWR BANKS, THERE MAY BE NONE IF WE CAN GET BY WITHOUT ANY
    26                          ;
    27                          ; Acorn Ozmoo uses two slightly different sideways RAM models. Both of them
    28                          ; allow static/high memory to be spread over approximately 9 sideways RAM banks
    29                          ; (indexed in 512-byte chunks with indexes from 0-254, with chunk 0 starting
    30                          ; at story_start+nonstored_blocks). The standard Ozmoo mempointer (data) and 
    31                          ; z_pc_mempointer (Z-machine PC) pointers are extended to each have an associated
    32                          ; RAM bank (mempointer_ram_bank and z_pc_mempointer_ram_bank respectively). (If
    33                          ; the relevant byte of Z-machine memory lives in main RAM, the bank number is
    34                          ; irrelevant as main RAM is not affected by paging.)
    35                          ;
    36                          ; The "big dynamic RAM" model (ifndef ACORN_SWR_SMALL_DYNMEM) allows the game's
    37                          ; dynamic memory (which starts in main RAM at story_start, as on any Ozmoo build)
    38                          ; to be larger than main RAM and overflow into the first 16K sideways RAM bank.
    39                          ; The first 16K sideways RAM bank therefore has to be paged in by default, so
    40                          ; that miscellaneous Ozmoo code which might try to access dynamic memory can do
    41                          ; so without any trouble. In this model, accesses to memory via read_next_byte
    42                          ; and read_next_byte_at_z_pc temporarily page in the relevant bank to read the
    43                          ; byte and then page the first 16K sideways RAM bank back in. (As an
    44                          ; optimisation, read_next_byte_at_z_pc_unsafe* and friends are used during
    45                          ; instruction decoding to avoid flipping back and forth excessively while
    46                          ; reading a multi-byte instruction. This is possible because only a very limited
    47                          ; set of cases can cause accesses to dynamic memory during instruction decoding.)
    48                          ;
    49                          ; The "small dynamic RAM" model (ifdef ACORN_SWR_SMALL_DYNMEM) requires the game's
    50                          ; dynamic memory to fit in main RAM. Since dynamic memory can then be accessed
    51                          ; regardless of the currently paged in bank, Ozmoo instead keeps the bank
    52                          ; containing the Z-machine's PC paged in by default, temporarily paging it out
    53                          ; only when reading a data byte.
    54                          ;
    55                          ; On a second processor or BBC series machine with shadow RAM, screen RAM is
    56                          ; separate from user RAM and doesn't get in the way. On a BBC B with no shadow
    57                          ; RAM, we use a trick (see ACORN_NO_SHADOW) to relocate the 1K screen RAM to
    58                          ; $3c00, leave a gap in the Ozmoo binary to accommodate that and we can then
    59                          ; mostly forget about screen RAM. Dynamic memory starts at story_start just
    60                          ; after the Ozmoo stack (as on the C64) and is followed (with suitable paging
    61                          ; for ACORN_SWR) directly by the virtual memory cache.
    62                          ;
    63                          ; On the Electron shadow RAM is rare and we can't use the ACORN_NO_SHADOW trick
    64                          ; to get the screen memory (8K, from $6000-$8000) out of the way. Ozmoo really
    65                          ; wants dynamic memory to be contiguous, and there isn't really enough RAM free
    66                          ; between the Ozmoo stack and the screen memory to run all the games we'd like
    67                          ; to. We therefore compromise by forcing the use of the big dynamic RAM model
    68                          ; and making dynamic RAM start at $8000 instead of following the Ozmoo stack.
    69                          ; This limits us to 16K of dynamic memory, which isn't too bad (and is more than
    70                          ; we'd have free below screen RAM). We use the main RAM between the Ozmoo stack
    71                          ; and the screen RAM as additional virtual memory cache so it isn't wasted. An
    72                          ; Electron is therefore about 7K worse off than a BBC B with the same amount of
    73                          ; sideways RAM as a result of its larger screen memory, in addition to not
    74                          ; supporting games needing more than 16K of dynamic memory. The Electron save/
    75                          ; restore code has to be slightly different because the data we need to save/
    76                          ; restore is no longer contiguous in memory.
    77                          
    78                          ; To improve readability of code and avoid double-nesting so we can test for
    79                          ; ACORN_SWR and !ACORN_SWR_SMALL_DYNMEM in a single !ifdef, we define
    80                          ; ACORN_SWR_BIG_DYNMEM internally - the build script should never set this.
    81                          !ifdef ACORN_SWR {
    82                          !ifndef ACORN_SWR_SMALL_DYNMEM {
    83                          ACORN_SWR_BIG_DYNMEM = 1
    84                          } else { ; ACORN_SWR_SMALL_DYNMEM
    85                          !ifdef ACORN_ELECTRON_SWR {
    86                          !error "ACORN_ELECTRON_SWR is not compatible with ACORN_SWR_SMALL_DYNMEM"
    87                          }
    88                          }
    89                          }
    90                          
    91                          !zone {
    92                          
    93                          ;;;;;;;;;;;;;;;;;;;;;;;;;;;;;;;;;;;;;;;;;;;;;;;;;;;;;;;;;;;;;;;;;;;;;;;;;;;;;;;;
    94                          ; Sideways RAM paging
    95                          ;;;;;;;;;;;;;;;;;;;;;;;;;;;;;;;;;;;;;;;;;;;;;;;;;;;;;;;;;;;;;;;;;;;;;;;;;;;;;;;;
    96                          
    97                          !ifdef ACORN_SWR {
    98                          
    99                          ; SF: ENHANCEMENT: It would probably be possible (even easy) to use an AQR
   100                          ; cartridge for all sideways RAM on a Master or Electron; it has its own special
   101                          ; paging register though, so we'd need a separate build to support it, and auto-
   102                          ; detecting it in a way that doesn't interfere with the user's other use of it
   103                          ; may be tricky. There's also some sort of unlock stuff to contend with, I think.
   104                          
   105                          ; These macros must leave the selected bank number in A or Y as appropriate.
   106                          
   107                          !ifndef ACORN_ELECTRON_SWR {
   108                          
   109                          !macro acorn_page_in_bank_using_a .operand {
   110                              lda .operand
   111                              sta romsel_copy
   112                              sta bbc_romsel
   113                          }
   114                          
   115                          !macro acorn_page_in_bank_using_a_comma_x .operand {
   116                              lda .operand,x
   117                              sta romsel_copy
   118                              sta bbc_romsel
   119                          }
   120                          
   121                          !macro acorn_page_in_bank_using_a_comma_y .operand {
   122                              lda .operand,y
   123                              sta romsel_copy
   124                              sta bbc_romsel
   125                          }
   126                          
   127                          !macro acorn_page_in_bank_using_y .operand {
   128                              ldy .operand
   129                              sty romsel_copy
   130                              sty bbc_romsel
   131                          }
   132                          } else { ; ACORN_ELECTRON_SWR
   133                          
   134                          !macro acorn_page_in_bank_using_a .operand {
   135                              lda #12
   136                              sta romsel_copy
   137                              sta electron_romsel
   138                              lda .operand
   139                              sta romsel_copy
   140                              sta electron_romsel
   141                          }
   142                          
   143                          !macro acorn_page_in_bank_using_a_comma_x .operand {
   144                              lda #12
   145                              sta romsel_copy
   146                              sta electron_romsel
   147                              lda .operand,x
   148                              sta romsel_copy
   149                              sta electron_romsel
   150                          }
   151                          
   152                          !macro acorn_page_in_bank_using_a_comma_y .operand {
   153                              lda #12
   154                              sta romsel_copy
   155                              sta electron_romsel
   156                              lda .operand,y
   157                              sta romsel_copy
   158                              sta electron_romsel
   159                          }
   160                          
   161                          !macro acorn_page_in_bank_using_y .operand {
   162                              ldy #12
   163                              sty romsel_copy
   164                              sty electron_romsel
   165                              ldy .operand
   166                              sty romsel_copy
   167                              sty electron_romsel
   168                          }
   169                          }
   170                          }
   171                          
   172                          ;;;;;;;;;;;;;;;;;;;;;;;;;;;;;;;;;;;;;;;;;;;;;;;;;;;;;;;;;;;;;;;;;;;;;;;;;;;;;;;;
   173                          ; Initialization and finalization
   174                          ;;;;;;;;;;;;;;;;;;;;;;;;;;;;;;;;;;;;;;;;;;;;;;;;;;;;;;;;;;;;;;;;;;;;;;;;;;;;;;;;
   175                          
   176                          ; Initialization code which may be placed after the end of the Z-machine stack;
   177                          ; this means it will be overwritten as soon as anything is loaded at
   178                          ; story_start.
   179                          !macro acorn_init_code_overlapping_game_data {
   180                          ; Initialization performed very early during startup.
   181                          deletable_init_start
   182                              ldx #1
   183                              jsr do_osbyte_rw_escape_key
   184                          
   185                          !ifdef ACORN_NO_SHADOW {
   186                              +set_up_mode_7_3c00_inline
   187                          }
   188                          
   189                              jsr screenkernal_init
   190                          
   191                              ; Now screenkernal_init has been executed, it's safe to call s_printchar, so
   192                              ; install our own error handler which will use s_printchar by default. No
   193                              ; error should be able to occur before this point. If an error occurs during
   194                              ; a restart, which will re-run the executable, there's not much we can do
   195                              ; but it's probably OK because the load will just replace the code with an
   196                              ; identical copy.
   197                              lda #<error_handler
   198                              sta brkv
   199                              lda #>error_handler
   200                              sta brkv + 1
   201                          
   202                          !ifdef ACORN_CURSOR_PASS_THROUGH {
   203                              ldx #1
   204                              jsr do_osbyte_set_cursor_editing
   205                          }
   206                          
   207                          !ifdef ACORN_FUNCTION_KEY_PASS_THROUGH {
   208                              ; We're going to generate ZSCII codes for the unshifted function keys. We
   209                              ; choose a base of 133 (=ZSCII f1) for f0 because if we set a base of 132 so
   210                              ; Acorn f1=ZSCII f1, Acorn f0 would act like cursor right. If we want Acorn
   211                              ; f1=ZSCII f1 we'll fix that up in the translation table. SFTODO: I HAVEN'T ADDED THIS OPTION TO THE TRANSLATION TABLE YET
   212                              lda #osbyte_rw_function_key_status
   213                              ldx #133
   214                              jsr do_osbyte_y_0
   215                          
   216                              ; In order to allow the use of *KEY expansions, we'll make the shifted
   217                              ; function keys generate those.
   218                              lda #osbyte_rw_shift_function_key_status
   219                              ldx #1 ; expand as normal soft key
   220                              jsr do_osbyte_y_0
   221                          }
   222                          
   223                              ; Patch re_enter_language to enter the current language; reading it here
   224                              ; saves a few bytes of non-deletable code.
   225                              lda #osbyte_read_language
   226                              ldx #0
   227                              ldy #$ff
   228                              jsr osbyte
   229                              stx re_enter_language_ldx_imm + 1
   230                          
   231                          !ifndef ACORN_SWR {
   232                              ; On a second processor, a soft break will transfer control back to our
   233                              ; execution address. We will have thrown away our initialization code by
   234                              ; that point and can't restart properly. In order to avoid random behaviour
   235                              ; and probably a crash, we patch the jmp at the start of the executable to
   236                              ; transfer control to re_enter_language. This means that although the
   237                              ; language name gets printed twice, a soft break otherwise gives a clean
   238                              ; result similar to that on a non-second processor. This code is harmless
   239                              ; if we're not running on a second processor, but it's not necessary either.
   240                              lda #<re_enter_language
   241                              sta initial_jmp + 1
   242                              lda #>re_enter_language
   243                              sta initial_jmp + 2
   244                          }
   245                          
   246                          !ifdef ACORN_TURBO_SUPPORTED {
   247                              ; This executable doesn't have a ROM header indicating we want the turbo
   248                              ; mode enabled, so it will have been disabled when were were executed. Turn
   249                              ; it back on if we do want it.
   250                              bit is_turbo
   251                              bpl .dont_enable_turbo
   252                              lda #$80
   253                              sta turbo_control
   254                          .dont_enable_turbo
   255                          }
   256                          
   257                              +init_readtime_inline
   258                              jmp init_cursor_control
   259                          
   260                          ; SFTODO: Don't forget more code can go here if it can be executed before we
   261                          ; start to put data at story_start.
   262                          } ; End of acorn_init_code_overlapping_game_data_inline
   263                          
   264                          ; Initialization subroutines which will be placed inside the Z-machine stack.
   265                          !macro acorn_init_code_in_stack {
   266                          screenkernal_init
   267                              +screenkernal_init_inline
   268                              rts
   269                          }
   270                          
   271                          ; Initialization performed shortly after startup, just after
   272                          ; acorn_deletable_init_start. (The distinction is not that important on Acorn
   273                          ; as the Ozmoo executable itself doesn't generate a splash screen.)
   274                          !macro acorn_deletable_init_inline {
   275                          !ifdef TRACE_FLOPPY {
   276                              ; Call streams_init so the tracing is able to show the readblocks calls
   277                              ; performed here.
   278                          	jsr streams_init
   279                          }
   280                          
   281                          .dir_ptr = zp_temp ; 2 bytes
   282                          .game_blocks = zp_temp + 2 ; 2 bytes
   283                          ; We can't always use story_start to store the catalogue sectors because on an
   284                          ; ACORN_ELECTRON_SWR build that's in sideways RAM, and we can't always use
   285                          ; scratch_double_page because second processor builds don't have it.
   286                          !ifdef scratch_double_page {
   287                          .catalogue = scratch_double_page
   288                          } else {
   289                          .catalogue = story_start
   290                          }
   291                          !ifndef ACORN_ADFS {
   292                              ; Examine the disc catalogue and determine the first sector occupied by the
   293                              ; DATA file containing the game.
   294                              ; Because this is initialisation code, we know the following variables are
   295                              ; already set to predictable values. This optimisation was useful at one
   296                              ; point but it's not really important right now; it isn't too confusing so
   297                              ; let's keep it anyway now it's been tested.
   298                          !if 0 {
   299                              lda #2
   300                              sta readblocks_numblocks
   301                              lda #0
   302                              sta readblocks_currentblock
   303                              sta readblocks_currentblock + 1
   304                              sta readblocks_mempos ; .catalogue is page-aligned
   305                          !ifdef ACORN_TURBO_SUPPORTED {
   306                              ; In reality this is redundant but let's play it safe.
   307                              sta readblocks_mempos + 2
   308                          }
   309                          }
   310                              lda #>.catalogue
   311                              sta .dir_ptr + 1
   312                              sta readblocks_mempos + 1
   313                              lda #0
   314                              sta readblocks_base
   315                          !ifndef ACORN_DSD {
   316                              sta readblocks_base + 1
   317                          }
   318                              ; Note that because we're reading the first few sectors, this works
   319                              ; correctly whether this is an ACORN_DSD build or not.
   320                              jsr readblocks
   321                              lda #8
   322                              sta .dir_ptr
   323                          .find_file_loop
   324                              ldy #0
   325                              ldx #(-8 & $ff)
   326                          .name_compare_loop
   327                              lda (.dir_ptr),y
   328                              ; The directory name will have the top bit set iff the file is locked; we
   329                              ; don't care about that here, so we need to strip it off. It's harmless to
   330                              ; just do this for all characters.
   331                              and #$7f
   332                              cmp .data_filename-(-8 & $ff),x
   333                              bne .file_not_found
   334                              iny
   335                              inx
   336                              beq .file_found
   337                              bne .name_compare_loop
   338                          .data_filename
   339                              !text "DATA   $"
   340                          .file_not_found
   341                              clc
   342                              lda .dir_ptr
   343                              adc #8
   344                              sta .dir_ptr
   345                              bne .find_file_loop
   346                              brk
   347                              !byte 0
   348                              !text "DATA not found"
   349                              !byte 0
   350                          .file_found
   351                              ; We found the file's name using sector 0, we now want to look at the
   352                              ; corresponding part of sector 1. Adjust .dir_ptr for convenience.
   353                              inc .dir_ptr + 1
   354                              ; Determine the start sector of the DATA file and set readblocks_base.
   355                              ldy #6
   356                              lda (.dir_ptr),y
   357                              and #$3
   358                          !ifndef ACORN_DSD {
   359                              sta readblocks_base + 1
   360                              iny
   361                              lda (.dir_ptr),y
   362                              sta readblocks_base
   363                          } else {
   364                              sta dividend + 1
   365                              iny
   366                              lda (.dir_ptr),y
   367                              sta dividend
   368                              lda #0
   369                              sta divisor + 1
   370                              lda #10
   371                              sta divisor
   372                              jsr divide16
   373                              lda division_result
   374                              sta readblocks_base
   375                          }
   376                              ; Determine the length of the DATA file in blocks.
   377                              ldy #6
   378                              lda (.dir_ptr),y
   379                              and #%110000
   380                              lsr
   381                              lsr
   382                              lsr
   383                              lsr
   384                              sta .game_blocks + 1 ; high byte of length in blocks
   385                              dey
   386                              lda (.dir_ptr),y
   387                              sta .game_blocks ; low byte of length in blocks
   388                              dey
   389                              lda (.dir_ptr),y ; low byte of length in bytes
   390                              beq +
   391                              inc .game_blocks
   392                              bne +
   393                              inc .game_blocks + 1
   394                          +
   395                          !ifdef ACORN_DSD {
   396                              ; If this is a double-sided game, there will be *approximately* (definitely
   397                              ; no more, possibly a track's worth of data less) the same amount of data
   398                              ; on the second side. We don't look up :2.$.DATA and determine its length,
   399                              ; we just double .game_blocks. The absolute worst case here is we read a
   400                              ; track's worth of junk which won't be accessed because it's past the end
   401                              ; of the game.
   402                              asl .game_blocks
   403                              rol .game_blocks + 1
   404                          !ifndef VMEM {
   405                              ; If we don't have virtual memory, the logic below to cap .game_blocks at
   406                              ; .ram_blocks won't kick in. Since we don't have virtual memory, we know the
   407                              ; game will fit in RAM - but due to the doubling of .game_blocks we just did,
   408                              ; it might be larger than RAM, causing us to read too much and corrupt
   409                              ; things. TODO: If we simply passed in the game size as a build parameter
   410                              ; this sort of thing would go away.
   411                              lda #0
   412                              sta .game_blocks + 1
   413                              lda #>(flat_ramtop - story_start)
   414                              cmp .game_blocks
   415                              bcs +
   416                              sta .game_blocks
   417                          +
   418                          }
   419                          }
   420                          } else { ; ACORN_ADFS
   421                              lda #<game_data_filename
   422                              sta scratch_page
   423                              lda #>game_data_filename
   424                              sta scratch_page + 1
   425                              lda #osfile_read_catalogue_information
   426                              ldx #<scratch_page
   427                              ldy #>scratch_page
   428                              jsr osfile
   429                              bne +
   430                              ; The wording of this error is technically incorrect - we're trying to read
   431                              ; information about the file, not open it - but I don't think it's a big
   432                              ; deal. It shouldn't be happening at all, of course.
   433                              jmp cant_open_data_error
   434                          +   lda scratch_page + $a
   435                              beq +
   436                              inc scratch_page + $b
   437                              bne +
   438                              inc scratch_page + $c
   439                          +   lda scratch_page + $b
   440                              sta .game_blocks
   441                              lda scratch_page + $c
   442                              sta .game_blocks + 1
   443                          }
   444                          
   445                              ; If .game_blocks is odd, increment it by one so the game data is always
   446                              ; considered to be a multiple of 512 bytes. This avoids having to worry
   447                              ; about some corner cases and doesn't cause any problems; on DFS we're doing
   448                              ; raw sector reads and the extra sector will always exist, on ADFS we may try
   449                              ; to do a 512-byte read when only 256 bytes are available but that's fine.
   450                              lda .game_blocks
   451                              and #1
   452                              beq +
   453                              inc .game_blocks
   454                              bne +
   455                              inc .game_blocks + 1
   456                          +
   457                          
   458                          !ifdef VMEM {
   459                          .ram_blocks = .dir_ptr ; 2 bytes
   460                          
   461                              ; How much RAM do we have available for game data?
   462                              ; We have 64 (2^6) 256-byte blocks per sideways RAM bank, if we have any.
   463                              lda #0
   464                              sta .ram_blocks + 1
   465                          !ifdef ACORN_SWR {
   466                              lda ram_bank_count
   467                              ldx #6
   468                          -   asl
   469                              rol .ram_blocks + 1
   470                              dex
   471                              bne -
   472                          }
   473                              sta .ram_blocks
   474                          
   475                          !ifdef ACORN_TUBE_CACHE {
   476                              ; We have some blocks of cache in the host, which aren't directly accessible
   477                              ; but are almost as good as our own RAM and which will benefit from
   478                              ; preloading if we're on a normal second processor. We count them for now so
   479                              ; we process more of the initial vmap and fix up the inflated value of
   480                              ; vmap_max_entries later.
   481                          .host_cache_size = memory_buffer
   482                              lda screen_mode
   483                              ora #128 ; force shadow mode on
   484                              tax
   485                              lda #osbyte_initialise_cache
   486                              jsr osbyte
   487                              stx .host_cache_size
   488                          !ifdef ACORN_TURBO_SUPPORTED {
   489                              ; A turbo second processor has enough RAM to preload everything in vmap
   490                              ; without touching the host cache. The host cache will still work, but we
   491                              ; don't have anything to preload into it, so having initialised it there's
   492                              ; nothing else to do.
   493                              bit is_turbo
   494                              bmi .host_cache_initialised
   495                          }
   496                              ; X is cache size in 512-byte blocks, but we want to count 256-byte blocks here.
   497                              txa
   498                              asl
   499                              rol .ram_blocks + 1
   500                              sta .ram_blocks
   501                          .host_cache_initialised
   502                          SFTODOLABELX1
   503                          }
   504                          
   505                          !ifdef ACORN_TURBO_SUPPORTED {
   506                              ; On a turbo second processor, we will use all 128K in banks 1 and 2 as
   507                              ; virtual memory cache.
   508                              bit is_turbo
   509                              bpl .dont_count_turbo_ram
   510                              inc .ram_blocks + 1
   511                              inc .ram_blocks + 1
   512                          .dont_count_turbo_ram
   513                          }
   514                          
   515                              ; We also have some blocks between flat_ramtop and story_start.
   516                              ; SF: We're doing a constant subtraction in code here, but a) this is
   517                              ; deletable init code so it doesn't really cost anything b) if we don't,
   518                              ; the relocation code fails because we have a variation which doesn't follow
   519                              ; the simple fixed relationship we expect.
   520                              lda #>flat_ramtop
   521                              sec
   522                              sbc #>story_start
   523                              clc
   524                              adc .ram_blocks
   525                              sta .ram_blocks
   526                              bcc +
   527                              inc .ram_blocks + 1
   528                          +
   529                          
   530                          !ifdef ACORN_ELECTRON_SWR {
   531                              ; We also have some blocks free between extra_vmem_start and the screen RAM.
   532                              lda #osbyte_read_screen_address
   533                              jsr osbyte
   534                              tya
   535                              dey
   536                              sty screen_ram_start_minus_1
   537                              sec
   538                              sbc #>extra_vmem_start
   539                              tax
   540                              clc
   541                              adc .ram_blocks
   542                              sta .ram_blocks
   543                              bcc +
   544                              inc .ram_blocks + 1
   545                          +   txa
   546                              lsr
   547                              sta vmem_blocks_in_main_ram
   548                          } else {
   549                          !ifdef ACORN_SWR {
   550                              ; This value might be changed below.
   551                              lda #0
   552                              sta vmem_blocks_in_main_ram
   553                          }
   554                          }
   555                          
   556                              ; .ram_blocks now contains the number of 256-byte blocks of RAM we have
   557                              ; available, including RAM which will be used for dynamic memory. The build
   558                              ; system and the loader will have worked together to guarantee that:
   559                              ; - .ram_blocks >= ACORN_INITIAL_NONSTORED_BLOCKS + 2*vmem_block_pagecount,
   560                              ;   i.e. that we have enough RAM for the game's dynamic memory and two
   561                              ;   512-byte blocks of virtual memory cache.
   562                              ; - the game always has at least one block of non-dynamic memory.
   563                          
   564                              ; In order to avoid accessing nonexistent game data in an attempt to use all
   565                              ; that RAM, set .ram_blocks = min(.ram_blocks, .game_blocks).
   566                              ldx .game_blocks + 1
   567                              lda .game_blocks
   568                              cpx .ram_blocks + 1
   569                              bne +
   570                              cmp .ram_blocks
   571                          +   bcs +
   572                              stx .ram_blocks + 1
   573                              sta .ram_blocks
   574                          +
   575                          
   576                              ; Set nonstored_blocks to the number of 256-byte blocks of RAM we are going
   577                              ; to treat as dynamic memory. This is normally the game's actual dynamic
   578                              ; memory rounded up to a 512-byte boundary, i.e.
   579                              ; ACORN_INITIAL_NONSTORED_BLOCKS.
   580                              lda #ACORN_INITIAL_NONSTORED_BLOCKS
   581                              sta nonstored_blocks
   582                          !ifdef VMEM {
   583                          !ifndef ACORN_NO_DYNMEM_ADJUST {
   584                          !ifdef ACORN_TURBO_SUPPORTED {
   585                              ; SFTODO: REVIEW THIS FRESH
   586                              ; On a turbo second processor, we can increase nonstored_blocks to promote
   587                              ; some additional data into dynamic memory and make full use of bank 0. We
   588                              ; don't need to keep any of bank 0 free for virtual memory cache because we
   589                              ; have banks 1 and 2 for that. So we set nonstored_blocks = min(game_blocks
   590                              ; - vmem_block_pagecount, available blocks in bank 0); see below for why we
   591                              ; subtract vmem_block_pagecount. This subtraction can't cause
   592                              ; nonstored_blocks < ACORN_INITIAL_NONSTORED_BLOCKS because the build system
   593                              ; guarantees the game has at least one block of non-dynamic memory. The
   594                              ; subtraction is otherwise harmless; it just means that for small games one
   595                              ; 512-byte block of RAM will have to be accessed via the slower virtual
   596                              ; memory code when it could maybe have been promoted to be dynamic memory.
   597                              ;
   598                              ; This adjustment will make it faster to access the part of the game which
   599                              ; has been promoted into dynamic memory, so we do it even if this is a small
   600                              ; game and we could address enough RAM for the entire game without it.
   601                              bit is_turbo
   602                              bpl .no_turbo_dynmem_adjust
   603                          SFTODOLABEL1
   604                              lda .game_blocks
   605                              sec
   606                              sbc #vmem_block_pagecount
   607                              tax
   608                              lda .game_blocks + 1
   609                              sbc #0
   610                              bne .available_blocks_is_smaller
   611                              cpx #>(flat_ramtop - story_start)
   612                              bcc .game_blocks_is_smaller
   613                          .available_blocks_is_smaller
   614                              ldx #>(flat_ramtop - story_start)
   615                          .game_blocks_is_smaller
   616                              stx nonstored_blocks
   617                          .no_turbo_dynmem_adjust
   618                          }
   619                          !ifdef ACORN_SWR {
   620                              ; It may be useful to increase nonstored_blocks to promote some additional
   621                              ; data into dynamic memory, either for performance or to make use of more
   622                              ; sideways RAM. We must not make it too large for the memory model we're
   623                              ; using. (This optimisation has relatively limited scope in the small model,
   624                              ; but it's trivial to support it anyway. It's just conceivable some games
   625                              ; and/or machines might benefit from --force-big-dynmem to give this
   626                              ; optimisation more headroom, but of course the big model has its own
   627                              ; performance drawbacks so it's probably best not using it unless we're
   628                              ; forced to.)
   629                          .max_dynmem = zp_temp + 4 ; 1 byte
   630                          !ifdef ACORN_SWR_BIG_DYNMEM {
   631                              lda #>swr_ramtop
   632                          } else {
   633                              lda #>flat_ramtop
   634                          }
   635                              sec
   636                              sbc #>story_start
   637                              sta .max_dynmem
   638                          
   639                              ; If .game_blocks == .ram_blocks, we want to set nonstored_blocks as high as
   640                              ; possible; there's no downside as we have enough RAM for the entire game
   641                              ; and this will allow as much of the game as possible to be accessed via the
   642                              ; faster dynamic memory code path. Set nonstored_blocks = min(.game_blocks -
   643                              ; vmem_block_pagecount, .max_dynmem).
   644                              ldy .ram_blocks + 1
   645                              lda .ram_blocks
   646                              cpy .game_blocks + 1
   647                              bne .game_blocks_ne_ram_blocks
   648                              cmp .game_blocks
   649                              bne .game_blocks_ne_ram_blocks
   650                              sec
   651                              sbc #vmem_block_pagecount
   652                              tax
   653                              tya
   654                              sbc #0
   655                              bne .max_dynmem_is_smaller
   656                              cpx .max_dynmem
   657                              bcc .game_blocks_is_smaller
   658                          .max_dynmem_is_smaller
   659                              ldx .max_dynmem
   660                          .game_blocks_is_smaller
   661                              bne .dynmem_adjust_done ; Always branch
   662                          
   663                          .game_blocks_ne_ram_blocks
   664                              ; Note that we can't have .game_blocks < .ram_blocks because we reduced
   665                              ; .ram_blocks to match earlier, so .game_blocks > .ram_blocks. We don't want
   666                              ; to reduce flexibility by locking parts of the game into RAM instead of
   667                              ; allowing the virtual memory system to choose what lives in RAM. It's only
   668                              ; a clear win to increase nonstored_blocks if it brings otherwise unusable
   669                              ; RAM into play. Set nonstored_blocks =
   670                              ; max(min(.ram_blocks - vmap_max_size * vmem_block_pagecount, .max_dynmem),
   671                              ;     ACORN_INITIAL_NONSTORED_BLOCKS)
   672                          .min_lhs_sub = vmap_max_size * vmem_block_pagecount
   673                              sec
   674                              sbc #<.min_lhs_sub
   675                              tax
   676                              tya
   677                              sbc #>.min_lhs_sub
   678                              bmi .use_acorn_initial_nonstored_blocks
   679                              bne .use_min_rhs
   680                              cpx .max_dynmem
   681                              bcc .use_min_lhs
   682                          .use_min_rhs
   683                              ldx .max_dynmem
   684                          .use_min_lhs
   685                              cpx #ACORN_INITIAL_NONSTORED_BLOCKS
   686                              bcs .use_max_lhs
   687                          .use_acorn_initial_nonstored_blocks
   688                              ldx #ACORN_INITIAL_NONSTORED_BLOCKS
   689                          .use_max_lhs
   690                          .dynmem_adjust_done
   691                              stx nonstored_blocks
   692                          }
   693                          }
   694                          
   695                              ; Set .ram_blocks -= nonstored_blocks, i.e. set .ram_blocks to the number of
   696                              ; RAM blocks we have available as virtual memory cache.
   697                              lda .ram_blocks
   698                              sec
   699                              sbc nonstored_blocks
   700                              sta .ram_blocks
   701                              bcs +
   702                              dec .ram_blocks + 1
   703                          +
   704                              ; SFTODO: REVIEW ALL THE FOLLOWING FRESH, ESP "NEW" SWR CASE
   705                              ; It's important .ram_blocks >= vmem_block_pagecount now so that we will set
   706                              ; vmap_max_entries >= 1 below. Conceptually it makes sense for
   707                              ; vmap_max_entries to be 0 but in practice lots of code assumes it isn't.
   708                              ;
   709                              ; The build system and loader work together to guarantee (initial)
   710                              ; .ram_blocks >= ACORN_INITIAL_NONSTORED_BLOCKS + 2 * vmem_block_pagecount.
   711                              ; If nonstored_blocks has not been adjusted, there are two cases:
   712                              ; a) If we didn't set .ram_blocks = .game_blocks above, the build system and
   713                              ;    loader guarantee means we now have .ram_blocks >= 2 *
   714                              ;    vmem_block_pagecount. QED.
   715                              ; b) If we did set .ram_blocks = .game_blocks above, we know that the
   716                              ;    game has at least one block of non-dynamic memory, so before the
   717                              ;    subtraction we had .ram_blocks = .game_blocks >=
   718                              ;    ACORN_INITIAL_NONSTORED_BLOCKS + vmem_block_pagecount. QED.
   719                              ;
   720                              ; On a turbo second processor, we may have adjusted nonstored_blocks. There are
   721                              ; two cases:
   722                              ; a) If we didn't set .ram_blocks = .game_blocks above, as nonstored_blocks
   723                              ;    lives in bank 0 and we also have banks 1 and 2 for virtual memory
   724                              ;    cache, after the subtraction we have .ram_blocks ~= 128K >=
   725                              ;    vmem_block_pagecount. QED.
   726                              ; b) If we did set .ram_blocks = .game_blocks above, combine that with the
   727                              ;    fact the adjustment to nonstored_blocks left nonstored_blocks <=
   728                              ;    .game_blocks - vmem_block_pagecount. QED.
   729                              ;
   730                              ; On a sideways RAM build, we may have adjusted nonstored_blocks. There are
   731                              ; two cases:
   732                              ; a) If we didn't set .ram_blocks = .game_blocks above, we either:
   733                              ;    1) set nonstored_blocks = ACORN_INITIAL_NONSTORED_BLOCKS; see the "not
   734                              ;       been adjusted" case above.
   735                              ;    2) set nonstored_blocks <= .ram_blocks - vmap_max_size *
   736                              ;       vmem_block_pagecount, so after the subtraction we have .ram_blocks
   737                              ;       >= vmap_max_size * vmem_block_pagecount. QED
   738                              ; b) exactly the same as for the turbo second processor
   739                          }
   740                          
   741                          !ifndef ACORN_SWR {
   742                              ; vmap_first_ram_page is set at build time to suit a normal second processor
   743                              ; and it's not used on a turbo second processor, so we don't need any code
   744                              ; to initialise it.
   745                          }
   746                          
   747                              ; Now set vmap_max_entries = min(.ram_blocks / vmem_block_pagecount,
   748                              ; vmap_max_size), i.e. the number of vmap entries we have RAM to support.
   749                              ; (If we're in the ACORN_TUBE_CACHE case on a normal second processor, we
   750                              ; have that much RAM in total but the number of vmap entries we can support
   751                              ; is lower. It's convenient to work with this larger value while we do the
   752                              ; initial load, then vmap_max_entries is fixed up later.)
   753                              ldx #vmap_max_size
   754                              lda .ram_blocks
   755                              lsr .ram_blocks + 1
   756                              bne .cap_at_vmap_max_size
   757                              ror
   758                              cmp #vmap_max_size
   759                              bcs .cap_at_vmap_max_size
   760                              tax
   761                          .cap_at_vmap_max_size
   762                              stx vmap_max_entries
   763                          
   764                              ; SFTODO: Probably not, but can the existence of vmap_sort_entries help simplify the normal tube+cache case?
   765                          vmap_sort_entries = vmem_temp ; 1 byte
   766                          SFTODOLABEL5
   767                          !ifndef ACORN_NO_DYNMEM_ADJUST {
   768                              ; If we've adjusted nonstored_blocks, we may need to sort more than
   769                              ; vmap_max_entries elements of vmap and it's definitely safe to sort all
   770                              ; vmap_max_size entries, because we either have enough RAM for vmap_max_size
   771                              ; blocks of virtual memory cache or we have enough RAM for the entire game.
   772                              lda nonstored_blocks
   773                              cmp #ACORN_INITIAL_NONSTORED_BLOCKS
   774                              beq +
   775                              ldx #vmap_max_size
   776                          +
   777                          }
   778                              stx vmap_sort_entries
   779                          }
   780                          
   781                              ; Load the nonstored blocks, or all the blocks if we're not using virtual
   782                              ; memory. We don't need to worry about reading past the end of the game data
   783                              ; here, because at worst we will read a final 512-byte block when we don't
   784                              ; have a full block and that's fine.
   785                          .blocks_to_read = zp_temp + 4 ; 1 byte
   786                              ; Because this is initialisation code, we know the following variables are
   787                              ; already set to predictable values. This optimisation was useful at one
   788                              ; point but it's not really important right now; it isn't too confusing so
   789                              ; let's keep it anyway now it's been tested.
   790                          !if 0 {
   791                              lda #2
   792                              sta readblocks_numblocks
   793                              lda #0
   794                              sta readblocks_currentblock
   795                              sta readblocks_currentblock + 1
   796                              sta readblocks_mempos ; story_start is page-aligned
   797                          !ifdef ACORN_TURBO_SUPPORTED {
   798                              ; On a turbo second processor readblocks_mempos + 2 is significant and will
   799                              ; vary; it's probably still zero at this point but play it safe. On a normal
   800                              ; second processor readblocks_mempos + 2 will always be 0 so this is
   801                              ; redundant but harmless.
   802                              sta readblocks_mempos + 2
   803                          }
   804                          } else {
   805                              ; If we're on DFS the earlier read of the catalogue will have bumped
   806                              ; readblocks_currentblock and readblocks_mempos, so they have to be set
   807                              ; explicitly.
   808                              lda #0
   809                              sta readblocks_currentblock
   810                          }
   811                              lda #>story_start
   812                              sta readblocks_mempos + 1
   813                          !ifdef VMEM {
   814                              lda nonstored_blocks
   815                          } else {
   816                              lda .game_blocks
   817                          }
   818                              sta .blocks_to_read
   819                          
   820                          !ifdef ACORN_SWR_BIG_DYNMEM {
   821                              ; Page in the first bank as dynamic memory may overflow into it.
   822                              +acorn_page_in_bank_using_a ram_bank_list
   823                          }
   824                          
   825                          .dynmem_load_loop
   826                              jsr readblocks
   827                              lda .blocks_to_read
   828                              sec
   829                              sbc readblocks_numblocks
   830                              sta .blocks_to_read
   831                              bne .dynmem_load_loop
   832                          
   833                          !ifdef ACORN_SWR {
   834                              ; Calculate vmem_blocks_in_main_ram and vmem_blocks_stolen_in_first_bank.
   835                              lda nonstored_blocks
   836                              clc
   837                              adc #>story_start
   838                              ldx #0
   839                              stx vmem_blocks_stolen_in_first_bank
   840                              sec
   841                              sbc #>flat_ramtop
   842                              bcc .some_vmem_in_main_ram
   843                              lsr
   844                              sta vmem_blocks_stolen_in_first_bank
   845                              bpl + ; Always branch
   846                          .some_vmem_in_main_ram
   847                              ; Carry is clear; negate A
   848                              eor #$ff
   849                              adc #1
   850                              lsr
   851                              sta vmem_blocks_in_main_ram
   852                          +
   853                          }
   854                          
   855                          !ifdef VMEM {
   856                          !ifndef PREOPT {
   857                              ; Sort vmap into ascending order, preserving the timestamps but using just the
   858                              ; addresses as keys. This avoids the drive head jumping around during the
   859                              ; initial load. The build system can't do this sort, because we're sorting
   860                              ; the truncated list with just vmap_sort_entries not the full list of
   861                              ; vmap_max_size entries.
   862                              ;
   863                              ; This only happens once and it's not a huge list so while we don't want it
   864                              ; to be really slow, compactness and simplicity of code are also important.
   865                              ; This is an insertion sort, implemented based on the pseudocode from
   866                              ; https://en.m.wikipedia.org/wiki/Insertion_sort, which I've relabelled here
   867                              ; to match the register use in the following code:
   868                              ;
   869                              ;     x = 1
   870                              ;     while x < length(vmap_z)
   871                              ;         temp = vmap_z[x]
   872                              ;         y = x - 1
   873                              ;         while y >= 0 and vmap_z[y] > temp 
   874                              ;             vmap_z[y+1] = vmap_z[y]
   875                              ;             y = y - 1
   876                              ;         end while
   877                              ;         vmap_z[y+1] = temp
   878                              ;         x = x + 1
   879                              ;     end while
   880                              ;
   881                              ; Invariants:
   882                              ;       1 <= x <= length(vmap_z) <= vmap_max_size <= 255
   883                              ;      -1 <= y < x, so -1 <= y <= 254
   884                              ;
   885                              ; This takes about 0.42 seconds to sort 255 shuffled entries at 2MHz; that's
   886                              ; not great but it's not terrible. It takes about 0.1 seconds to sort 122
   887                              ; shuffled entries, which is probably a more typical case. Given a sorted
   888                              ; list - as will happen if the preopt mode has not been used - it takes
   889                              ; about 0.02 seconds to "sort" 255 entries, so there's no significant
   890                              ; performance penalty when this is not doing anything useful.
   891                              ; (We could simply not include this code if we don't have any preopt data,
   892                              ; but it's discardable init code so it's not really harmful and it seems
   893                              ; best for support purposes to keep the code identical whether or not preopt
   894                              ; data is supplied or not.)
   895                              ldx #1
   896                          .outer_loop
   897                              lda vmap_z_l,x
   898                              sta zp_temp
   899                              lda vmap_z_h,x
   900                              sta zp_temp + 1
   901                              and #vmem_highbyte_mask
   902                              sta zp_temp + 4
   903                              txa
   904                              tay
   905                          .inner_loop
   906                              dey
   907                              lda vmap_z_h,y
   908                              and #vmem_highbyte_mask
   909                              cmp zp_temp + 4
   910                              bne +
   911                              lda vmap_z_l,y
   912                              cmp zp_temp
   913                              beq .exit_inner_loop
   914                          +   bcc .exit_inner_loop
   915                              lda vmap_z_l,y
   916                              sta vmap_z_l + 1,y
   917                              lda vmap_z_h,y
   918                              sta vmap_z_h + 1,y
   919                              tya
   920                              bne .inner_loop
   921                              dey
   922                          .exit_inner_loop    
   923                              ; We can't omit this iny and use vmap_z_[lh] + 1,y below to compensate
   924                              ; because Y may be -1 (255) and so they're not equivalent.
   925                              iny
   926                              lda zp_temp
   927                              sta vmap_z_l,y
   928                              lda zp_temp + 1
   929                              sta vmap_z_h,y
   930                              inx
   931                              cpx vmap_sort_entries
   932                              bne .outer_loop
   933                          
   934                          !ifndef ACORN_NO_DYNMEM_ADJUST {
   935                              ; The initial vmap created by the build system assumes nonstored_blocks ==
   936                              ; ACORN_INITIAL_NONSTORED_BLOCKS, so if we changed nonstored_blocks earlier
   937                              ; we need to adjust the vmap to compensate. If we didn't adjust it, this
   938                              ; code is a no-op. As the vmap is now sorted by address we just need to find
   939                              ; the first entry which doesn't correspond to dynamic memory and move
   940                              ; everything down so that entry becomes the first entry in the vmap. The
   941                              ; space freed up at the end of the vmap by this move is filled with dummy
   942                              ; entries so those entries will be used first when the game needs to load
   943                              ; more blocks from disc.
   944                          SFTODOLABEL2
   945                              ldx #255
   946                          .find_first_non_promoted_entry_loop
   947                              inx
   948                              lda vmap_z_h,x
   949                              and #vmem_highbyte_mask
   950                              bne .found_first_non_promoted_entry
   951                              lda vmap_z_l,x
   952                              cmp nonstored_blocks
   953                              bcc .find_first_non_promoted_entry_loop
   954                          .found_first_non_promoted_entry
   955                              txa
   956                              beq .no_dynmem_promotion
   957                              ldy #0
   958                          .vmap_move_down_loop
   959                              cpx #vmap_max_size
   960                              beq .use_dummy_entry
   961                              lda vmap_z_h,x
   962                              sta vmap_z_h,y
   963                              lda vmap_z_l,x
   964                              inx
   965                              bne + ; Always branch
   966                          .use_dummy_entry
   967                              ; We use $0101 as a dummy entry; this has the oldest possible timestamp so
   968                              ; the entry will be re-used ASAP and because it has the low bit of the
   969                              ; address set it can never accidentally match a lookup. (We could use 0 in
   970                              ; practice; that would never match a lookup because address 0 is guaranteed
   971                              ; to be dynamic memory so we will never search the vmap for it. But it seems
   972                              ; a little clearer to use $0101, and this needs to execute on all machines
   973                              ; so we can't micro-optimise by using stz.)
   974                              lda #1
   975                              sta vmap_z_h,y
   976                          +   sta vmap_z_l,y
   977                              iny
   978                              cpy vmap_max_entries
   979                              bne .vmap_move_down_loop
   980                          .no_dynmem_promotion
   981                          }
   982                          
   983                              ; Debugging code - use this in conjunction with --print-vm.
   984                          !if 0 {
   985                              jsr streams_init
   986                              ; vmap_used_entries is set later in normal use, but set it early here so
   987                              ; print_vm shows the entire vmap.
   988                              lda vmap_max_entries
   989                              sta vmap_used_entries
   990                              lda #'X'
   991                              jsr s_printchar
   992                              lda #>story_start
   993                              jsr print_byte_as_hex
   994                              lda nonstored_blocks
   995                              jsr print_byte_as_hex
   996                              jsr newline
   997                              jsr osrdch
   998                          }
   999                          
  1000                              ; Now we've got vmap how we want it, load the corresponding blocks into
  1001                              ; memory and initialise vmap_used_entries. (This roughly corresponds to the
  1002                              ; C64 load_suggested_pages subroutine.)
  1003                          
  1004                          !ifdef ACORN_TURBO_SUPPORTED {
  1005                              bit is_turbo
  1006                              bpl .normal_tube_load
  1007                              ; On a turbo second processor we don't do any preloading of the host cache
  1008                              ; so we just use a straightforward load loop like the non-tube-cache case
  1009                              ; below.
  1010                              stz vmap_index
  1011                          !ifdef ACORN_TUBE_CACHE {
  1012                              lda #$ff
  1013                              sta osword_cache_index_offered
  1014                              sta osword_cache_index_offered + 1
  1015                          }
  1016                          .turbo_load_loop
  1017                              jsr load_blocks_from_index
  1018                              inc vmap_index
  1019                              lda vmap_index
  1020                              cmp vmap_max_entries
  1021                              bne .turbo_load_loop
  1022                              sta vmap_used_entries
  1023                              jmp .all_loading_done
  1024                          
  1025                          .normal_tube_load
  1026                          }
  1027                          
  1028                          !ifdef ACORN_TUBE_CACHE {
  1029                          ; SFTODO: These labels should probably start with a "."
  1030                          inflated_vmap_max_entries = zp_temp
  1031                          from_index = zp_temp + 1
  1032                          to_index = vmap_index
  1033                          load_scratch_space = flat_ramtop - vmem_blocksize
  1034                          SFTODOLABELX2
  1035                          
  1036                              ; vmap_max_entries was deliberately artificially high up to this point so
  1037                              ; we'd retain and sort more of the initial vmap; set it to the correct value
  1038                              ; reflecting the size of the vmap Ozmoo's virtual memory has to work with.
  1039                              ; SFTODO: Worth noting that here - and might be useful in some other code
  1040                              ; too - we are calculating using known-at-build-time values. I could
  1041                              ; potentially simplify/shorten the code in a few places by not treating this
  1042                              ; dynamically, e.g. we wouldn't need the code to populate .game_blocks in
  1043                              ; the first place. (on SWR builds the dynmem growth optimisation means
  1044                              ; nonstored_blocks is not precisely known at build time, but that's not an
  1045                              ; issue for a tube build) This might also simplify some corner cases in the
  1046                              ; "grow nonstored_blocks" logic, because the game size is no longer a
  1047                              ; runtime variable. I just worry a little bit about this breaking
  1048                              ; already-not-supposed-to-work-but-sort-of-does-just-about things where a
  1049                              ; game developer wants to switch in an updated data file without going
  1050                              ; through the Ozmoo build process.
  1051                              lda vmap_max_entries
  1052                              sta inflated_vmap_max_entries
  1053                              lda #>(flat_ramtop - story_start)
  1054                              ldx .game_blocks + 1
  1055                              bne +
  1056                              cmp .game_blocks
  1057                              bcc +
  1058                              lda .game_blocks
  1059                          +   sec
  1060                              sbc nonstored_blocks
  1061                              lsr
  1062                              sta vmap_max_entries
  1063                              sta vmap_used_entries
  1064                              ; Adjust .host_cache_size so the following load loop won't try to put "too
  1065                              ; much" into the host cache; if this happens we might not have enough blocks
  1066                              ; to load into the local virtual memory cache and so some vmap entries would
  1067                              ; be present but not have actually been loaded. (This can happen because the
  1068                              ; cutover timestamp isn't that precise due to limited timestamp resolution,
  1069                              ; especially for Z4+ games.) Note that this doesn't actually stop us using
  1070                              ; more of the host cache; we will offer it blocks willy-nilly during play
  1071                              ; and if it has space it will hold onto them.
  1072                          SFTODOLABELX3
  1073                              lda inflated_vmap_max_entries
  1074                              sec
  1075                              sbc vmap_max_entries
  1076                              sta .host_cache_size
  1077                          
  1078                              ; We now need to load the inflated_vmap_max_entries blocks in the vmap from
  1079                              ; disk; vmap_max_entries blocks will go into our local memory as normal, the
  1080                              ; remainder need to be handed over to the host cache. We want the newer
  1081                              ; (higher timestamp) blocks in local memory, but remember vmap is sorted by
  1082                              ; block address to avoid the disk head jumping around. We use knowledge of
  1083                              ; how the build system generates the timestamps on vmap to identify a
  1084                              ; timestamp cutover point which will (except for the fact that the same
  1085                              ; timestamp can occur on multiple entries) separate the vmap into two chunks
  1086                              ; of the required sizes. (If the cutover timestamp is calculated
  1087                              ; incorrectly, we will still load everything we should, but newer blocks
  1088                              ; will tend to be in the host cache when we'd prefer them to be in local
  1089                              ; memory.)
  1090                          .vmem_blocks = ((>(flat_ramtop - story_start)) - ACORN_INITIAL_NONSTORED_BLOCKS) / vmem_block_pagecount
  1091                          .cutover_timestamp = int(ACORN_TUBE_CACHE_MAX_TIMESTAMP + ((float(.vmem_blocks) / vmap_max_size) * (ACORN_TUBE_CACHE_MIN_TIMESTAMP - ACORN_TUBE_CACHE_MAX_TIMESTAMP))) and ($ff xor vmem_highbyte_mask)
  1092                          
  1093                              ; Work through the blocks in vmap, loading each in turn and offering it to
  1094                              ; the host cache if it's old and there's room, and keeping it loaded into
  1095                              ; local memory otherwise. We keep doing this until we've loaded
  1096                              ; vmap_max_entries blocks into local memory (blocks offered to the host
  1097                              ; cache don't count) or until we've loaded all the blocks in vmap.
  1098                              lda #0
  1099                              sta from_index
  1100                              sta to_index
  1101                              lda #$ff
  1102                              sta osword_cache_index_offered
  1103                              sta osword_cache_index_offered + 1
  1104                          .first_load_loop
  1105                              ldx from_index
  1106                              ldy to_index
  1107                              lda vmap_z_l,x
  1108                              sta vmap_z_l,y
  1109                              lda vmap_z_h,x
  1110                              sta vmap_z_h,y
  1111                              jsr load_blocks_from_index
  1112                              ldy to_index
  1113                              lda vmap_z_h,y
  1114                              ; and #$ff xor vmem_highbyte_mask ; not necessary as we're doing a >= test
  1115                              cmp #.cutover_timestamp + 1
  1116                              bcs .dont_put_in_cache
  1117                          +   ldx .host_cache_size
  1118                              beq .dont_put_in_cache
  1119                              dec .host_cache_size
  1120                              and #$ff xor vmem_highbyte_mask
  1121                              sta osword_cache_index_offered_timestamp_hint
  1122                              ; load_blocks_from_index will have set osword_cache_index_requested
  1123                              lda osword_cache_index_requested
  1124                              sta osword_cache_index_offered
  1125                              lda osword_cache_index_requested + 1
  1126                              sta osword_cache_index_offered + 1
  1127                              jmp .continue
  1128                          .dont_put_in_cache
  1129                              lda #$ff
  1130                              sta osword_cache_index_offered
  1131                              sta osword_cache_index_offered + 1
  1132                              inc to_index
  1133                          .continue
  1134                              inc from_index
  1135                              lda to_index
  1136                              cmp vmap_max_entries
  1137                              bne .first_load_loop
  1138                          
  1139                              ; We may have already loaded all the blocks, but if we haven't we now need
  1140                              ; to start re-using vmap[vmap_max_entries - 1] to load the rest. (We can
  1141                              ; only load into local memory and we've used it all.) We no longer have the
  1142                              ; luxury of (easily) putting the blocks with older timestamps into the host
  1143                              ; cache and keeping the younger ones in local memory, but if we chose the
  1144                              ; cutover timestamp correctly we should end up with at most one misplaced
  1145                              ; block in each cache. SFTODO: I'M NOT SURE IT'S AS PRECISE AS ONE MISPLACED BLOCK, DUE TO LACK OF TIMESTAMP RESOLUTION - IT MAY BE ONE MISPLACED *TIMESTAMP*. IT ISN'T THAT BIG A DEAL, BUT THINK ABOUT THIS AND UPDATE THIS COMMENT. The misplaced block in the host cache will be the
  1146                              ; newest block in the host cache so it will spend a long time in there
  1147                              ; before being discarded, which should give plenty of opportunity for it to
  1148                              ; be requested during gameplay and moved into local memory before it's lost.
  1149                              ; SFTODO: vmap_index is an alias for to_index, maybe use to_index in the follow loop to match the previous loop? This (double check) is just a labelling change, the code would be identical.
  1150                              dec vmap_index ; set vmap_index = vmap_max_entries - 1
  1151                          .second_load_loop
  1152                              ldx from_index
  1153                              cpx inflated_vmap_max_entries
  1154                              beq .second_load_loop_done
  1155                              ldy vmap_index
  1156                              lda vmap_z_l,y
  1157                              sta osword_cache_index_offered
  1158                              lda vmap_z_h,y
  1159                              and #vmem_highbyte_mask
  1160                              sta osword_cache_index_offered + 1
  1161                              lda vmap_z_h,y
  1162                              and #$ff xor vmem_highbyte_mask
  1163                              sta osword_cache_index_offered_timestamp_hint
  1164                              lda vmap_z_l,x
  1165                              sta vmap_z_l,y
  1166                              lda vmap_z_h,x
  1167                              sta vmap_z_h,y
  1168                              jsr load_blocks_from_index
  1169                              inc from_index
  1170                              jmp .second_load_loop
  1171                          .second_load_loop_done
  1172                              ; Now we've finished the initial load, specify no timestamp hint for cache
  1173                              ; operations; this setting will remain untouched for the rest of the game.
  1174                              lda #osword_cache_no_timestamp_hint
  1175                              sta osword_cache_index_offered_timestamp_hint
  1176                          } else { ; not ACORN_TUBE_CACHE
  1177                              ; Load the blocks in vmap.
  1178                              lda #0
  1179                              sta vmap_index
  1180                          -   jsr load_blocks_from_index
  1181                              inc vmap_index
  1182                              lda vmap_index
  1183                              cmp vmap_max_entries
  1184                              bne -
  1185                          SFTODOLABEL4
  1186                              sta vmap_used_entries
  1187                          }
  1188                          .all_loading_done
  1189                          
  1190                          !ifdef ACORN_SWR {
  1191                              ; The load loop may have left the last bank of sideways RAM paged in; we
  1192                              ; need to page the default bank back in.
  1193                              +acorn_swr_page_in_default_bank_using_y
  1194                          }
  1195                          } ; End of !ifndef PREOPT
  1196                          } ; End of !ifdef VMEM
  1197                          
  1198                              ; Calculate CRC of block 0 before it gets modified, so we can use it later
  1199                              ; to identify the game disc after a save or restore.
  1200                              lda #0
  1201                              ldx #<story_start
  1202                              ldy #>story_start
  1203                              jsr calculate_crc ; corrupts some zp_temp locations
  1204                              stx game_disc_crc
  1205                              sty game_disc_crc + 1
  1206                          } ; End of acorn_deletable_init_inline
  1207                          
  1208                          !ifdef ACORN_SWR {
  1209                          !macro acorn_swr_page_in_default_bank_using_y {
  1210                          !ifdef ACORN_SWR_BIG_DYNMEM {
  1211                              +acorn_page_in_bank_using_y ram_bank_list
  1212                          } else {
  1213                              +acorn_page_in_bank_using_y z_pc_mempointer_ram_bank
  1214                          }
  1215                          }
  1216                          }
  1217                          
  1218                          ; Acorn-specific initialization to carry out in deletable_screen_init_2. This is
  1219                          ; quite late in the initialization process - in particular it happens after the
  1220                          ; lengthy loading process in acorn_deletable_init_inline.
  1221                          !macro acorn_deletable_screen_init_2_inline {
  1222                          !ifdef ACORN_NO_SHADOW {
  1223                              ; It's not safe to do vdu_cls without having a text window in effect.
  1224                              ; Normally the one set up when we first entered this version of mode 7 is
  1225                              ; in effect, but if there's been any output (e.g. due to disc errors) via
  1226                              ; s_printchar between then and now we may no longer have one in effect.
  1227                              ; s_printchar normally takes care of creating one as needed, but since we're
  1228                              ; going to do vdu_cls directly we need to take care of this.
  1229                              +define_mode_7_3c00_text_window_inline
  1230                              lda #vdu_cls
  1231                              jsr oswrch
  1232                          } else {
  1233                              ; Set the desired mode. If we're already in the right mode we don't reselect
  1234                              ; it, to avoid the screen flashing briefly to black. This is deletable init
  1235                              ; code so we can afford minor luxuries like this.
  1236                              lda #osbyte_read_screen_mode
  1237                              jsr osbyte
  1238                              cpy screen_mode
  1239                              beq .already_in_right_mode
  1240                              lda #vdu_set_mode
  1241                              jsr oswrch
  1242                              lda screen_mode
  1243                              ora #128 ; force shadow mode on
  1244                              jsr oswrch
  1245                              jmp .mode_set
  1246                          .already_in_right_mode
  1247                              ; Clear the screen; this is mostly unnecessary, but for Z3 games which are
  1248                              ; loading from the loader in mode 7 it clears any leftover text on the top
  1249                              ; line of the screen.
  1250                              lda #vdu_cls
  1251                              jsr oswrch
  1252                          .mode_set
  1253                              ; Setting the mode will have turned the cursor back on, so fix that.
  1254                              jsr init_cursor_control
  1255                              ; We must re-initialise screenkernal to pick up the details of the new mode.
  1256                              jsr screenkernal_init
  1257                              ; We must also reset the window sizes; we do this by re-executing
  1258                              ; deletable_screen_init_1.
  1259                              jsr deletable_screen_init_1
  1260                          }
  1261                          
  1262                          !ifdef ACORN_HW_SCROLL {
  1263                              ldx #1
  1264                              ldy screen_mode
  1265                              cpy #7
  1266                              bne +
  1267                              dex
  1268                          +   stx use_hw_scroll
  1269                          }
  1270                              jsr update_colours
  1271                          } ; End of acorn_deletable_screen_init_2_inline
  1272                          
  1273                          !macro clean_up_and_quit_inline {
  1274                              ; TODO: Should this print something like "[Press SPACE]", flush keyboard
  1275                              ; buffer and wait for SPACE before continuing? Maybe also adding a blank
  1276                              ; line of output before we call osbyte_enter_language for neatness. Apart
  1277                              ; from looking nicer, this might have a useful gameplay function as entering
  1278                              ; BASIC could cause text to scroll which the user hasn't read yet, whereas
  1279                              ; our "[Press SPACE]" prompt would be done under control of Ozmoo's paging.
  1280                          !ifdef ACORN_NO_SHADOW {
  1281                              jsr undo_mode_7_3c00
  1282                          }
  1283                              jsr set_os_normal_video
  1284                              jsr turn_on_cursor
  1285                              ldx #0
  1286                              jsr do_osbyte_rw_escape_key
  1287                          !ifdef ACORN_CURSOR_PASS_THROUGH {
  1288                              jsr do_osbyte_set_cursor_editing_x_0
  1289                          }
  1290                          !ifdef ACORN_FUNCTION_KEY_PASS_THROUGH {
  1291                              lda #osbyte_rw_function_key_status
  1292                              ldx #1 ; default - expand as normal soft key
  1293                              jsr do_osbyte_y_0
  1294                              lda #osbyte_rw_shift_function_key_status
  1295                              ldx #$80 ; default - generate $80+n
  1296                              jsr do_osbyte_y_0
  1297                          }
  1298                              ; Re-enter the current language.
  1299                          re_enter_language
  1300                              lda #osbyte_enter_language
  1301                          re_enter_language_ldx_imm
  1302                              ldx #$ff
  1303                              jsr osbyte
  1304                              ; never returns
  1305                          }
  1306                          
  1307                          ;;;;;;;;;;;;;;;;;;;;;;;;;;;;;;;;;;;;;;;;;;;;;;;;;;;;;;;;;;;;;;;;;;;;;;;;;;;;;;;;
  1308                          ; OS error handling and associated routines
  1309                          ;;;;;;;;;;;;;;;;;;;;;;;;;;;;;;;;;;;;;;;;;;;;;;;;;;;;;;;;;;;;;;;;;;;;;;;;;;;;;;;;
  1310                          
  1311                          error_handler
  1312  2076 ac9220                 ldy .error_handler_newlines
  1313  2079 f008                   beq +
  1314  207b a90d               -   lda #13
  1315  207d 20a820                 jsr .error_handler_print_char
  1316  2080 88                     dey
  1317  2081 d0f8                   bne -
  1318  2083 a001               +   ldy #1
  1319  2085 b1fd               -   lda (error_ptr), y
  1320  2087 f006                   beq +
  1321  2089 20a820                 jsr .error_handler_print_char
  1322  208c c8                     iny
  1323  208d d0f6                   bne - ; Always branch
  1324                              ; The following jmp will be patched by code which wants to gain control
  1325                              ; after an error.
  1326                          .error_handler_jmp
  1327  208f 4c9320             +   jmp .press_break
  1328                          
  1329                          default_error_handler_newlines = 2
  1330  2092 02                 .error_handler_newlines !byte default_error_handler_newlines
  1331                          
  1332                          .press_break
  1333                              ; We don't use print_following_string here because we don't want to assume
  1334                              ; Ozmoo's own printing mechanisms are properly initialized.
  1335  2093 20ab20                 jsr error_print_following_string
  1336  2096 202d207072657373...    !text " - press BREAK",0
  1337  20a5 4ca520             -   jmp -
  1338                          
  1339                          ; Depending on what's happening when an error occurs, we need to output using
  1340                          ; different primitives. We therefore always use this subroutine and it gets
  1341                          ; patched at runtime.
  1342                          .error_handler_print_char
  1343  20a8 4ce823                 jmp s_printchar
  1344                          
  1345                          ; Like print_following_string, but using .error_handler_print_char.
  1346                          error_print_following_string
  1347  20ab 68                     pla
  1348  20ac 8dbc20                 sta .error_print_following_string_lda + 1
  1349  20af 68                     pla
  1350  20b0 8dbd20                 sta .error_print_following_string_lda + 2
  1351  20b3 eebc20             -   inc .error_print_following_string_lda + 1
  1352  20b6 d003                   bne +
  1353  20b8 eebd20                 inc .error_print_following_string_lda + 2
  1354                          +
  1355                          .error_print_following_string_lda
  1356  20bb adffff                 lda $ffff
  1357  20be f006                   beq +
  1358  20c0 20a820                 jsr .error_handler_print_char
  1359  20c3 4cb320                 jmp -
  1360  20c6 adbd20             +   lda .error_print_following_string_lda + 2
  1361  20c9 48                     pha
  1362  20ca adbc20                 lda .error_print_following_string_lda + 1
  1363  20cd 48                     pha
  1364  20ce 60                     rts
  1365                          
  1366                          error_print_s_printchar = 0
  1367                          error_print_osasci = 1
  1368                          .error_print_table_l
  1369  20cf e8                     !byte <s_printchar
  1370  20d0 e3                     !byte <osasci
  1371                          .error_print_table_h
  1372  20d1 23                     !byte >s_printchar
  1373  20d2 ff                     !byte >osasci
  1374                          
  1375                          ; Allow trapping of errors signalled by the OS via BRKV. Used like this:
  1376                          ;   ldx #2 ; number of newlines to print before any error
  1377                          ;   ldy #n ; type of printing to use if an error occurs (0 s_printchar, 1 osasci)
  1378                          ;   jsr setjmp
  1379                          ;   beq ok
  1380                          ;   ; error occurred, do something
  1381                          ;   jsr set_default_error_handler ; before returning
  1382                          ;   rts
  1383                          ; ok
  1384                          ;   ; do something that might cause an error
  1385                          ;   jsr set_default_error_handler ; errors after this point aren't our problem
  1386                          setjmp
  1387  20d3 8e9220                 stx .error_handler_newlines
  1388  20d6 b9cf20                 lda .error_print_table_l,y
  1389  20d9 8da920                 sta .error_handler_print_char + 1
  1390  20dc b9d120                 lda .error_print_table_h,y
  1391  20df 8daa20                 sta .error_handler_print_char + 2
  1392  20e2 a904                   lda #<.setjmp_error_handler
  1393  20e4 8d9020                 sta .error_handler_jmp + 1
  1394  20e7 a921                   lda #>.setjmp_error_handler
  1395  20e9 8d9120                 sta .error_handler_jmp + 2
  1396                          !ifdef ACORN_SWR {
  1397                              ; The OS will page the current language back in on BRK, so we need to save
  1398                              ; the current bank and restore it in .setjmp_error_handler.
  1399  20ec a5f4                   lda romsel_copy
  1400  20ee 8d2204                 sta jmp_buf_ram_bank
  1401                          }
  1402                              ; We need to save the contents of the stack, because they may be corrupted
  1403                              ; when an error message is generated. (They probably won't be, but we can't
  1404                              ; rely on it.) As a nice side effect of this, the return address for our
  1405                              ; caller is saved so .setjmp_error_handler can simply rts after restoring
  1406                              ; the stack.
  1407                              ; SFTODO: If jmp_buf is made smaller, we could probably fairly easily
  1408                              ; detect overflow - initialize y with -buffer_size, do sta jmp_buf+1+buffer_size,y
  1409                              ; and if the bne after the iny isn't taken we've overflowed. There might be
  1410                              ; an off by one error in that, I'm just sketching the idea out. This is
  1411                              ; tempting, *but* at the moment jmp_buf is going to live in $400-800 and
  1412                              ; (except for the possibility of starting code at say $600 on 2P) we have
  1413                              ; loads of free space down there, so adding a few bytes of code to the VM
  1414                              ; to detect overflow and cause a fatal error will eat into valuable memory
  1415                              ; for the sake of optimising use of a currently not-scare resource. Think
  1416                              ; about it, maybe convert this to an SF: comment.
  1417  20f1 ba                     tsx
  1418  20f2 8e6004                 stx jmp_buf
  1419  20f5 a000                   ldy #0
  1420  20f7 e8                 -   inx
  1421  20f8 f009                   beq +
  1422  20fa bd0001                 lda stack,x
  1423  20fd 996104                 sta jmp_buf+1,y
  1424  2100 c8                     iny
  1425  2101 d0f4                   bne -
  1426                          +   ; Z flag is set
  1427  2103 60                     rts
  1428                          
  1429                          .setjmp_error_handler
  1430  2104 ae6004                 ldx jmp_buf
  1431  2107 9a                     txs
  1432  2108 a000                   ldy #0
  1433  210a e8                 -   inx
  1434  210b f009                   beq +
  1435  210d b96104                 lda jmp_buf+1,y
  1436  2110 9d0001                 sta stack,x
  1437  2113 c8                     iny
  1438  2114 d0f4                   bne -
  1439                          +   
  1440                          !ifdef ACORN_SWR {
  1441  2116 ad220485f48d30fe       +acorn_page_in_bank_using_a jmp_buf_ram_bank
  1442                          }
  1443  211e a901                   lda #1 ; Z flag is clear
  1444  2120 60                     rts
  1445                          
  1446                          set_default_error_handler
  1447  2121 a902                   lda #default_error_handler_newlines
  1448  2123 8d9220                 sta .error_handler_newlines
  1449  2126 a9e8                   lda #<s_printchar
  1450  2128 8da920                 sta .error_handler_print_char + 1
  1451  212b a923                   lda #>s_printchar
  1452  212d 8daa20                 sta .error_handler_print_char + 2
  1453  2130 a993                   lda #<.press_break
  1454  2132 8d9020                 sta .error_handler_jmp + 1
  1455  2135 a920                   lda #>.press_break
  1456  2137 8d9120                 sta .error_handler_jmp + 2
  1457                          .set_default_error_handler_rts
  1458  213a 60                     rts
  1459                          
  1460                          ;;;;;;;;;;;;;;;;;;;;;;;;;;;;;;;;;;;;;;;;;;;;;;;;;;;;;;;;;;;;;;;;;;;;;;;;;;;;;;;;
  1461                          ; C64 kernal_readtime emulation
  1462                          ;;;;;;;;;;;;;;;;;;;;;;;;;;;;;;;;;;;;;;;;;;;;;;;;;;;;;;;;;;;;;;;;;;;;;;;;;;;;;;;;
  1463                          
  1464                              ; The Acorn OS time counter is a 5 byte value, whereas (ignoring the
  1465                              ; difference in resolution) the Commodore one is 3 bytes. Because the Acorn
  1466                              ; OS time counter may have an arbitrarily large value (perhaps some kind of
  1467                              ; soft RTC solution) when we start up and we don't want to zero it, we read
  1468                              ; the initial value and subtract that from any subsequent reads.
  1469                          !macro init_readtime_inline {
  1470                              lda #osword_read_clock
  1471                              ldx #<initial_clock
  1472                              ldy #>initial_clock
  1473                              jsr osword
  1474                          }
  1475                          
  1476                          kernal_readtime
  1477                          .current_clock = scratch_page
  1478  213b a901                   lda #osword_read_clock
  1479  213d a200                   ldx #<.current_clock
  1480  213f a005                   ldy #>.current_clock
  1481  2141 20f1ff                 jsr osword
  1482  2144 a2fb                   ldx #(256-5)
  1483  2146 38                     sec
  1484  2147 bd0504             -   lda .current_clock-(256-5),x
  1485  214a fd2803                 sbc initial_clock-(256-5),x
  1486  214d 9d0504                 sta .current_clock-(256-5),x
  1487  2150 e8                     inx
  1488  2151 d0f4                   bne -
  1489                              ; The Acorn clock is in centiseconds; a PAL C64 would use fiftieths of a
  1490                              ; second, so halve the value before we return it.
  1491  2153 a204                   ldx #4
  1492  2155 18                     clc
  1493  2156 7e0005             -   ror .current_clock,x
  1494  2159 ca                     dex
  1495  215a 10fa                   bpl -
  1496                              ; All the above means we're at no more or less risk than a C64 of having the
  1497                              ; time roll over during a game. It would take >3.8 days for this to happen.
  1498  215c ac0205                 ldy .current_clock+2
  1499  215f ae0105                 ldx .current_clock+1
  1500  2162 ad0005                 lda .current_clock+0
  1501  2165 60                     rts
  1502                          
  1503                          ;;;;;;;;;;;;;;;;;;;;;;;;;;;;;;;;;;;;;;;;;;;;;;;;;;;;;;;;;;;;;;;;;;;;;;;;;;;;;;;;
  1504                          ; ACORN_NO_SHADOW support (mode 7 screen at $3c00 instead of $7c00)
  1505                          ;;;;;;;;;;;;;;;;;;;;;;;;;;;;;;;;;;;;;;;;;;;;;;;;;;;;;;;;;;;;;;;;;;;;;;;;;;;;;;;;
  1506                          
  1507                          ; If we have no shadow RAM, we need to relocate the mode 7 screen to $3c00 to
  1508                          ; create a contiguous area of RAM from $4000-$c000. See
  1509                          ; https://stardot.org.uk/forums/viewtopic.php?f=54&t=20149 for more discussion
  1510                          ; on this.
  1511                          !ifdef ACORN_NO_SHADOW {
  1512                          
  1513                          !ifndef ACORN_SWR {
  1514                              !error "ACORN_NO_SHADOW only makes sense with ACORN_SWR"
  1515                          }
  1516                          
  1517                          !ifdef ACORN_HW_SCROLL {
  1518                              ; The OS can't hardware scroll the mode 7 screen at this non-standard
  1519                              ; location.
  1520                              !error "ACORN_HW_SCROLL is not compatible with ACORN_NO_SHADOW"
  1521                          }
  1522                          
  1523                          !macro make_acorn_screen_hole {
  1524                          .tolerance = 256
  1525                              !if * <= $3c00 {
  1526                                  !if ($3c00 - *) <= .tolerance {
  1527                          acorn_screen_hole_start = *
  1528                                      !fill $4000 - *, 'X'
  1529                          acorn_screen_hole_end
  1530                                  }
  1531                              }
  1532                          }
  1533                          
  1534                          !macro make_acorn_screen_hole_jmp {
  1535                          .jmp_size = 3
  1536                          .tolerance = 256
  1537                              !if * <= ($3c00 - .jmp_size) {
  1538                                  !if ($3c00 - *) <= .tolerance {
  1539                                      jmp acorn_screen_hole_end
  1540                          acorn_screen_hole_start = *
  1541                                      !fill $4000 - *, 'X'
  1542                          acorn_screen_hole_end
  1543                                  }
  1544                              }
  1545                          }
  1546                          
  1547                          ; On $e00 builds the binary is likely to fit entirely below the screen at $3c00.
  1548                          ; We need the stack and story to be contiguous, so we must insert a large enough
  1549                          ; hole at this point even if we're not close to $3c00.
  1550                          ;
  1551                          ; .swap_pointers_for_save will temporarily corrupt the last few bytes of the
  1552                          ; screen memory just below the start of the stack (i.e. just below $4000), but
  1553                          ; this shouldn't actually be visible because we're using software scrolling and
  1554                          ; the mode 7 screen data actually only occupies the first 40*25 bytes at $3c00,
  1555                          ; so it's not necessary to include some extra padding at $4000 to avoid this.
  1556                          ; SFTODO: BE GOOD TO TEST THIS!
  1557                          !macro make_acorn_screen_hole_before_stack {
  1558                              !if * <= $3c00 {
  1559                          acorn_screen_hole_start = *
  1560                                  !fill $4000 - *, 'X'
  1561                          acorn_screen_hole_end
  1562                              }
  1563                          }
  1564                          
  1565                          !macro check_acorn_screen_hole {
  1566                              ; This check is important to ensure the no shadow RAM build doesn't crash,
  1567                              ; but when the check fails, we need to be able to disable it in order to
  1568                              ; allow assembly to complete so we can look at the acme report output and
  1569                              ; decide where to add a +make_acorn_screen_hole invocation.
  1570                              !ifndef ACORN_DISABLE_SCREEN_HOLE_CHECK {
  1571                                  !ifndef acorn_screen_hole_start {
  1572                                      !error "Acorn screen hole has not been added"
  1573                                  } else {
  1574                                      !if acorn_screen_hole_start > $3c00 {
  1575                                          !error "Acorn screen hole starts too late"
  1576                                      }
  1577                                      !if acorn_screen_hole_end < $4000 {
  1578                                          !error "Acorn screen hole ends too soon"
  1579                                      }
  1580                                  }
  1581                              }
  1582                          }
  1583                          
  1584                          ; This macro is like an initialization subroutine, but by using a macro we
  1585                          ; can place it in the discardable init code while still having it in this file
  1586                          ; where it logically belongs.
  1587                          !macro set_up_mode_7_3c00_inline {
  1588                              ; In reality we don't expect to be called with our handlers already
  1589                              ; installed, but be paranoid - this is deletable init code so it's mostly
  1590                              ; free.
  1591                              lda wrchv
  1592                              cmp #<our_wrchv
  1593                              bne +
  1594                              lda wrchv + 1
  1595                              cmp #>our_wrchv
  1596                              beq .set_up_mode_7_3c00_done
  1597                          +
  1598                          
  1599                              ; Copy the contents of the current screen for neatness.
  1600                              ldx #$7c
  1601                              ldy #$3c
  1602                              jsr screen_copy
  1603                          
  1604                              ; Reprogram the CRTC and poke the OS variables to mostly compensate.
  1605                              lda #crtc_screen_start_high
  1606                              sta crtc_register
  1607                              lda #$20
  1608                              sta crtc_data
  1609                              lda #$3c
  1610                              sta bottom_of_screen_memory_high
  1611                              sta display_start_address + 1
  1612                          
  1613                              ; Define a text window and reposition the cursor; doing this forces the OS
  1614                              ; to notice the changes we just made. The text window also prevents hardware
  1615                              ; scrolling; all the output from the main Ozmoo code will be protected using
  1616                              ; text windows anyway since ACORN_HW_SCROLL is not defined, but having one
  1617                              ; in place straight away is useful insurance.
  1618                              lda #osbyte_read_cursor_position
  1619                              jsr osbyte
  1620                              +define_mode_7_3c00_text_window_inline
  1621                              jsr do_oswrch_vdu_goto_xy
  1622                          
  1623                              ; Install our handlers to fix some problems with the OS's handling of this
  1624                              ; unofficial mode.
  1625                              lda wrchv
  1626                              sta call_old_wrchv + 1
  1627                              lda wrchv + 1
  1628                              sta call_old_wrchv + 2
  1629                              lda #<our_wrchv
  1630                              sta wrchv
  1631                              lda #>our_wrchv
  1632                              sta wrchv + 1
  1633                              lda keyv
  1634                              sta call_old_keyv + 1
  1635                              lda keyv + 1
  1636                              sta call_old_keyv + 2
  1637                              lda #<our_keyv
  1638                              sta keyv
  1639                              lda #>our_keyv
  1640                              sta keyv + 1
  1641                          
  1642                          .set_up_mode_7_3c00_done
  1643                          }
  1644                          
  1645                          !macro define_mode_7_3c00_text_window_inline {
  1646                              lda #vdu_define_text_window
  1647                              jsr oswrch
  1648                              lda #0
  1649                              jsr oswrch
  1650                              lda #24
  1651                              jsr oswrch
  1652                              lda #39
  1653                              jsr oswrch
  1654                              lda #0
  1655                              jsr oswrch
  1656                          }
  1657                          
  1658                          !macro adjust_cursor_inline {
  1659                              lda #crtc_cursor_start_high
  1660                              sta crtc_register
  1661                              lda text_cursor_address + 1
  1662                              sec
  1663                              sbc #$1c
  1664                              sta crtc_data
  1665                          }
  1666                          
  1667                          our_wrchv
  1668                          call_old_wrchv
  1669  2166 20ffff                 jsr $ffff ; patched during initialization
  1670  2169 48                     pha
  1671  216a a90e8d00fead4b03...    +adjust_cursor_inline
  1672  2178 68                     pla
  1673  2179 60                     rts
  1674                          
  1675                          our_keyv
  1676  217a 901c                   bcc call_old_keyv
  1677  217c 501a                   bvc call_old_keyv
  1678                              ; keyboard timer interrupt entry
  1679  217e 209821                 jsr call_old_keyv
  1680  2181 08                     php
  1681  2182 48                     pha
  1682  2183 24d0                   bit vdu_status
  1683  2185 500e                   bvc .not_cursor_editing
  1684  2187 a90e8d00fead4b03...    +adjust_cursor_inline
  1685                          .not_cursor_editing
  1686  2195 68                     pla
  1687  2196 28                     plp
  1688  2197 60                     rts
  1689                          call_old_keyv
  1690  2198 4cffff                 jmp $ffff ; patched during initialization
  1691                          
  1692                          undo_mode_7_3c00
  1693                              ; Reset the vectors we fiddled with.
  1694  219b ad6721                 lda call_old_wrchv + 1
  1695  219e 8d0e02                 sta wrchv
  1696  21a1 ad6821                 lda call_old_wrchv + 2
  1697  21a4 8d0f02                 sta wrchv + 1
  1698  21a7 ad9921                 lda call_old_keyv + 1
  1699  21aa 8d2802                 sta keyv
  1700  21ad ad9a21                 lda call_old_keyv + 2
  1701  21b0 8d2902                 sta keyv + 1
  1702                          
  1703                              ; Switch to normal mode 7. This clears the screen, so we copy the contents
  1704                              ; back and restore the cursor position. This is maybe overkill, but it's
  1705                              ; important any final message shown when the game quits can be seen by the
  1706                              ; user.
  1707  21b3 a986                   lda #osbyte_read_cursor_position
  1708  21b5 20f4ff                 jsr osbyte
  1709  21b8 a916                   lda #vdu_set_mode
  1710  21ba 20eeff                 jsr oswrch
  1711  21bd a907                   lda #7
  1712  21bf 20eeff                 jsr oswrch
  1713  21c2 204622                 jsr do_oswrch_vdu_goto_xy
  1714                          
  1715  21c5 a23c                   ldx #$3c
  1716  21c7 a07c                   ldy #$7c
  1717                              ; fall through to screen_copy
  1718                          
  1719                          screen_copy
  1720  21c9 8ed521                 stx .screen_copy_lda_abs_y + 2
  1721  21cc 8cd821                 sty .screen_copy_sta_abs_y + 2
  1722  21cf a204                   ldx #4
  1723                          .screen_copy_loop
  1724  21d1 a000                   ldy #0
  1725                          .screen_copy_loop2
  1726                          .screen_copy_lda_abs_y
  1727  21d3 b900ff                 lda $ff00,y ; patched
  1728                          .screen_copy_sta_abs_y
  1729  21d6 9900ff                 sta $ff00,y ; patched
  1730  21d9 c8                     iny
  1731  21da d0f7                   bne .screen_copy_loop2
  1732  21dc eed521                 inc .screen_copy_lda_abs_y + 2
  1733  21df eed821                 inc .screen_copy_sta_abs_y + 2
  1734  21e2 ca                     dex
  1735  21e3 d0ec                   bne .screen_copy_loop
  1736  21e5 60                     rts
  1737                          } ; End of !ifdef ACORN_NO_SHADOW
  1738                          
  1739                          ;;;;;;;;;;;;;;;;;;;;;;;;;;;;;;;;;;;;;;;;;;;;;;;;;;;;;;;;;;;;;;;;;;;;;;;;;;;;;;;;
  1740                          ; Miscellaneous utility routines
  1741                          ;;;;;;;;;;;;;;;;;;;;;;;;;;;;;;;;;;;;;;;;;;;;;;;;;;;;;;;;;;;;;;;;;;;;;;;;;;;;;;;;
  1742                          
  1743                          ; Like printstring_raw, but using OSASCI.
  1744                          printstring_os
  1745  21e6 8eed21                 stx .printstring_os_lda + 1
  1746  21e9 8dee21                 sta .printstring_os_lda + 2
  1747                          -
  1748                          .printstring_os_lda
  1749  21ec adffff                lda $ffff
  1750  21ef f047                  beq .calculate_crc_rts
  1751  21f1 20e3ff                jsr osasci
  1752  21f4 eeed21                inc .printstring_os_lda + 1
  1753  21f7 d0f3                  bne -
  1754  21f9 eeee21                inc .printstring_os_lda + 2
  1755  21fc d0ee                  bne - ; Always branch
  1756                          
  1757                          ; Calculate a CRC over A bytes of data at YX (A=0 => 256 bytes), returning it in
  1758                          ; YX.
  1759                          calculate_crc
  1760                          ; This must not use the same location as .result in acorn-disk.asm as otherwise
  1761                          ; when .get_game_disc_back calls calculate_crc it will be overwritten.
  1762                          .crc = zp_temp + 2 ; 2 bytes 
  1763  21fe 8d3122                 sta .cpy_imm + 1
  1764  2201 8e1122                 stx .eor_abs + 1
  1765  2204 8c1222                 sty .eor_abs + 2
  1766  2207 a900                   lda #0
  1767  2209 8578                   sta .crc + 1
  1768  220b 8577                   sta .crc
  1769  220d a8                     tay
  1770                          .nbyt
  1771  220e a578                   lda .crc + 1
  1772                          .eor_abs
  1773  2210 59ffff                 eor $ffff,y
  1774  2213 8578                   sta .crc + 1
  1775  2215 a208                   ldx #8
  1776                          .loop
  1777  2217 a578                   lda .crc + 1
  1778  2219 2a                     rol
  1779  221a 900c                   bcc .b7z
  1780  221c a578                   lda .crc + 1
  1781  221e 4908                   eor #8
  1782  2220 8578                   sta .crc + 1
  1783  2222 a577                   lda .crc
  1784  2224 4910                   eor #$10
  1785  2226 8577                   sta .crc
  1786                          .b7z
  1787  2228 2677                   rol .crc
  1788  222a 2678                   rol .crc + 1
  1789  222c ca                     dex
  1790  222d d0e8                   bne .loop
  1791  222f c8                     iny
  1792                          .cpy_imm
  1793  2230 c0ff                   cpy #$ff
  1794  2232 d0da                   bne .nbyt
  1795  2234 a677                   ldx .crc
  1796  2236 a478                   ldy .crc + 1
  1797                          .calculate_crc_rts
  1798  2238 60                     rts
  1799                          
  1800                          ; Two wrappers for calling osbyte_set_cursor_editing to reduce code size; we do
  1801                          ; this in several places.
  1802                          do_osbyte_set_cursor_editing_x_0
  1803  2239 a200                   ldx #0
  1804                          do_osbyte_set_cursor_editing
  1805  223b a904                   lda #osbyte_set_cursor_editing
  1806  223d d002                   bne do_osbyte_y_0 ; Always branch
  1807                          
  1808                          ; Two wrappers for calling osbyte_rw_escape_key to reduce code size; we do this
  1809                          ; in several places.
  1810                          do_osbyte_rw_escape_key
  1811  223f a9e5                   lda #osbyte_rw_escape_key
  1812                          do_osbyte_y_0
  1813  2241 a000                   ldy #0
  1814  2243 4cf4ff                 jmp osbyte
  1815                          
  1816                          ; Move the OS cursor to (X, Y).
  1817                          do_oswrch_vdu_goto_xy
  1818  2246 a91f                   lda #vdu_goto_xy
  1819  2248 20eeff                 jsr oswrch
  1820  224b 8a                     txa
  1821  224c 20eeff                 jsr oswrch
  1822  224f 98                     tya
  1823  2250 4ceeff                 jmp oswrch
  1824                          
  1825                          ; SF: ENHANCEMENT: It would potentially be possible to support bold and
  1826                          ; underlined text in modes other than 7, although we'd either need to do it via
  1827                          ; OSWORD 10 and UDG redefinition (which is probably quite slow) or install
  1828                          ; some kind of custom driver around OSWRCH and have that run on the host even if
  1829                          ; we're using a second processor. As a "cheap" version, it would be possible to
  1830                          ; use colours in mode 1 for bold, but I'm not particularly keen to support this
  1831                          ; just for one mode which probably no one would use.
  1832                          ;
  1833                          ; SF: ENHANCEMENT: It would also with a bit more effort probably be possible
  1834                          ; to use a proportionally spaced font in modes other than 7, though this would
  1835                          ; be a more intrusive code change.
  1836                          ;
  1837                          ; SFTODO: Once the upstream dynamic memory access rework is completed and merged, it *may* be possible to do things like (on a turbo copro) use bank 0 free memory plus the whole of bank 1 for dynamic memory, and have banks 2 and 3 for virtual memory cache, or to promote the whole of a game <= ~210K to be pure dynamic memory. Or if we have more main+SWR than the game size, to promote the whole game to dynamic memory and do a simple absolute Z-machine to bank address conversion. I suspect it won't allow >64K dynamic memory, but just making this note so I can consider it when I see how upstream change works.
  1838                          
  1839                          }

; ******** Source: ozmoo.asm
   216                          
   217                          }

; ******** Source: utilities.asm
     1                          ; various utility functions
     2                          ; - conv2dec
     3                          ; - mult16
     4                          ; - divide16
     5                          ; - fatalerror
     6                          ; - enable_interrupts
     7                          ; - disable_interrupts
     8                          ; - set_memory_normal
     9                          ; - set_memory_all_ram
    10                          ; - set_memory_no_basic
    11                          ; various debug functions
    12                          
    13                          !ifndef ACORN {
    14                          ; zero_processorports: ...<d000><e000><a000> on/off
    15                          !macro set_memory_all_ram {
    16                              ; Don't forget to disable interrupts first!
    17                              pha
    18                              lda #%00110000 
    19                              sta zero_processorports
    20                              pla
    21                          }
    22                          !macro set_memory_all_ram_unsafe {
    23                              ; Don't forget to disable interrupts first!
    24                              lda #%00110000 
    25                              sta zero_processorports
    26                          }
    27                          
    28                          !macro set_memory_no_basic {
    29                              pha
    30                              lda #%00110110
    31                              sta zero_processorports
    32                              pla
    33                          }
    34                          !macro set_memory_no_basic_unsafe {
    35                              lda #%00110110
    36                              sta zero_processorports
    37                          }
    38                          
    39                          !macro set_memory_normal {
    40                              pha
    41                              lda #%00110111
    42                              sta zero_processorports
    43                              pla
    44                          }
    45                          
    46                          ; to be expanded to disable NMI IRQs later if needed
    47                          !macro disable_interrupts {
    48                              sei 
    49                          }
    50                          
    51                          !macro enable_interrupts {
    52                              cli
    53                          }
    54                          }
    55                          
    56                          !ifdef SLOW {
    57                          !ifdef ACORN_SWR_BIG_DYNMEM {
    58                          ; In the big dynamic memory model, the first RAM bank (which may hold dynamic
    59                          ; memory) is paged in by default. In order to optimise decoding of multi-byte
    60                          ; Z-machine instructions, read_next_byte_at_z_pc_unsafe* and friends are used to
    61                          ; temporarily switch to leaving the bank containing the Z-machine PC paged in.
    62                          ; These are unnecessary on all other builds, where (either because there's a
    63                          ; flat memory model or the Z-machine PC RAM bank is paged in by default) no
    64                          ; bank switching is needed in read_next_byte_at_z_pc.
    65                          
    66                          ; SF: This must preserve A and X.
    67                          restart_read_next_byte_at_z_pc_unsafe_sub
    68                              ; We must keep the Z-machine PC bank paged in during these "unsafe" reads.
    69                              +acorn_page_in_bank_using_y z_pc_mempointer_ram_bank
    70                              rts
    71                          
    72                          ; This must preserve A and X.
    73                          finish_read_next_byte_at_z_pc_unsafe_sub
    74                              ; We are no longer in "unsafe" mode, so we must maintain the usual default
    75                              ; configuration with the first bank of sideways RAM (possibly containing
    76                              ; dynamic memory) paged in.
    77                              +acorn_page_in_bank_using_y ram_bank_list
    78                              rts
    79                          
    80                          ; SF: This must preserve X, but it can corrupt Y; we don't need to return with Y=0.
    81                          read_next_byte_at_z_pc_unsafe_start_sub
    82                              jsr restart_read_next_byte_at_z_pc_unsafe_sub
    83                              ; Fall through to read_next_byte_at_z_pc_unsafe_middle_sub
    84                          
    85                          read_next_byte_at_z_pc_unsafe_middle_sub
    86                          !ifndef CMOS {
    87                          	ldy #0
    88                          	lda (z_pc_mempointer),y
    89                              ldy #76 ; SFTODO TO SEE IF IT MATTERS
    90                          } else {
    91                              lda (z_pc_mempointer)
    92                              ldy #76 ; SFTODO TO SEE IF IT MATTERS
    93                          }
    94                          	inc z_pc_mempointer ; Also increases z_pc
    95                          	beq ++
    96                          	rts
    97                          ++  ; This code is for the "unsafe" case. inc_z_pc_page would leave the first RAM
    98                              ; bank paged in to respect the default for this model, but that's not
    99                              ; appropriate here, so we use this variant instead.
   100                              jmp inc_z_pc_page_acorn_unsafe
   101                          
   102                          ; This is the normal "safe" version of the code, which pages in the relevant
   103                          ; bank temporarily and pages the first bank back in afterwards.
   104                          ; SF: This must preserve X, but it can corrupt Y; we don't need to return with Y=0.
   105                          read_next_byte_at_z_pc_sub
   106                              jsr restart_read_next_byte_at_z_pc_unsafe_sub
   107                          !ifndef CMOS {
   108                          	ldy #0
   109                          	lda (z_pc_mempointer),y
   110                              ldy #76 ; SFTODO TO SEE IF IT MATTERS
   111                          } else {
   112                              lda (z_pc_mempointer)
   113                              ldy #76 ; SFTODO TO SEE IF IT MATTERS
   114                          }
   115                              jsr finish_read_next_byte_at_z_pc_unsafe_sub
   116                          	inc z_pc_mempointer ; Also increases z_pc
   117                          	beq ++
   118                          	rts
   119                          ++  jmp inc_z_pc_page
   120                          
   121                          } else { ; not ACORN_SWR_BIG_DYNMEM
   122                          
   123                          ; SF: This must preserve X, but it can corrupt Y; we don't need to return with Y=0.
   124                          read_next_byte_at_z_pc_sub
   125                          !ifndef CMOS {
   126                          	ldy #0
   127                          	lda (z_pc_mempointer),y
   128                              ldy #76 ; SFTODO TO SEE IF IT MATTERS
   129                          } else {
   130                              lda (z_pc_mempointer)
   131                              ldy #76 ; SFTODO TO SEE IF IT MATTERS
   132                          }
   133                          	inc z_pc_mempointer ; Also increases z_pc
   134                          	beq ++
   135                          	rts
   136                          ++  jmp inc_z_pc_page
   137                          }
   138                          
   139                          !macro read_next_byte_at_z_pc {
   140                          	jsr read_next_byte_at_z_pc_sub
   141                          }
   142                          
   143                          !macro read_next_byte_at_z_pc_unsafe_start {
   144                          !ifndef ACORN_SWR_BIG_DYNMEM {
   145                              +read_next_byte_at_z_pc
   146                          } else {
   147                              jsr read_next_byte_at_z_pc_unsafe_start_sub
   148                          }
   149                          }
   150                          
   151                          !macro read_next_byte_at_z_pc_unsafe_middle {
   152                          !ifndef ACORN_SWR_BIG_DYNMEM {
   153                              +read_next_byte_at_z_pc
   154                          } else {
   155                              jsr read_next_byte_at_z_pc_unsafe_middle_sub
   156                          }
   157                          }
   158                          
   159                          !macro finish_read_next_byte_at_z_pc_unsafe {
   160                          !ifdef ACORN_SWR_BIG_DYNMEM {
   161                              jsr finish_read_next_byte_at_z_pc_unsafe_sub
   162                          }
   163                          }
   164                          
   165                          !macro restart_read_next_byte_at_z_pc_unsafe {
   166                          !ifdef ACORN_SWR_BIG_DYNMEM {
   167                              jsr restart_read_next_byte_at_z_pc_unsafe_sub
   168                          }
   169                          }
   170                          	
   171                          } else { ; not SLOW
   172                          !ifdef ACORN_SWR_BIG_DYNMEM {
   173                          ; See the SLOW code above for comments on the individual macros.
   174                          
   175                          !macro restart_read_next_byte_at_z_pc_unsafe {
   176                              +acorn_page_in_bank_using_y z_pc_mempointer_ram_bank
   177                          }
   178                          
   179                          !macro finish_read_next_byte_at_z_pc_unsafe {
   180                              +acorn_page_in_bank_using_y ram_bank_list
   181                          }
   182                          
   183                          ; SF: This must preserve X, but it can corrupt Y; we don't need to return with Y=0.
   184                          !macro read_next_byte_at_z_pc_unsafe_middle {
   185                          !ifndef CMOS {
   186                          	ldy #0
   187                          	lda (z_pc_mempointer),y
   188                          } else {
   189                              lda (z_pc_mempointer)
   190                          }
   191                          	inc z_pc_mempointer ; Also increases z_pc
   192                          	bne ++
   193                          	jsr inc_z_pc_page_acorn_unsafe
   194                          ++  ldy #76 ; SFTODO JUST TO PROVE IT'S OK
   195                          }
   196                          
   197                          ; SF: This must preserve X, but it can corrupt Y; we don't need to return with Y=0.
   198                          !macro read_next_byte_at_z_pc_unsafe_start {
   199                              +restart_read_next_byte_at_z_pc_unsafe
   200                              +read_next_byte_at_z_pc_unsafe_middle
   201                          }
   202                          
   203                          ; SF: This must preserve X, but it can corrupt Y; we don't need to return with Y=0.
   204                          !macro read_next_byte_at_z_pc {
   205                              +restart_read_next_byte_at_z_pc_unsafe
   206                          !ifndef CMOS {
   207                          	ldy #0
   208                          	lda (z_pc_mempointer),y
   209                          } else {
   210                              lda (z_pc_mempointer)
   211                          }
   212                              +finish_read_next_byte_at_z_pc_unsafe
   213                          	inc z_pc_mempointer ; Also increases z_pc
   214                          	bne ++
   215                          	jsr inc_z_pc_page
   216                          ++  ldy #76 ; SFTODO JUST TO PROVE IT'S OK
   217                          }
   218                          } else { ; not ACORN_SWR_BIG_DYNMEM
   219                          
   220                          ; SF: This must preserve X, but it can corrupt Y; we don't need to return with Y=0.
   221                          !macro read_next_byte_at_z_pc {
   222                          !ifndef CMOS {
   223                          	ldy #0
   224                          	lda (z_pc_mempointer),y
   225                          } else {
   226                              lda (z_pc_mempointer)
   227                          }
   228                          	inc z_pc_mempointer ; Also increases z_pc
   229                          	bne ++
   230                          	jsr inc_z_pc_page
   231                          ++  ldy #76 ; SFTODO JUST TO PROVE IT'S OK ldy #0
   232                          }
   233                          
   234                          !macro read_next_byte_at_z_pc_unsafe_start {
   235                              +read_next_byte_at_z_pc
   236                          }
   237                          
   238                          !macro read_next_byte_at_z_pc_unsafe_middle {
   239                              +read_next_byte_at_z_pc
   240                          }
   241                          
   242                          !macro finish_read_next_byte_at_z_pc_unsafe {
   243                          }
   244                          
   245                          !macro restart_read_next_byte_at_z_pc_unsafe {
   246                          }
   247                          
   248                          }
   249                          }	
   250                          
   251                          ERROR_UNSUPPORTED_STREAM = 1
   252                          ERROR_CONFIG = 2
   253                          ERROR_STREAM_NESTING_ERROR = 3
   254                          ERROR_FLOPPY_READ_ERROR = 4
   255                          ERROR_MEMORY_OVER_64KB = 5
   256                          ERROR_STACK_FULL = 6
   257                          ERROR_STACK_EMPTY = 7
   258                          ERROR_OPCODE_NOT_IMPLEMENTED = 8
   259                          ERROR_USED_NONEXISTENT_LOCAL_VAR = 9
   260                          ERROR_BAD_PROPERTY_LENGTH = 10
   261                          ERROR_UNSUPPORTED_STORY_VERSION = 11
   262                          ERROR_OUT_OF_MEMORY = 12
   263                          ERROR_WRITE_ABOVE_DYNMEM = 13
   264                          ERROR_READ_ABOVE_STATMEM = 14
   265                          ERROR_TOO_MANY_TERMINATORS = 15
   266                          ERROR_NO_VMEM_INDEX = 16
   267                          ERROR_DIVISION_BY_ZERO = 17
   268                          
   269                          !ifdef DEBUG {
   270                          !ifndef ACORN {
   271                          .error_unsupported_stream !pet "unsupported stream#",0
   272                          .error_config !pet "broken config",0
   273                          .error_stream_nesting_error !pet "stream nesting error",0
   274                          .error_floppy_read_error !pet "floppy read error", 0
   275                          .error_memory_over_64kb !pet "tried to access z-machine memory over 64kb", 0
   276                          .error_stack_full !pet "stack full",0
   277                          .error_stack_empty !pet "stack empty",0
   278                          .error_opcode_not_implemented !pet "opcode not implemented!",0
   279                          .error_used_nonexistent_local_var !pet "used non-existent local var",0
   280                          .error_bad_property_length !pet "bad property length", 0
   281                          .error_unsupported_story_version !pet "unsupported story version", 0
   282                          .error_out_of_memory !pet "out of memory", 0
   283                          .error_write_above_dynmem !pet "tried to write to non-dynamic memory", 0
   284                          .error_read_above_statmem !pet "tried to read from himem", 0
   285                          .error_too_many_terminators !pet "too many terminators", 0
   286                          .error_no_vmem_index !pet "no vmem index found", 0
   287                          .error_division_by_zero !pet "division by zero", 0
   288                          } else {
   289                          .error_unsupported_stream !text "unsupported stream#",0
   290                          .error_config !text "broken config",0
   291                          .error_stream_nesting_error !text "stream nesting error",0
   292                          .error_floppy_read_error !text "floppy read error", 0
   293                          .error_memory_over_64kb !text "tried to access z-machine memory over 64kb", 0
   294                          .error_stack_full !text "stack full",0
   295                          .error_stack_empty !text "stack empty",0
   296                          .error_opcode_not_implemented !text "opcode not implemented!",0
   297                          .error_used_nonexistent_local_var !text "used non-existent local var",0
   298                          .error_bad_property_length !text "bad property length", 0
   299                          .error_unsupported_story_version !text "unsupported story version", 0
   300                          .error_out_of_memory !text "out of memory", 0
   301                          .error_write_above_dynmem !text "tried to write to non-dynamic memory", 0
   302                          .error_read_above_statmem !text "tried to read from himem", 0
   303                          .error_too_many_terminators !text "too many terminators", 0
   304                          .error_no_vmem_index !text "no vmem index found", 0
   305                          .error_division_by_zero !text "division by zero", 0
   306                          }
   307                          
   308                          .error_message_high_arr
   309                              !byte >.error_unsupported_stream
   310                              !byte >.error_config
   311                              !byte >.error_stream_nesting_error
   312                              !byte >.error_floppy_read_error
   313                              !byte >.error_memory_over_64kb
   314                              !byte >.error_stack_full
   315                              !byte >.error_stack_empty
   316                              !byte >.error_opcode_not_implemented
   317                              !byte >.error_used_nonexistent_local_var
   318                              !byte >.error_bad_property_length
   319                              !byte >.error_unsupported_story_version
   320                              !byte >.error_out_of_memory
   321                              !byte >.error_write_above_dynmem
   322                              !byte >.error_read_above_statmem
   323                              !byte >.error_too_many_terminators
   324                              !byte >.error_no_vmem_index
   325                              !byte >.error_division_by_zero
   326                          
   327                          .error_message_low_arr
   328                              !byte <.error_unsupported_stream
   329                              !byte <.error_config
   330                              !byte <.error_stream_nesting_error
   331                              !byte <.error_floppy_read_error
   332                              !byte <.error_memory_over_64kb
   333                              !byte <.error_stack_full
   334                              !byte <.error_stack_empty
   335                              !byte <.error_opcode_not_implemented
   336                              !byte <.error_used_nonexistent_local_var
   337                              !byte <.error_bad_property_length
   338                              !byte <.error_unsupported_story_version
   339                              !byte <.error_out_of_memory
   340                              !byte <.error_write_above_dynmem
   341                              !byte <.error_read_above_statmem
   342                              !byte <.error_too_many_terminators
   343                              !byte <.error_no_vmem_index
   344                              !byte <.error_division_by_zero
   345                          }
   346                          
   347                          fatalerror
   348                              ; prints the error, then resets the computer
   349                              ; input: a (error code)
   350                              ; side effects: resets the computer
   351  2253 8573               	sta z_temp + 11
   352                          !ifndef DEBUG {
   353  2255 48                     pha
   354                          !ifndef ACORN {
   355                              +set_memory_normal
   356                          }
   357  2256 a022                   ldy #>.fatal_error_string
   358  2258 a96f               	lda #<.fatal_error_string
   359  225a 20cf22             	jsr printstring
   360  225d 68                     pla
   361  225e aa                     tax
   362  225f a900                   lda #0
   363  2261 207d22                 jsr printinteger
   364  2264 a90d                   lda #$0d
   365  2266 201d26                 jsr streams_print_output
   366  2269 207037                 jsr printchar_flush
   367                          !ifndef ACORN {
   368                              jsr kernal_readchar   ; read keyboard
   369                              jmp kernal_reset      ; reset
   370                          } else {
   371  226c 4c6c22             -   jmp -
   372                          }
   373  226f 464154414c204552....fatal_error_string !pet "fatal error: ",0
   374                          } else {
   375                              pha
   376                              jsr print_following_string
   377                          !ifndef ACORN {
   378                              !pet "fatal error ", 0
   379                          } else {
   380                              !text "fatal error ", 0
   381                          }
   382                              pla
   383                              tax
   384                              dex
   385                              jsr printa
   386                              jsr colon
   387                              jsr space
   388                              lda .error_message_high_arr,x
   389                              tay
   390                              lda .error_message_low_arr,x
   391                              jsr printstring
   392                              jsr newline
   393                              jsr print_trace
   394                              jsr printchar_flush
   395                          !ifndef ACORN {
   396                              jsr kernal_readchar   ; read keyboard
   397                              jmp kernal_reset      ; reset
   398                          } else {
   399                          -   jmp -
   400                          }
   401                          
   402                          .saved_a !byte 0
   403                          .saved_x !byte 0
   404                          .saved_y !byte 0
   405                          
   406                          space
   407                              ; subroutine: print space
   408                              ; input: 
   409                              ; output:
   410                              ; used registers:
   411                              ; side effects:
   412                              php
   413                              sta .saved_a
   414                              stx .saved_x
   415                              sty .saved_y
   416                              lda #$20
   417                              jsr streams_print_output
   418                              lda .saved_a
   419                              ldx .saved_x
   420                              ldy .saved_y
   421                              plp
   422                              rts
   423                          
   424                          comma
   425                              ; subroutine: print comma
   426                              ; input: 
   427                              ; output:
   428                              ; used registers:
   429                              ; side effects:
   430                              php
   431                              sta .saved_a
   432                              stx .saved_x
   433                              sty .saved_y
   434                              lda #44
   435                              jsr streams_print_output
   436                              lda .saved_a
   437                              ldx .saved_x
   438                              ldy .saved_y
   439                              plp
   440                              rts
   441                          
   442                          dollar
   443                              ; subroutine: print dollar
   444                              ; input: 
   445                              ; output:
   446                              ; used registers:
   447                              ; side effects:
   448                              php
   449                              sta .saved_a
   450                              stx .saved_x
   451                              sty .saved_y
   452                              lda #36
   453                              jsr printchar_buffered
   454                              lda .saved_a
   455                              ldx .saved_x
   456                              ldy .saved_y
   457                              plp
   458                              rts
   459                          
   460                          colon
   461                              ; subroutine: print colon
   462                              ; input: 
   463                              ; output:
   464                              ; used registers:
   465                              ; side effects:
   466                              php
   467                              sta .saved_a
   468                              stx .saved_x
   469                              sty .saved_y
   470                              lda #58
   471                              jsr streams_print_output
   472                              lda .saved_a
   473                              ldx .saved_x
   474                              ldy .saved_y
   475                              plp
   476                              rts
   477                          
   478                          arrow
   479                              ; subroutine: print ->
   480                              ; input: 
   481                              ; output:
   482                              ; used registers:
   483                              ; side effects:
   484                              php
   485                              sta .saved_a
   486                              stx .saved_x
   487                              sty .saved_y
   488                              lda #$2d
   489                              jsr streams_print_output
   490                              lda #$3e
   491                              jsr streams_print_output
   492                              lda .saved_a
   493                              ldx .saved_x
   494                              ldy .saved_y
   495                              plp
   496                              rts
   497                          
   498                          
   499                          newline
   500                              ; subroutine: print newline
   501                              ; input: 
   502                              ; output:
   503                              ; used registers:
   504                              ; side effects:
   505                              php
   506                              sta .saved_a
   507                              stx .saved_x
   508                              sty .saved_y
   509                              lda #$0d
   510                              jsr streams_print_output
   511                              lda .saved_a
   512                              ldx .saved_x
   513                              ldy .saved_y
   514                              plp
   515                              rts
   516                          
   517                          printx
   518                              ; subroutine: print value stored in x register
   519                              ; input: x
   520                              ; output:
   521                              ; used registers:
   522                              ; side effects:
   523                              php
   524                              sta .saved_a
   525                              stx .saved_x
   526                              sty .saved_y
   527                              lda #$00
   528                              jsr printinteger
   529                              lda .saved_a
   530                              ldx .saved_x
   531                              ldy .saved_y
   532                              plp
   533                              rts
   534                          
   535                          printy
   536                              ; subroutine: print value stored in y register
   537                              ; input: y
   538                              ; output:
   539                              ; used registers:
   540                              ; side effects:
   541                              php
   542                              sta .saved_a
   543                              stx .saved_x
   544                              sty .saved_y
   545                              tya
   546                              tax
   547                              lda #$00
   548                              jsr printinteger
   549                              lda .saved_a
   550                              ldx .saved_x
   551                              ldy .saved_y
   552                              plp
   553                              rts
   554                          
   555                          printa
   556                              ; subroutine: print value stored in a register
   557                              ; input: a
   558                              ; output:
   559                              ; used registers:
   560                              ; side effects:
   561                              php
   562                              sta .saved_a
   563                              stx .saved_x
   564                              sty .saved_y
   565                              tax
   566                              lda #$00
   567                              jsr printinteger
   568                              lda .saved_a
   569                              ldx .saved_x
   570                              ldy .saved_y
   571                              plp
   572                              rts
   573                          
   574                          pause
   575                              ; subroutine: print newline
   576                              ; input: 
   577                              ; output:
   578                              ; used registers:
   579                              ; side effects:
   580                              php
   581                              sta .saved_a
   582                              stx .saved_x
   583                              sty .saved_y
   584                              jsr print_following_string
   585                          !ifndef ACORN {
   586                          	!pet "[Intentional pause. Press ENTER.]",13,0
   587                          } else {
   588                          	!text "[Intentional pause. Press ENTER.]",13,0
   589                          }
   590                              jsr print_trace
   591                              jsr printchar_flush
   592                          !ifndef ACORN {
   593                              jsr kernal_readchar   ; read keyboard
   594                          } else {
   595                              jsr osrdch
   596                          }
   597                              lda .saved_a
   598                              ldx .saved_x
   599                              ldy .saved_y
   600                              plp
   601                              rts
   602                          
   603                          print_following_string
   604                              ; print text (implicit argument passing)
   605                              ; input: 
   606                              ; output:
   607                              ; used registers: a
   608                              ; side effects:
   609                          !zone {
   610                              ; usage:
   611                              ;    jsr print_following_string
   612                              ;    !pet "message",0
   613                              ; uses stack pointer to find start of text, then
   614                              ; updates the stack so that execution continues
   615                              ; directly after the end of the text
   616                          
   617                              ; store the return address
   618                              ; the address on stack is -1 before the first character
   619                              pla  ; remove LO for return address
   620                              sta .return_address + 1
   621                              pla  ; remove HI for return address
   622                              sta .return_address + 2
   623                          
   624                              ; print the string
   625                          -   inc .return_address + 1
   626                              bne .return_address
   627                              inc .return_address + 2
   628                          .return_address
   629                              lda $0000 ; self-modifying code (aaarg! but oh, so efficent)
   630                              beq +
   631                              jsr streams_print_output
   632                              jmp -
   633                          
   634                              ; put updated return address on stack
   635                          +   lda .return_address + 2
   636                              pha 
   637                              lda .return_address + 1
   638                              pha
   639                              rts
   640                          }
   641                          
   642                          print_trace
   643                          !ifdef TRACE {
   644                              jsr newline
   645                          	jsr print_following_string
   646                          !ifndef ACORN {
   647                          	!pet "last opcodes: (#, z_pc, opcode)",0
   648                          } else {
   649                          	!text "last opcodes: (#, z_pc, opcode)",0
   650                          }
   651                              jsr newline
   652                          	lda z_trace_index
   653                          	tay
   654                          	and #%11
   655                          	cmp #%11
   656                          	bne +
   657                          	jsr print_following_string
   658                          !ifndef ACORN {
   659                          	!pet "last opcode not stored (shown as $ee)",13,0
   660                          } else {
   661                          	!text "last opcode not stored (shown as $ee)",13,0
   662                          }
   663                          	lda #$ee
   664                          	sta z_trace_page,y
   665                          	iny
   666                          +	tya
   667                          	sec
   668                          	sbc #40
   669                          	tay
   670                          	ldx #0
   671                          .print_next_op	
   672                          	jsr printx
   673                          	jsr comma
   674                          	jsr dollar
   675                          	lda z_trace_page,y
   676                          	jsr print_byte_as_hex
   677                          	iny
   678                          	lda z_trace_page,y
   679                          	jsr print_byte_as_hex
   680                          	iny
   681                          	lda z_trace_page,y
   682                          	jsr print_byte_as_hex
   683                          	iny
   684                          	jsr comma
   685                          	jsr dollar
   686                          	lda z_trace_page,y
   687                          	jsr print_byte_as_hex
   688                          	jsr newline
   689                          	iny
   690                          	inx
   691                          	cpx #10
   692                          	bcc .print_next_op
   693                          	rts
   694                          } else {
   695                          	rts ; If TRACE is not enabled, there is no trace info to print
   696                          }
   697                          
   698                          print_byte_as_hex
   699                          	pha
   700                          	lda #$ff
   701                          	sta .print_bad_code_buffered
   702                          	pla
   703                          
   704                          ; Must be followed by print_byte_as_hex_primitive
   705                          
   706                          ; Must follow print_byte_as_hex
   707                          print_byte_as_hex_primitive
   708                          	stx .saved_x
   709                          	pha
   710                          	lsr
   711                          	lsr
   712                          	lsr
   713                          	lsr
   714                          	tax
   715                          	lda .hex_num,x
   716                          	jsr .print_byte_as_hex_one_char
   717                          	pla
   718                          	pha
   719                          	and #$0f
   720                          	tax
   721                          	lda .hex_num,x
   722                          	ldx .saved_x
   723                          	jsr .print_byte_as_hex_one_char
   724                          	pla
   725                          	rts
   726                          
   727                          print_bad_zscii_code_buffered
   728                          	pha
   729                          	lda #$80
   730                          	bne .print_bad_zscii_code_main ; Always branch
   731                          print_bad_zscii_code
   732                          	pha
   733                          	lda #0
   734                          .print_bad_zscii_code_main
   735                          	sta .print_bad_code_buffered
   736                          	lda #$2f ; "/"
   737                          	jsr .print_byte_as_hex_one_char
   738                          	pla
   739                          	pha
   740                          	jsr print_byte_as_hex_primitive
   741                          	lda #$2f ; "/"
   742                          	jsr .print_byte_as_hex_one_char
   743                          	pla
   744                          	rts
   745                          	
   746                          .print_byte_as_hex_one_char
   747                          	bit .print_bad_code_buffered
   748                          	bmi +
   749                          	jmp s_printchar
   750                          +	bvs +
   751                          	jmp printchar_buffered	
   752                          +	jmp streams_print_output
   753                          
   754                          .print_bad_code_buffered	!byte 0	; 0 = s_printchar, $80 = printchar_buffered, $ff = streams_print_output
   755                          .hex_num
   756                          !ifndef ACORN {
   757                          	!pet "0123456789abcdef"
   758                          } else {
   759                          	!text "0123456789abcdef"
   760                          }
   761                          } ; ifdef DBUG
   762                          
   763                          
   764                          
   765                          printinteger
   766                              ; subroutine: print 16 bit integer value
   767                              ; input: a,x (x = low, a = high);
   768                              ; output:
   769                              ; used registers: a, x, y
   770                              ; side effects:
   771                          !zone {
   772  227d 48                 	pha
   773  227e a001               	ldy #1
   774  2280 b91600             -	lda z_operand_value_high_arr,y
   775  2283 99bf22             	sta .temp,y
   776  2286 b91e00             	lda z_operand_value_low_arr,y
   777  2289 99c122             	sta .temp + 2,y
   778  228c 88                 	dey
   779  228d 10f1               	bpl -
   780  228f 68                 	pla
   781  2290 8516               	sta z_operand_value_high_arr
   782  2292 861e               	stx z_operand_value_low_arr
   783  2294 a00b                   ldy #11
   784  2296 b96800             -   lda z_temp,y
   785  2299 99c322                 sta .temp2,y
   786  229c 88                     dey
   787  229d 10f7                   bpl -
   788  229f 20fd32             	jsr print_num_unsigned
   789  22a2 a00b                   ldy #11
   790  22a4 b9c322             -   lda .temp2,y
   791  22a7 996800                 sta z_temp,y
   792  22aa 88                     dey
   793  22ab 10f7                   bpl -
   794  22ad a001               	ldy #1
   795  22af b9bf22             -	lda .temp,y
   796  22b2 991600             	sta z_operand_value_high_arr,y
   797  22b5 b9c122             	lda .temp + 2,y
   798  22b8 991e00             	sta z_operand_value_low_arr,y
   799  22bb 88                 	dey
   800  22bc 10f1               	bpl -
   801  22be 60                 	rts
   802                          .temp
   803  22bf 00000000           	!byte 0,0,0,0
   804                          .temp2
   805  22c3 0000000000000000...    !fill 12 ; for saving z_temp
   806                          }
   807                          
   808                          printstring
   809                              ; input: a,y (lo/hi)
   810                              ; output:
   811                              ; used registers:
   812                              ; side effects:
   813                          !zone {
   814  22cf 8dd822                 sta .loop+1
   815  22d2 8cd922                 sty .loop+2
   816  22d5 a000                   ldy #0
   817                          .loop
   818  22d7 b90080                 lda $8000,y
   819  22da f006                   beq +
   820  22dc 201d26                 jsr streams_print_output
   821  22df c8                     iny
   822  22e0 d0f5                   bne .loop
   823  22e2 60                 +   rts
   824                          }
   825                          
   826                          !ifdef VMEM {
   827                          !ifndef ACORN {
   828                          conv2dec
   829                              ; convert a to decimal in x,a
   830                              ; for example a=#$0f -> x='1', a='5'
   831                              ldx #$30 ; store '0' in x
   832                          -   cmp #10
   833                              bcc +    ; a < 10
   834                              inx
   835                              sec
   836                              sbc #10
   837                              jmp -
   838                          +   adc #$30
   839                              rts
   840                          }
   841                          }
   842                          
   843                          mult16
   844                              ;16-bit multiply with 32-bit product
   845                              ;http://codebase64.org/doku.php?id=base:16bit_multiplication_32-bit_product
   846  22e3 a900                   lda #$00
   847  22e5 8d1c23                 sta product+2 ; clear upper bits of product
   848  22e8 8d1d23                 sta product+3 
   849  22eb a210                   ldx #$10 ; set binary count to 16 
   850                          shift_r
   851  22ed 4e1723                 lsr multiplier+1 ; divide multiplier by 2 
   852  22f0 6e1623                 ror multiplier
   853  22f3 9010                   bcc rotate_r 
   854  22f5 ad1c23                 lda product+2 ; get upper half of product and add multiplicand
   855  22f8 18                     clc
   856  22f9 6d1823                 adc multiplicand
   857  22fc 8d1c23                 sta product+2
   858  22ff ad1d23                 lda product+3 
   859  2302 6d1923                 adc multiplicand+1
   860                          rotate_r
   861  2305 6a                     ror ; rotate partial product 
   862  2306 8d1d23                 sta product+3 
   863  2309 6e1c23                 ror product+2
   864  230c 6e1b23                 ror product+1 
   865  230f 6e1a23                 ror product 
   866  2312 ca                     dex
   867  2313 d0d8                   bne shift_r 
   868  2315 60                     rts
   869                              ;SFTODODATA 8
   870                          multiplier
   871                          divisor
   872  2316 0000               	!byte 0, 0
   873                          multiplicand
   874                          dividend
   875                          division_result
   876  2318 0000               	!byte 0, 0
   877                          product
   878                          remainder 
   879  231a 00000000           	!byte 0 ,0 ,0 ,0
   880                          
   881                          ; divisor = $58     ;$59 used for hi-byte
   882                          ; dividend = $fb	  ;$fc used for hi-byte
   883                          ; remainder = $fd	  ;$fe used for hi-byte
   884                          ; result = dividend ;save memory by reusing divident to store the result
   885                          
   886                          !zone {
   887                          divide16	
   888  231e a900               	lda #0	        ;preset remainder to 0
   889  2320 8d1a23             	sta remainder
   890  2323 8d1b23             	sta remainder + 1
   891  2326 a210               	ldx #16	        ;repeat for each bit: ...
   892                          .divloop
   893  2328 0e1823             	asl dividend	;dividend lb & hb*2, msb -> Carry
   894  232b 2e1923             	rol dividend + 1	
   895  232e 2e1a23             	rol remainder	;remainder lb & hb * 2 + msb from carry
   896  2331 2e1b23             	rol remainder + 1
   897  2334 ad1a23             	lda remainder
   898  2337 38                 	sec
   899  2338 ed1623             	sbc divisor	;substract divisor to see if it fits in
   900  233b a8                 	tay	        ;lb result -> Y, for we may need it later
   901  233c ad1b23             	lda remainder + 1
   902  233f ed1723             	sbc divisor+1
   903  2342 9009               	bcc .skip	;if carry=0 then divisor didn't fit in yet
   904                          
   905  2344 8d1b23             	sta remainder + 1	;else save subtraction result as new remainder,
   906  2347 8c1a23             	sty remainder
   907  234a ee1823             	inc division_result	;and INCrement result cause divisor fit in 1 times
   908                          .skip
   909  234d ca                 	dex
   910  234e d0d8               	bne .divloop
   911  2350 60                 	rts
   912                          }
   913                          
   914                          ; These macros are called at strategically chosen points where it might be
   915                          ; appropriate to insert the screen hole for ACORN_NO_SHADOW builds. To minimise
   916                          ; clutter they aren't protected by !ifndef everywhere they occur; on all other
   917                          ; builds (including non-Acorn builds) they are just defined here as no-ops.
   918                          !ifndef ACORN_NO_SHADOW {
   919                          !macro make_acorn_screen_hole {
   920                              ; no-op
   921                          }
   922                          !macro make_acorn_screen_hole_jmp {
   923                              ; no-op
   924                          }
   925                          !macro make_acorn_screen_hole_before_stack {
   926                              ; no-op
   927                          }
   928                          }
   929                          
   930                          ; screen update routines

; ******** Source: ozmoo.asm
   218                          

; ******** Source: screenkernal.asm
     1                          ; replacement for these C64 kernal routines and their variables:
     2                          ; printchar $ffd2
     3                          ; plot      $fff0
     4                          ; zp_cursorswitch $cc
     5                          ; zp_screenline $d1-$d2
     6                          ; zp_screencolumn $d3
     7                          ; zp_screenrow $d6
     8                          ; zp_colourline $f3-$f4
     9                          ;
    10                          ; needed to be able to customize the text scrolling to
    11                          ; not include status lines, especially big ones used in
    12                          ; Border Zone, and Nord and Bert.
    13                          ;
    14                          ; usage: first call s_init, then replace
    15                          ; $ffd2 with s_printchar and so on.
    16                          ; s_scrollstart is set to the number of top lines to keep when scrolling
    17                          ;
    18                          ; Uncomment TESTSCREEN and call testscreen for a demo.
    19                          
    20                          ;TESTSCREEN = 1
    21                          
    22                          ; SF: s_printchar should be used for virtually all text output. This way it can
    23                          ; update zp_screen{column,row} to match what it has sent to OSWRCH and they will
    24                          ; agree with the OS text cursor position. If zp_screen{column,row} are modified
    25                          ; without moving the OS text cursor or vice versa, setting
    26                          ; s_cursors_inconsistent to a non-0 value will cause the OS cursor to be moved
    27                          ; the next time it matters (when we try to print something via OSWRCH, or when
    28                          ; the OS cursor becomes visible to the user).
    29                          
    30                          !zone screenkernal {
    31                          
    32                          ; The Commodore 64 and one Acorn build have a fixed screen size while other
    33                          ; Acorn builds have a variable screen size. We don't want to penalise the
    34                          ; former so we use these macros which assemble using either immediate values
    35                          ; or memory accesses as appropriate.
    36                          
    37                          !ifndef ACORN {
    38                              FIXED_SCREEN_SIZE = 1
    39                          } else {
    40                              !ifdef ACORN_NO_SHADOW {
    41                                  FIXED_SCREEN_SIZE = 1
    42                              }
    43                          }
    44                          
    45                          !ifdef FIXED_SCREEN_SIZE {
    46                          !ifdef Z3 {
    47                          max_lines = 24
    48                          } else {
    49                          max_lines = 25
    50                          }
    51                          } else {
    52                          !ifdef Z3 {
    53                          max_lines = screen_height_minus_1
    54                          } else {
    55                          max_lines = screen_height
    56                          }
    57                          }
    58                          
    59                          !macro cmp_screen_height {
    60                              !ifdef FIXED_SCREEN_SIZE {
    61                                  cmp #25
    62                              } else {
    63                                  cmp screen_height
    64                              }
    65                          }
    66                          !macro cmp_screen_width {
    67                              !ifdef FIXED_SCREEN_SIZE {
    68                                  cmp #40
    69                              } else {
    70                                  cmp screen_width
    71                              }
    72                          }
    73                          !macro cpx_screen_height {
    74                              !ifdef FIXED_SCREEN_SIZE {
    75                                  cpx #25
    76                              } else {
    77                                  cpx screen_height
    78                              }
    79                          }
    80                          !macro cpx_screen_width {
    81                              !ifdef FIXED_SCREEN_SIZE {
    82                                  cpx #40
    83                              } else {
    84                                  cpx screen_width
    85                              }
    86                          }
    87                          !macro cpx_max_lines {
    88                              !ifdef FIXED_SCREEN_SIZE {
    89                                  cpx #max_lines
    90                              } else {
    91                                  cpx max_lines
    92                              }
    93                          }
    94                          !macro cpy_screen_width {
    95                              !ifdef FIXED_SCREEN_SIZE {
    96                                  cpy #40
    97                              } else {
    98                                  cpy screen_width
    99                              }
   100                          }
   101                          !macro cpy_screen_width_plus_1 {
   102                              !ifdef FIXED_SCREEN_SIZE {
   103                                  cpy #41
   104                              } else {
   105                                  cpy screen_width_plus_1
   106                              }
   107                          }
   108                          !macro lda_screen_height_minus_1 {
   109                              !ifdef FIXED_SCREEN_SIZE {
   110                                  lda #24
   111                              } else {
   112                                  lda screen_height_minus_1
   113                              }
   114                          }
   115                          !macro lda_screen_height {
   116                              !ifdef FIXED_SCREEN_SIZE {
   117                                  lda #25
   118                              } else {
   119                                  lda screen_height
   120                              }
   121                          }
   122                          !macro lda_screen_width_minus_1 {
   123                              !ifdef FIXED_SCREEN_SIZE {
   124                                  lda #39
   125                              } else {
   126                                  lda screen_width_minus_1
   127                              }
   128                          }
   129                          !macro ldx_screen_width_minus_1 {
   130                              !ifdef FIXED_SCREEN_SIZE {
   131                                  ldx #39
   132                              } else {
   133                                  ldx screen_width_minus_1
   134                              }
   135                          }
   136                          !macro lda_screen_width {
   137                              !ifdef FIXED_SCREEN_SIZE {
   138                                  lda #40
   139                              } else {
   140                                  lda screen_width
   141                              }
   142                          }
   143                          !macro ldx_max_lines {
   144                              !ifdef FIXED_SCREEN_SIZE {
   145                                  ldx #max_lines
   146                              } else {
   147                                  ldx max_lines
   148                              }
   149                          }
   150                          !macro ldx_screen_height_minus_1 {
   151                              !ifdef FIXED_SCREEN_SIZE {
   152                                  ldx #24
   153                              } else {
   154                                  ldx screen_height_minus_1
   155                              }
   156                          }
   157                          !macro ldx_screen_width {
   158                              !ifdef FIXED_SCREEN_SIZE {
   159                                  ldx #40
   160                              } else {
   161                                  ldx screen_width
   162                              }
   163                          }
   164                          !macro ldy_screen_height_minus_1 {
   165                              !ifdef FIXED_SCREEN_SIZE {
   166                                  ldy #24
   167                              } else {
   168                                  ldy screen_height_minus_1
   169                              }
   170                          }
   171                          !macro ldy_screen_height {
   172                              !ifdef FIXED_SCREEN_SIZE {
   173                                  ldy #25
   174                              } else {
   175                                  ldy screen_height
   176                              }
   177                          }
   178                          !macro ldy_screen_width {
   179                              !ifdef FIXED_SCREEN_SIZE {
   180                                  ldy #40
   181                              } else {
   182                                  ldy screen_width
   183                              }
   184                          }
   185                          
   186                          !ifndef ACORN {
   187                          s_init
   188                              ; init cursor
   189                              lda #$ff
   190                              sta s_current_screenpos_row ; force recalculation first time
   191                          
   192                              lda #0
   193                              sta zp_screencolumn
   194                              sta zp_screenrow
   195                          	; Set to 0: s_ignore_next_linebreak, s_reverse
   196                              ldx #3
   197                          -	sta s_ignore_next_linebreak,x
   198                          	dex
   199                          	bpl -
   200                              rts
   201                          } else {
   202                          !macro screenkernal_init_inline {
   203                          !ifndef ACORN_NO_SHADOW {
   204                              ; story_start + header_screen_{width,height}* are only valid for certain
   205                              ; Z-machine versions. We don't want to be querying the OS for these values all
   206                              ; the time, so we keep them here.
   207                              lda #osbyte_read_vdu_variable
   208                              ldx #vdu_variable_text_window_bottom
   209                              jsr osbyte
   210                              stx screen_height_minus_1
   211                              inx
   212                              stx screen_height
   213                              sty screen_width_minus_1
   214                              iny
   215                              sty screen_width
   216                              iny
   217                              sty screen_width_plus_1
   218                          }
   219                          
   220                              ; Pick up the current OS cursor position; this will improve readability if
   221                              ; any errors occuring during initialization, and it doesn't affect the game
   222                              ; because deletable_screen_init_2 calls set_cursor anyway.
   223                              lda #osbyte_read_cursor_position
   224                              sta s_cursors_inconsistent
   225                              jsr osbyte
   226                              stx zp_screencolumn
   227                              sty zp_screenrow
   228                          	; Set to 0: s_ignore_next_linebreak, s_reverse, s_os_reverse
   229                              lda #0
   230                              ldx #4 ; also s_os_reverse
   231                          -	sta s_ignore_next_linebreak,x
   232                          	dex
   233                          	bpl -
   234                          
   235                              ; If we didn't change mode after a restart, we may have been left with the
   236                              ; OS colours set to reverse video. Force the OS settings to normal video so
   237                              ; they agree with s_os_reverse.
   238                              jsr force_set_os_normal_video
   239                          }
   240                          }
   241                          
   242                          s_plot
   243                              ; y=column (0-39)
   244                              ; x=row (0-24)
   245  2351 9005                   bcc .set_cursor_pos
   246                              ; get_cursor
   247  2353 a68f                   ldx zp_screenrow
   248  2355 a48e                   ldy zp_screencolumn
   249  2357 60                     rts
   250                          .set_cursor_pos
   251                          !ifndef ACORN {
   252                          +	cpx #25
   253                          	bcc +
   254                          	ldx #24
   255                          } else {
   256  2358 e019               +	+cpx_screen_height
   257  235a 9002               	bcc +
   258  235c a218               	+ldx_screen_height_minus_1
   259                          }
   260  235e 868f               +	stx zp_screenrow
   261  2360 848e               	sty zp_screencolumn
   262                          !ifndef ACORN {
   263                          	jmp .update_screenpos
   264                          } else {
   265  2362 a901                   lda #1
   266  2364 8534                   sta s_cursors_inconsistent
   267                          .return
   268  2366 60                     rts
   269                          }
   270                          
   271                          !ifndef ACORN {
   272                          s_set_text_colour
   273                          	sta s_colour
   274                          	rts
   275                          }
   276                          
   277                          !ifndef ACORN {
   278                          s_delete_cursor
   279                          	lda #$20 ; blank space
   280                          	ldy zp_screencolumn
   281                          	sta (zp_screenline),y
   282                          	rts
   283                          }
   284                          
   285                          !ifdef ACORN {
   286                          !ifdef MODE_7_STATUS {
   287                          !ifdef Z4PLUS {
   288                          ; Return with Z clear iff the cursor is on a mode 7 status line
   289                          ; Preserves A and X.
   290                          .check_if_mode_7_status
   291  2367 a48f                   ldy zp_screenrow
   292  2369 d00a                   bne .check_if_mode_7_status2_rts
   293                          .check_if_mode_7_status2
   294  236b a481                   ldy window_start_row + 1 ; how many top lines to protect
   295  236d 88                     dey
   296  236e d005                   bne .check_if_mode_7_status2_rts
   297  2370 ac0b04                 ldy screen_mode
   298  2373 c007                   cpy #7
   299                          .check_if_mode_7_status2_rts
   300  2375 60                     rts
   301                          
   302                          check_and_add_mode_7_colour_code
   303  2376 206b23                 jsr .check_if_mode_7_status2
   304  2379 d0fa                   bne .check_if_mode_7_status2_rts
   305                              ; fall through to .output_mode_7_colour_code
   306                          }
   307                          
   308                          .output_mode_7_colour_code
   309  237b a91e                   lda #vdu_home
   310  237d 8534                   sta s_cursors_inconsistent
   311  237f 20eeff                 jsr oswrch
   312  2382 18                     clc
   313  2383 ad0904                 lda fg_colour
   314  2386 6980                   adc #mode_7_text_colour_base
   315  2388 4ceeff                 jmp oswrch
   316                          }
   317                          
   318                          s_cursor_to_screenrowcolumn
   319  238b a534                   lda s_cursors_inconsistent
   320                          !ifndef DEBUG_CURSOR {
   321  238d f0d7                   beq .return
   322                          } else {
   323                              beq .check_cursor
   324                          }
   325  238f a900                   lda #0
   326  2391 8534                   sta s_cursors_inconsistent
   327  2393 a68e                   ldx zp_screencolumn
   328                          !ifdef MODE_7_STATUS {
   329                          !ifdef Z4PLUS {
   330  2395 206723                 jsr .check_if_mode_7_status
   331  2398 d001                   bne +
   332  239a e8                     inx
   333                          +
   334                          }
   335                          }
   336  239b a48f                   ldy zp_screenrow
   337  239d 4c4622                 jmp do_oswrch_vdu_goto_xy
   338                          !ifdef DEBUG_CURSOR {
   339                          .check_cursor
   340                              txa
   341                              pha
   342                              tya
   343                              pha
   344                              lda #osbyte_read_cursor_position
   345                              jsr osbyte
   346                              cpx zp_screencolumn
   347                              beq +
   348                          -   jmp -
   349                          +   cpy zp_screenrow
   350                              beq +
   351                          -   jmp -
   352                          +   pla
   353                              tay
   354                              pla
   355                              tax
   356                              rts
   357                          }
   358                          
   359                          s_screenrowcolumn_from_cursor
   360  23a0 a9a0                   lda #osbyte_read_vdu_variable
   361  23a2 8534                   sta s_cursors_inconsistent
   362  23a4 a20b                   ldx #vdu_variable_text_window_top
   363  23a6 20f4ff                 jsr osbyte
   364  23a9 868f                   stx zp_screenrow
   365  23ab a986                   lda #osbyte_read_cursor_position
   366  23ad 20f4ff                 jsr osbyte
   367  23b0 868e                   stx zp_screencolumn
   368  23b2 98                     tya
   369  23b3 18                     clc
   370  23b4 658f                   adc zp_screenrow
   371  23b6 858f                   sta zp_screenrow
   372                          .rts
   373  23b8 60                     rts
   374                          
   375                          s_reverse_to_os_reverse
   376  23b9 a587                   lda s_reverse
   377  23bb d012                   bne set_os_reverse_video
   378                              ; fall through to set_os_normal_video
   379                          
   380                          set_os_normal_video
   381  23bd a588                   lda s_os_reverse
   382  23bf f0f7                   beq .rts
   383                          force_set_os_normal_video
   384  23c1 a900                   lda #0
   385  23c3 8588                   sta s_os_reverse
   386  23c5 a907                   lda #7
   387  23c7 20de23                 jsr .set_tcol
   388  23ca a980                   lda #128
   389  23cc 4cde23                 jmp .set_tcol
   390                          
   391                          set_os_reverse_video
   392  23cf a588                   lda s_os_reverse
   393  23d1 d0e5                   bne .rts
   394  23d3 a980                   lda #$80
   395  23d5 8588                   sta s_os_reverse
   396  23d7 a900                   lda #0
   397  23d9 20de23                 jsr .set_tcol
   398  23dc a987                   lda #135
   399                              ; jmp .set_tcol - just fall through
   400                          
   401                          .set_tcol
   402  23de 48                     pha
   403  23df a911                   lda #vdu_set_text_colour
   404  23e1 20eeff                 jsr oswrch
   405  23e4 68                     pla
   406  23e5 4ceeff                 jmp oswrch
   407                          }
   408                          
   409                          s_printchar
   410                              ; replacement for CHROUT ($ffd2)
   411                              ; input: A = byte to write (PETASCII) [SF: ASCII not PETASCII on Acorn]
   412                              ; output: -
   413                              ; used registers: -
   414  23e8 8e0104                 stx s_stored_x
   415  23eb 8c0204                 sty s_stored_y
   416                          
   417                          	; Fastlane for the most common characters
   418  23ee c920               	cmp #$20
   419  23f0 9008               	bcc +
   420                          !ifndef ACORN {
   421                          	cmp #$80
   422                          } else {
   423  23f2 c97f                   cmp #$7f
   424                          }
   425  23f4 9032               	bcc .normal_char
   426  23f6 c9a0               	cmp #$a0
   427  23f8 b02e               	bcs .normal_char
   428                          +	
   429  23fa c90d               	cmp #$0d
   430  23fc d003                   bne +
   431                          	; newline
   432                          !ifndef ACORN {
   433                          	; but first, check if the current character is the cursor so that we may delete it
   434                          	lda cursor_character
   435                          	ldy zp_screencolumn
   436                          	cmp (zp_screenline),y
   437                          	bne +++
   438                          	jsr s_delete_cursor
   439                          }
   440  23fe 4ca924             +++	jmp .perform_newline
   441                          +   
   442                              ; SF: Note that .readkey will call s_printchar with the native delete
   443                              ; character.
   444                          !ifndef ACORN {
   445                              cmp #20
   446                          } else {
   447  2401 c97f                   cmp #127
   448                          }
   449  2403 d020                   bne +
   450                              ; delete
   451                          !ifndef ACORN {
   452                              jsr s_delete_cursor
   453                              dec zp_screencolumn ; move back
   454                              bpl ++
   455                          	inc zp_screencolumn ; Go back to 0 if < 0
   456                          	lda zp_screenrow
   457                          	ldy current_window
   458                          	cmp window_start_row + 1,y
   459                          	bcc ++
   460                          	dec zp_screenrow
   461                          	lda #39
   462                          	sta zp_screencolumn
   463                          ++  jsr .update_screenpos
   464                              lda #$20
   465                              ldy zp_screencolumn
   466                              sta (zp_screenline),y
   467                              lda s_colour
   468                              sta (zp_colourline),y
   469                          } else {
   470  2405 208b23                 jsr s_cursor_to_screenrowcolumn
   471  2408 20b923                 jsr s_reverse_to_os_reverse
   472  240b a97f                   lda #127
   473  240d 20eeff                 jsr oswrch
   474  2410 c68e                   dec zp_screencolumn ; move back
   475  2412 1011                   bpl ++
   476  2414 e68e               	inc zp_screencolumn ; Go back to 0 if < 0
   477  2416 a58f               	lda zp_screenrow
   478  2418 a474               	ldy current_window
   479  241a d98100             	cmp window_start_row + 1,y
   480  241d 9006               	bcc ++
   481  241f c68f               	dec zp_screenrow
   482  2421 a927               	+lda_screen_width_minus_1
   483  2423 858e               	sta zp_screencolumn
   484                          ++
   485                          }
   486                          !ifdef ACORN {
   487                              ; We don't have any reverse video handling here on Acorn as noted below, so
   488                              ; we move the + label forward so anything which hasn't matched yet is
   489                              ; ignored.
   490                          +
   491                          }
   492  2425 4c8d24                 jmp .printchar_end
   493                          +
   494                              ; SF: Reverse video isn't handled by sending control codes through
   495                              ; s_printchar on the Acorn. (It could be, but it seems simplest just to
   496                              ; update s_reverse directly. This is a bit gratuitously incompatible with
   497                              ; the Commodore though.)
   498                          !ifndef ACORN {
   499                              cmp #$93 
   500                              bne +
   501                              ; clr (clear screen)
   502                              lda #0
   503                              sta zp_screencolumn
   504                              sta zp_screenrow
   505                              jsr s_erase_window
   506                              jmp .printchar_end
   507                          +   cmp #$12 ; 18
   508                              bne +
   509                              ; reverse on
   510                              ldx #$80
   511                              stx s_reverse
   512                              jmp .printchar_end
   513                          +   cmp #$92 ; 146
   514                              bne .printchar_end
   515                              ; reverse off
   516                              ldx #0
   517                              stx s_reverse
   518                              beq .printchar_end ; Always jump
   519                          }
   520                          ; +
   521                          	; ; check if colour code
   522                          	; ldx #15
   523                          ; -	cmp colours,x
   524                          	; beq ++
   525                          	; dex
   526                          	; bpl -
   527                          	; bmi .printchar_end ; Always branch
   528                          ; ++	; colour <x> found
   529                          	; stx s_colour
   530                          	; beq .printchar_end ; Always jump
   531                          	
   532                          .normal_char
   533  2428 a68e               	ldx zp_screencolumn
   534  242a 1005               	bpl +
   535                          	; Negative column. Increase column but don't print anything.
   536  242c e68e               	inc zp_screencolumn
   537  242e 4c8d24             	jmp .printchar_end
   538                          +	; Skip if column > 39
   539                          !ifdef MODE_7_STATUS {
   540                          !ifdef Z4PLUS {
   541  2431 206723                 jsr .check_if_mode_7_status
   542  2434 d004                   bne +
   543  2436 e027                   cpx #39
   544  2438 b002                   bcs .printchar_end_bcs
   545                          +
   546                          }
   547                          }
   548  243a e028                   +cpx_screen_width
   549                          .printchar_end_bcs
   550  243c b04f               	bcs .printchar_end
   551                          !ifdef ACORN_HW_SCROLL {
   552                              ldy zp_screenrow
   553                              bne +
   554                              sta .top_line_buffer,x
   555                              lda s_reverse
   556                              sta .top_line_buffer_reverse,x
   557                              lda .top_line_buffer,x
   558                          +
   559                          }
   560                          	; Reset ignore next linebreak setting
   561  243e a674               	ldx current_window
   562  2440 b484               	ldy s_ignore_next_linebreak,x
   563  2442 1002               	bpl +
   564  2444 f684               	inc s_ignore_next_linebreak,x
   565                          	; Check if statusline is overflowing TODO: Do we really need to check any more?
   566  2446 48                 +	pha
   567  2447 a58f               	lda zp_screenrow
   568  2449 a474               	ldy current_window 
   569  244b d98000             	cmp window_start_row,y
   570  244e 68                 	pla ; Doesn't affect C
   571  244f b043               	bcs .outside_current_window
   572                          .resume_printing_normal_char	
   573                          !ifndef ACORN {
   574                             ; convert from pet ascii to screen code
   575                          	cmp #$40
   576                          	bcc ++    ; no change if numbers or special chars
   577                          	cmp #$60
   578                          	bcs +
   579                          	and #%00111111
   580                          	bcc ++ ; always jump
   581                          +   cmp #$80
   582                              bcs +
   583                          	and #%11011111
   584                              bcc ++ ; always jump
   585                          +	cmp #$c0
   586                          	bcs +
   587                          	eor #%11000000
   588                          +	and #%01111111
   589                          ++  ; print the char
   590                              clc
   591                              adc s_reverse
   592                              pha
   593                              jsr .update_screenpos
   594                              pla
   595                              ldy zp_screencolumn
   596                              sta (zp_screenline),y
   597                              lda s_colour
   598                              sta (zp_colourline),y
   599                              iny
   600                              sty zp_screencolumn
   601                          	ldx current_window
   602                          	bne .printchar_end ; For upper window and statusline (in z3), don't advance to next line.
   603                              cpy #40
   604                              bcc .printchar_end
   605                          	dec s_ignore_next_linebreak,x ; Goes from 0 to $ff
   606                              lda #0
   607                              sta zp_screencolumn
   608                              inc zp_screenrow
   609                          	lda zp_screenrow
   610                          	cmp #25
   611                          	bcs +
   612                          	jsr .update_screenpos
   613                          	jmp .printchar_end
   614                          +	jsr .s_scroll
   615                          } else { ; ACORN
   616                              ; OSWRCH may cause the screen to scroll if we're at the bottom right
   617                              ; character. We therefore don't use .s_scroll to do the scroll, we just
   618                              ; define a text window to tell the OS what to scroll.
   619                          
   620  2451 48                     pha
   621  2452 208b23                 jsr s_cursor_to_screenrowcolumn
   622  2455 20b923                 jsr s_reverse_to_os_reverse
   623  2458 a48e                   ldy zp_screencolumn
   624  245a c8                     iny
   625  245b 848e                   sty zp_screencolumn
   626  245d a674               	ldx current_window
   627  245f d025               	bne .printchar_nowrap ; For upper window and statusline (in z3), don't advance to next line.
   628  2461 c028                   +cpy_screen_width
   629  2463 9021                   bcc .printchar_nowrap
   630  2465 d684               	dec s_ignore_next_linebreak,x ; Goes from 0 to $ff
   631  2467 a900                   lda #0
   632  2469 858e                   sta zp_screencolumn
   633  246b e68f                   inc zp_screenrow
   634  246d a58f               	lda zp_screenrow
   635  246f c919               	+cmp_screen_height
   636  2471 9013               	bcc .printchar_nowrap
   637                          !ifdef ACORN_HW_SCROLL {
   638                              lda use_hw_scroll
   639                              beq .no_hw_scroll0
   640                              +lda_screen_height_minus_1
   641                              sta zp_screenrow ; s_pre_scroll normally does this but we may not call it
   642                              ldx window_start_row + 1 ; how many top lines to protect
   643                              dex
   644                              beq .no_pre_scroll
   645                          .no_hw_scroll0
   646                          }
   647                              ; C is already set
   648  2473 201125                 jsr s_pre_scroll
   649                          .no_pre_scroll
   650  2476 68                     pla
   651  2477 20eeff                 jsr oswrch
   652  247a a587                   lda s_reverse
   653  247c f003                   beq .not_reverse
   654                              ; Reverse video is on and the character we just output has caused the text
   655                              ; window to scroll, so the OS will have added a blank line in reverse video.
   656                              ; The Z-machine spec requires the blank line to be in normal video, so we
   657                              ; need to fix this up.
   658  247e 20e224                 jsr s_erase_line_from_cursor
   659                          .not_reverse
   660                          !ifdef ACORN_HW_SCROLL {
   661                              ldx window_start_row + 1 ; how many top lines to protect
   662                              dex
   663                              bne .no_hw_scroll1
   664                              lda use_hw_scroll
   665                              beq .no_hw_scroll1
   666                              jsr .redraw_top_line
   667                              jmp .printchar_oswrch_done
   668                          .no_hw_scroll1
   669                          }
   670  2481 a91a                   lda #vdu_reset_text_window
   671  2483 8534                   sta s_cursors_inconsistent ; vdu_reset_text_window moves cursor to home
   672  2485 48                     pha
   673                          .printchar_nowrap
   674  2486 68                     pla
   675                              ; This OSWRCH call is the one which actually prints most of the text on the
   676                              ; screen.
   677  2487 20eeff                 jsr oswrch
   678                          .printchar_oswrch_done
   679                              ; Force the OS text cursor to move if necessary; normally it would be
   680                              ; invisible at this point, but TerpEtude's "Timed full-line input" test can
   681                              ; leave the OS text cursor visible at the top left if you type a character
   682                              ; in the rightmost column and then wait for the timed mwessage to appear.
   683  248a 208b23                 jsr s_cursor_to_screenrowcolumn
   684                          }
   685                          .printchar_end
   686  248d ae0104                 ldx s_stored_x
   687  2490 ac0204                 ldy s_stored_y
   688  2493 60                     rts
   689                          
   690                          .outside_current_window
   691                          !ifdef Z4 {
   692                          	jmp .printchar_end
   693                          } else {
   694  2494 c001               	cpy #1
   695  2496 d0f5               	bne .printchar_end
   696                          	; This is window 1. Expand it if possible.
   697  2498 a48f               	ldy zp_screenrow
   698  249a c480               	cpy window_start_row ; Compare to end of screen (window 0)
   699  249c b0ef               	bcs .printchar_end
   700  249e c8                 	iny
   701  249f 8481               	sty window_start_row + 1
   702                          	; Move lower window cursor if it gets hidden by upper window
   703  24a1 c47a               	cpy cursor_row
   704  24a3 90ac               	bcc .resume_printing_normal_char
   705  24a5 847a               	sty cursor_row
   706  24a7 b0a8               	bcs .resume_printing_normal_char ; Always branch
   707                          }
   708                          
   709                          .perform_newline
   710                              ; newline/enter/return
   711                          	; Check ignore next linebreak setting
   712  24a9 a674               	ldx current_window
   713  24ab b484               	ldy s_ignore_next_linebreak,x
   714  24ad 1005               	bpl +
   715  24af f684               	inc s_ignore_next_linebreak,x
   716  24b1 4c8d24             	jmp .printchar_end
   717  24b4 a900               +   lda #0
   718  24b6 858e                   sta zp_screencolumn
   719  24b8 e68f                   inc zp_screenrow
   720  24ba 20c424                 jsr .s_scroll
   721                          !ifndef ACORN {
   722                              jsr .update_screenpos
   723                          } else {
   724  24bd a901                   lda #1
   725  24bf 8534                   sta s_cursors_inconsistent
   726                          }
   727  24c1 4c8d24                 jmp .printchar_end
   728                          
   729                          !ifndef ACORN {
   730                          s_erase_window
   731                              lda #0
   732                              sta zp_screenrow
   733                          -   jsr s_erase_line
   734                              inc zp_screenrow
   735                              lda zp_screenrow
   736                              cmp #25
   737                              bne -
   738                              lda #0
   739                              sta zp_screenrow
   740                              sta zp_screencolumn
   741                              rts
   742                          }
   743                          
   744                          !ifndef ACORN {
   745                          .update_screenpos
   746                              ; set screenpos (current line) using row
   747                              ldx zp_screenrow
   748                              cpx s_current_screenpos_row
   749                              beq +
   750                              ; need to recalculate zp_screenline
   751                              stx s_current_screenpos_row
   752                              ; use the fact that zp_screenrow * 40 = zp_screenrow * (32+8)
   753                              lda #0
   754                              sta zp_screenline + 1
   755                          	txa
   756                              asl; *2 no need to rol zp_screenline + 1 since 0 < zp_screenrow < 24
   757                              asl; *4
   758                              asl; *8
   759                              sta zp_colourline ; store *8 for later
   760                              asl; *16
   761                              rol zp_screenline + 1
   762                              asl; *32
   763                              rol zp_screenline + 1  ; *32
   764                              clc
   765                              adc zp_colourline ; add *8
   766                              sta zp_screenline
   767                              sta zp_colourline
   768                              lda zp_screenline + 1
   769                              adc #$04 ; add screen start ($0400)
   770                              sta zp_screenline +1
   771                              adc #$d4 ; add colour start ($d800)
   772                              sta zp_colourline + 1
   773                          +   rts
   774                          }
   775                          
   776                          .s_scroll
   777  24c4 a58f                   lda zp_screenrow
   778  24c6 c919                   +cmp_screen_height
   779  24c8 1001                   bpl +
   780  24ca 60                     rts
   781                          +
   782                          !ifndef ACORN {
   783                              ldx window_start_row + 1 ; how many top lines to protect
   784                              stx zp_screenrow
   785                          -   jsr .update_screenpos
   786                              lda zp_screenline
   787                              pha
   788                              lda zp_screenline + 1
   789                              pha
   790                              inc zp_screenrow
   791                              jsr .update_screenpos
   792                              pla
   793                              sta zp_colourline + 1
   794                              pla
   795                              sta zp_colourline
   796                              ; move characters
   797                              ldy #39
   798                          --  lda (zp_screenline),y ; zp_screenrow
   799                              sta (zp_colourline),y ; zp_screenrow - 1
   800                              dey
   801                              bpl --
   802                              ; move colour info
   803                              lda zp_screenline + 1
   804                              pha
   805                              clc
   806                              adc #$d4
   807                              sta zp_screenline + 1
   808                              lda zp_colourline + 1
   809                              clc
   810                              adc #$d4
   811                              sta zp_colourline + 1
   812                              ldy #39
   813                          --  lda (zp_screenline),y ; zp_screenrow
   814                              sta (zp_colourline),y ; zp_screenrow - 1
   815                              dey
   816                              bpl --
   817                              pla
   818                              sta zp_screenline + 1
   819                              lda zp_screenrow
   820                              cmp #24
   821                              bne -
   822                              lda #$ff
   823                              sta s_current_screenpos_row ; force recalculation
   824                          s_erase_line
   825                          	; registers: a,x,y
   826                          	lda #0
   827                          	sta zp_screencolumn
   828                          	jsr .update_screenpos
   829                          	ldy #0
   830                          .erase_line_from_any_col	
   831                          	lda #$20
   832                          -	cpy #40
   833                          	bcs .done_erasing
   834                          	sta (zp_screenline),y
   835                          	iny
   836                          	bne -
   837                          .done_erasing	
   838                           	rts
   839                          s_erase_line_from_cursor
   840                          	jsr .update_screenpos
   841                          	ldy zp_screencolumn
   842                          	jmp .erase_line_from_any_col
   843                          } else { ; ACORN
   844                          !ifdef ACORN_HW_SCROLL {
   845                              ldx window_start_row + 1 ; how many top lines to protect
   846                              dex
   847                              bne .no_hw_scroll2
   848                              lda use_hw_scroll
   849                              beq .no_hw_scroll2
   850                              ldx #0
   851                              +ldy_screen_height_minus_1
   852                              sty zp_screenrow
   853                              jsr do_oswrch_vdu_goto_xy
   854                              jsr set_os_normal_video ; new line must not be reverse video
   855                              lda #vdu_down
   856                              jsr oswrch
   857                              jmp .redraw_top_line
   858                          .no_hw_scroll2
   859                          }
   860  24cb 38                     sec
   861  24cc 201125                 jsr s_pre_scroll
   862                              ; Move the cursor down one line to force a scroll
   863  24cf 20bd23                 jsr set_os_normal_video ; new line must not be reverse video
   864  24d2 a90a                   lda #vdu_down
   865  24d4 20eeff                 jsr oswrch
   866                              ; Remove the text window
   867  24d7 a91a                   lda #vdu_reset_text_window
   868  24d9 8534                   sta s_cursors_inconsistent ; vdu_reset_text_window moves cursor to home
   869  24db 4ceeff                 jmp oswrch
   870                          
   871                          s_erase_line
   872                          	; registers: a,x,y
   873  24de a900               	lda #0
   874  24e0 858e               	sta zp_screencolumn
   875                          s_erase_line_from_cursor
   876                          !ifdef ACORN_HW_SCROLL {
   877                              ldx zp_screenrow
   878                              bne +
   879                              ldx zp_screencolumn
   880                          -   lda #' '
   881                              sta .top_line_buffer,x
   882                              lda #0
   883                              sta .top_line_buffer_reverse,x
   884                              inx
   885                              +cpx_screen_width
   886                              bne -
   887                          +
   888                          }
   889                              ; Define a text window covering the region to clear
   890  24e2 a91c                   lda #vdu_define_text_window
   891  24e4 20eeff                 jsr oswrch
   892  24e7 a58e                   lda zp_screencolumn
   893  24e9 20eeff                 jsr oswrch
   894  24ec a58f                   lda zp_screenrow
   895  24ee 48                     pha
   896  24ef 20eeff                 jsr oswrch
   897  24f2 a927                   +lda_screen_width_minus_1
   898  24f4 20eeff                 jsr oswrch
   899  24f7 68                     pla
   900  24f8 20eeff                 jsr oswrch
   901                              ; Clear it and reset the text window.
   902  24fb 20bd23                 jsr set_os_normal_video ; clear must not be to reverse video
   903  24fe a90c                   lda #vdu_cls
   904  2500 20eeff                 jsr oswrch
   905                          !ifdef MODE_7_STATUS {
   906                          !ifdef Z4PLUS {
   907  2503 a58f                   lda zp_screenrow
   908  2505 d003                   bne +
   909  2507 207623                 jsr check_and_add_mode_7_colour_code
   910                          +
   911                          }
   912                          }
   913  250a a91a                   lda #vdu_reset_text_window
   914  250c 8534                   sta s_cursors_inconsistent ; vdu_reset_text_window moves cursor to home
   915  250e 4ceeff                 jmp oswrch
   916                          
   917                          s_pre_scroll
   918                              ; Define a text window covering the region to scroll.
   919                              ; If C is set on entry, leave the OS text cursor at the bottom right of the
   920                              ; text window.
   921                              ; If C is clear on entry, leave the OS text cursor where it was on the
   922                              ; physical screen (its co-ordinates will be different because of the text
   923                              ; window).
   924                              ; SF: ENHANCEMENT: If window_start_row+1 is 0 we are scrolling the whole
   925                              ; screen, so defining the text window has no visible effect and will slow
   926                              ; things down by preventing the OS doing a hardware scroll. It wouldn't be
   927                              ; hard to avoid defining the text window in this case, but in reality I
   928                              ; suspect there's nearly always a status bar or similar on the screen and
   929                              ; this case won't occur. If a game where this would be useful turns up I
   930                              ; can consider it. (Don't forget ACORN_NO_SHADOW must always use a text
   931                              ; window though.)
   932  2511 b016                   bcs .s_pre_scroll_leave_bottom_right
   933  2513 a986                   lda #osbyte_read_cursor_position
   934  2515 20f4ff                 jsr osbyte
   935  2518 98                     tya
   936  2519 48                     pha
   937  251a 8a                     txa
   938  251b 48                     pha
   939  251c 202925                 jsr .s_pre_scroll_leave_bottom_right
   940  251f 68                     pla
   941  2520 aa                     tax
   942  2521 68                     pla
   943  2522 38                     sec
   944  2523 e581                   sbc window_start_row + 1
   945  2525 a8                     tay
   946  2526 4c4622                 jmp do_oswrch_vdu_goto_xy
   947                          .s_pre_scroll_leave_bottom_right
   948  2529 a91c                   lda #vdu_define_text_window
   949  252b 20eeff                 jsr oswrch
   950  252e a900                   lda #0
   951                              ; We don't need to update zp_screencolumn, our caller will have done it.
   952                              ; sta zp_screencolumn ; leave the ozmoo cursor at the start of the line
   953  2530 20eeff                 jsr oswrch
   954  2533 a918                   +lda_screen_height_minus_1
   955  2535 858f                   sta zp_screenrow ; leave the ozmoo cursor on the last line
   956  2537 20eeff                 jsr oswrch
   957  253a a927                   +lda_screen_width_minus_1
   958  253c 20eeff                 jsr oswrch
   959  253f a581                   lda window_start_row + 1 ; how many top lines to protect
   960  2541 20eeff                 jsr oswrch
   961                              ; Move the cursor to the bottom right of the text window
   962  2544 a227                   +ldx_screen_width_minus_1
   963  2546 a918                   +lda_screen_height_minus_1
   964  2548 38                     sec
   965  2549 e581                   sbc window_start_row + 1
   966  254b a8                     tay
   967  254c 4c4622                 jmp do_oswrch_vdu_goto_xy
   968                          
   969                          !ifdef ACORN_HW_SCROLL {
   970                          .redraw_top_line
   971                              jsr turn_off_cursor
   972                              lda #vdu_home
   973                              jsr oswrch
   974                              +ldy_screen_width
   975                          !ifdef MODE_7_STATUS {
   976                          !ifdef Z4PLUS {
   977                              lda screen_mode
   978                              cmp #7
   979                              bne +
   980                              jsr .output_mode_7_colour_code
   981                              ldy #39
   982                          +
   983                          }
   984                          }
   985                              ldx #0
   986                          -   lda .top_line_buffer_reverse,x
   987                              beq +
   988                              jsr set_os_reverse_video
   989                              jmp ++
   990                          +   jsr set_os_normal_video
   991                          ++  lda .top_line_buffer,x
   992                              jsr oswrch
   993                              inx
   994                              dey
   995                              bne -
   996                              stx s_cursors_inconsistent
   997                              jmp turn_on_cursor
   998                          }
   999                          }
  1000                          
  1001                          
  1002                          !ifndef ACORN {
  1003                          ; colours		!byte 144,5,28,159,156,30,31,158,129,149,150,151,152,153,154,155
  1004                          zcolours	!byte $ff,$ff ; current/default colour
  1005                          			!byte COL2,COL3,COL4,COL5  ; black, red, green, yellow
  1006                          			!byte COL6,COL7,COL8,COL9  ; blue, magenta, cyan, white
  1007                          darkmode	!byte 0
  1008                          bgcol		!byte BGCOL, BGCOLDM
  1009                          fgcol		!byte FGCOL, FGCOLDM
  1010                          bordercol	!byte BORDERCOL_FINAL, BORDERCOLDM_FINAL
  1011                          !ifdef Z3 {
  1012                          statuslinecol !byte STATCOL, STATCOLDM
  1013                          }
  1014                          cursorcol !byte CURSORCOL, CURSORCOLDM
  1015                          current_cursor_colour !byte CURSORCOL
  1016                          cursor_character !byte CURSORCHAR
  1017                          }
  1018                          
  1019                          !ifndef ACORN {
  1020                          !ifndef NODARKMODE {
  1021                          toggle_darkmode
  1022                          !ifdef Z5PLUS {
  1023                          	; We will need the old fg colour later, to check which characters have the default colour
  1024                          	ldx darkmode ; previous darkmode value (0 or 1)
  1025                          	ldy fgcol,x
  1026                          	lda zcolours,y
  1027                          	sta z_temp + 9 ; old fg colour
  1028                          }
  1029                          ; Toggle darkmode
  1030                          	lda darkmode
  1031                          	eor #1
  1032                          	sta darkmode
  1033                          	tax
  1034                          ; Set cursor colour
  1035                          	ldy cursorcol,x
  1036                          	lda zcolours,y
  1037                          	sta current_cursor_colour
  1038                          ; Set bgcolor
  1039                          	ldy bgcol,x
  1040                          	lda zcolours,y
  1041                          	sta reg_backgroundcolour
  1042                          !ifdef Z5PLUS {
  1043                          	; We will need the new bg colour later, to check which characters would become invisible if left unchanged
  1044                          	sta z_temp + 8 ; new background colour
  1045                          }
  1046                          ; Set border colour 
  1047                          	ldy bordercol,x
  1048                          !ifdef BORDER_MAY_FOLLOW_BG {
  1049                          	beq .store_bordercol
  1050                          }
  1051                          !ifdef BORDER_MAY_FOLLOW_FG {
  1052                          	cpy #1
  1053                          	bne +
  1054                          	ldy fgcol,x
  1055                          +	
  1056                          }
  1057                          	lda zcolours,y
  1058                          .store_bordercol
  1059                          	sta reg_bordercolour
  1060                          !ifdef Z3 {
  1061                          ; Set statusline colour
  1062                          	ldy statuslinecol,x
  1063                          	lda zcolours,y
  1064                          	ldy #39
  1065                          -	sta $d800,y
  1066                          	dey
  1067                          	bpl -
  1068                          }
  1069                          ; Set fgcolour
  1070                          	ldy fgcol,x
  1071                          	lda zcolours,y
  1072                          	jsr s_set_text_colour
  1073                          	ldx #4
  1074                          	ldy #$d8
  1075                          	sty z_temp + 11
  1076                          	ldy #0
  1077                          	sty z_temp + 10
  1078                          !ifdef Z3 {
  1079                          	ldy #40
  1080                          }
  1081                          !ifdef Z5PLUS {
  1082                          	sta z_temp + 7
  1083                          }
  1084                          .compare
  1085                          !ifdef Z5PLUS {
  1086                          	lda (z_temp + 10),y
  1087                          	and #$0f
  1088                          	cmp z_temp + 9
  1089                          	beq .change
  1090                          	cmp z_temp + 8
  1091                          	bne .dont_change
  1092                          .change	
  1093                          	lda z_temp + 7
  1094                          }
  1095                          	sta (z_temp + 10),y
  1096                          .dont_change
  1097                          	iny
  1098                          	bne .compare
  1099                          	inc z_temp + 11
  1100                          	dex
  1101                          	bne .compare
  1102                          	jsr update_cursor
  1103                          	rts 
  1104                          } ; ifndef NODARKMODE
  1105                          } else { ; ACORN
  1106                          update_colours
  1107                          !ifdef MODE_7_STATUS {
  1108                          !ifdef Z4PLUS {
  1109  254f 20db38                 jsr turn_off_cursor
  1110  2552 207623                 jsr check_and_add_mode_7_colour_code
  1111  2555 20d538                 jsr turn_on_cursor
  1112                          }
  1113                          !ifdef Z3 {
  1114                              lda screen_mode
  1115                              cmp #7
  1116                              bne +
  1117                              jsr turn_off_cursor
  1118                              jsr .output_mode_7_colour_code
  1119                              jsr turn_on_cursor
  1120                          +
  1121                          }
  1122                          }
  1123  2558 a200                   ldx #0
  1124  255a ac0a04                 ldy bg_colour
  1125  255d 206525                 jsr .redefine_colour
  1126  2560 a207                   ldx #7
  1127  2562 ac0904                 ldy fg_colour
  1128                              ; fall through to .redefine_colour
  1129                          .redefine_colour
  1130  2565 a913                   lda #vdu_redefine_colour
  1131  2567 20eeff                 jsr oswrch
  1132  256a 8a                     txa
  1133  256b 20eeff                 jsr oswrch
  1134  256e 98                     tya
  1135  256f 20eeff                 jsr oswrch
  1136  2572 a900                   lda #0
  1137  2574 20eeff                 jsr oswrch
  1138  2577 20eeff                 jsr oswrch
  1139  257a 4ceeff                 jmp oswrch
  1140                          
  1141                          check_user_interface_controls
  1142                          !ifdef ACORN_HW_SCROLL {
  1143                              cmp #'S' - ctrl_key_adjust
  1144                              bne +
  1145                              lda use_hw_scroll
  1146                              eor #1
  1147                              sta use_hw_scroll
  1148                              ; We make a sound here because this has no immediately visible effect, so
  1149                              ; it's nice to offer the user some sort of feedback.
  1150                              jsr sound_high_pitched_beep
  1151                              lda #0
  1152                              rts
  1153                          }
  1154  257d ae0b04             +   ldx screen_mode
  1155  2580 a000                   ldy #0
  1156  2582 e007                   cpx #7
  1157  2584 d002                   bne +
  1158  2586 a001                   ldy #1
  1159  2588 a200               +   ldx #0
  1160  258a c906                   cmp #'F' - ctrl_key_adjust
  1161  258c f005                   beq +
  1162  258e e8                     inx
  1163  258f c902                   cmp #'B' - ctrl_key_adjust
  1164  2591 d013                   bne .done
  1165  2593 fe0904             +   inc fg_colour,x
  1166  2596 bd0904                 lda fg_colour,x
  1167  2599 c908                   cmp #8
  1168  259b d001                   bne +
  1169  259d 98                     tya
  1170  259e 9d0904             +   sta fg_colour,x
  1171  25a1 204f25                 jsr update_colours
  1172  25a4 a900                   lda #0
  1173                          .done
  1174  25a6 60                     rts
  1175                          }
  1176                          
  1177                          
  1178                          !ifdef Z5PLUS {
  1179                          z_ins_set_colour
  1180                          !ifndef ACORN {
  1181                              ; set_colour foreground background [window]
  1182                              ; (window is not used in Ozmoo)
  1183                          	jsr printchar_flush
  1184                          
  1185                          ; Load y with bordercol (needed later)
  1186                          	ldx darkmode
  1187                          	ldy bordercol,x
  1188                          
  1189                          ; Set background colour
  1190                              ldx z_operand_value_low_arr + 1
  1191                          	beq .current_background
  1192                              lda zcolours,x
  1193                              bpl +
  1194                              ldx story_start + header_default_bg_colour ; default colour
  1195                              lda zcolours,x
  1196                          +   sta reg_backgroundcolour
  1197                          ; Also set bordercolour to same as background colour, if bordercolour is set to the magic value 0
  1198                          	cpy #0
  1199                          	bne .current_background
  1200                          	sta reg_bordercolour
  1201                          .current_background
  1202                          
  1203                          ; Set foreground colour
  1204                              ldx z_operand_value_low_arr
  1205                          	beq .current_foreground
  1206                              lda zcolours,x
  1207                              bpl + ; Branch unless it's the special value $ff, which means "default colour"
  1208                              ldx story_start + header_default_fg_colour ; default colour
  1209                              lda zcolours,x
  1210                          +
  1211                          ; Also set bordercolour to same as foreground colour, if bordercolour is set to the magic value 1
  1212                          	cpy #1
  1213                          	bne +
  1214                          	sta reg_bordercolour
  1215                          +
  1216                              jsr s_set_text_colour ; change foreground colour
  1217                          .current_foreground
  1218                              rts
  1219                          } else {
  1220  25a7 4c7037                 jmp printchar_flush
  1221                          }
  1222                          }
  1223                          
  1224                          ; SFTODODATA 160 (BUT NOT IN ALL BUILDS)
  1225                          !ifdef ACORN_HW_SCROLL {
  1226                          .top_line_buffer
  1227                              !fill max_screen_width
  1228                          .top_line_buffer_reverse
  1229                              !fill max_screen_width
  1230                          }
  1231                          
  1232                          !ifdef TESTSCREEN {
  1233                          !ifdef ACORN {
  1234                              !error "TESTSCREEN not supported on Acorn"
  1235                          }
  1236                          
  1237                          .testtext !pet 5,147,18,"Status Line 123         ",146,13
  1238                                    !pet 28,"tesx",20,"t aA@! ",18,"Test aA@!",146,13
  1239                                    !pet 155,"third",20,13
  1240                                    !pet "fourth line",13
  1241                                    !pet 13,13,13,13,13,13
  1242                                    !pet 13,13,13,13,13,13,13
  1243                                    !pet 13,13,13,13,13,13,13
  1244                                    !pet "last line",1
  1245                                    !pet "aaaaaaaaabbbbbbbbbbbcccccccccc",1
  1246                                    !pet "d",1 ; last char on screen
  1247                                    !pet "efg",1 ; should scroll here and put efg on new line
  1248                                    !pet 13,"h",1; should scroll again and f is on new line
  1249                                    !pet 0
  1250                          
  1251                          testscreen
  1252                              lda #23 ; 23 upper/lower, 21 = upper/special (22/20 also ok)
  1253                              sta $d018 ; reg_screen_char_mode
  1254                              jsr s_init
  1255                              lda #1
  1256                              sta s_scrollstart
  1257                              ldx #0
  1258                          -   lda .testtext,x
  1259                              bne +
  1260                              rts
  1261                          +   cmp #1
  1262                              bne +
  1263                              txa
  1264                              pha
  1265                          --  jsr kernal_getchar
  1266                              beq --
  1267                              pla
  1268                              tax
  1269                              bne ++
  1270                          +   jsr s_printchar
  1271                          ++  inx
  1272                              bne -
  1273                          }
  1274                          }
  1275                          

; ******** Source: ozmoo.asm
   219                          

; ******** Source: streams.asm
     1                          ; Routines to handle output streams and input streams
     2                          
     3                          !zone streams {
     4  25aa 00000000           streams_current_entry		!byte 0,0,0,0
     5  25ae 0000000000000000...streams_stack				!fill 60, 0
     6  25ea 00                 streams_stack_items			!byte 0
     7  25eb 0101               streams_buffering			!byte 1,1
     8  25ed 00000000           streams_output_selected		!byte 0, 0, 0, 0
     9                          
    10  25f1 000000             .streams_tmp	!byte 0,0,0
    11  25f4 00                 .current_character !byte 0
    12                          
    13                          ; SF: None of the non-English character sets are supported by the Acorn port
    14                          ; yet. I'll look into this as and when someone who speaks the language in
    15                          ; question expresses an interest and has a game to test with.
    16                          
    17                          !ifdef SWEDISH_CHARS {
    18                          
    19                          ; SWEDISH
    20                          
    21                          character_translation_table_in
    22                          ; (zscii code, petscii code).
    23                          ; NOTE: Must be sorted on PETSCII value, descending!
    24                          	; Map uppercase letters to lowercase, or they won't be recognized in player input
    25                          	!byte $c9, $dd ; Å = ]
    26                          	!byte $9c, $dc ; Ö = £
    27                          	!byte $9b, $db ; Ä = [
    28                          	!byte $5c, $bf ; Backslash => (somewhat) backslash-like graphic character
    29                          	!byte $aa, $b1 ; é = CBM-e
    30                          	!byte $5f, $af ; Underscore = underscore-like graphic character
    31                          	!byte $7c, $a5 ; Pipe = pipe-like graphic character (using $a5 since $dd is used for an accented char)
    32                          	!byte $20, $a0 ; Convert shift-space to regular space
    33                          	!byte $83, $9d ; Cursor left
    34                          	!byte $81, $91 ; Cursor up
    35                          	!byte $8c, $8c ; F8
    36                          	!byte $8a, $8b ; F6
    37                          	!byte $88, $8a ; F4
    38                          	!byte $86, $89 ; F2
    39                          	!byte $8b, $88 ; F7
    40                          	!byte $89, $87 ; F5
    41                          	!byte $87, $86 ; F3
    42                          	!byte $85, $85 ; F1
    43                          	!byte $c9, $5d ; å = ]
    44                          	!byte $9c, $5c ; ö = £
    45                          	!byte $9b, $5b ; ä = [
    46                          	!byte $84, $1d ; Cursor right
    47                          	!byte $08, $14 ; Backspace
    48                          	!byte $82, $11 ; Cursor down
    49                          character_translation_table_in_end
    50                          
    51                          character_translation_table_out
    52                          ; (zscii code, petscii code).
    53                          ; NOTE: Must be sorted on ZSCII value, descending!
    54                          	!byte $ca, $dd ; Å = Shift-]
    55                          	!byte $c9, $5d ; å = ]
    56                          	!byte $aa, $b1 ; é = CBM-e
    57                          	!byte $9f, $dc ; Ö = Shift-£
    58                          	!byte $9e, $db ; Ä = Shift-[
    59                          	!byte $9c, $5c ; ö = £
    60                          	!byte $9b, $5b ; ä = [
    61                          	!byte $7e, $2d ; ~ => -
    62                          	!byte $7d, $29 ; } => )
    63                          	!byte $7c, $a5 ; Pipe = pipe-like graphic character (using $a5 since $dd is used for an accented char)
    64                          	!byte $7b, $28 ; { => (
    65                          	!byte $60, $27 ; Grave accent => quote
    66                          	!byte $5f, $af ; Underscore = underscore-like graphic character
    67                          	!byte $5d, $29 ; ] = )
    68                          	!byte $5c, $bf ; Backslash => (somewhat) backslash-like graphic character
    69                          	!byte $5b, $28 ; [ = (
    70                          character_translation_table_out_end
    71                          } else { ; End of Swedish section
    72                          !ifdef DANISH_CHARS {
    73                          
    74                          ; DANISH
    75                          
    76                          character_translation_table_in
    77                          ; (zscii code, petscii code).
    78                          ; NOTE: Must be sorted on PETSCII value, descending!
    79                          	; Map uppercase letters to lowercase, or they won't be recognized in player input
    80                          	!byte $c9, $dd ; Å = ]
    81                          	!byte $cb, $dc ; Ø = £
    82                          	!byte $d3, $db ; Æ = [
    83                          	!byte $5c, $bf ; Backslash => (somewhat) backslash-like graphic character
    84                          	!byte $aa, $b1 ; é = CBM-e
    85                          	!byte $5f, $af ; Underscore = underscore-like graphic character
    86                          	!byte $7c, $a5 ; Pipe = pipe-like graphic character (using $a5 since $dd is used for an accented char)
    87                          	!byte $20, $a0 ; Convert shift-space to regular space
    88                          	!byte $83, $9d ; Cursor left
    89                          	!byte $81, $91 ; Cursor up
    90                          	!byte $8c, $8c ; F8
    91                          	!byte $8a, $8b ; F6
    92                          	!byte $88, $8a ; F4
    93                          	!byte $86, $89 ; F2
    94                          	!byte $8b, $88 ; F7
    95                          	!byte $89, $87 ; F5
    96                          	!byte $87, $86 ; F3
    97                          	!byte $85, $85 ; F1
    98                          	!byte $c9, $5d ; å = ]
    99                          	!byte $cb, $5c ; ø = £
   100                          	!byte $d3, $5b ; æ = [
   101                          	!byte $84, $1d ; Cursor right
   102                          	!byte $08, $14 ; Backspace
   103                          	!byte $82, $11 ; Cursor down
   104                          character_translation_table_in_end
   105                          
   106                          character_translation_table_out
   107                          ; (zscii code, petscii code).
   108                          ; NOTE: Must be sorted on ZSCII value, descending!
   109                          	!byte $d4, $db ; Æ = Shift-[
   110                          	!byte $d3, $5b ; æ = [
   111                          	!byte $cc, $dc ; Ø = Shift-£
   112                          	!byte $cb, $5c ; ø = £
   113                          	!byte $ca, $dd ; Å = Shift-]
   114                          	!byte $c9, $5d ; å = ]
   115                          	!byte $aa, $b1 ; é = CBM-e
   116                          	!byte $7e, $2d ; ~ => -
   117                          	!byte $7d, $29 ; } => )
   118                          	!byte $7c, $a5 ; Pipe = pipe-like graphic character (using $a5 since $dd is used for an accented char)
   119                          	!byte $7b, $28 ; { => (
   120                          	!byte $60, $27 ; Grave accent => quote
   121                          	!byte $5f, $af ; Underscore = underscore-like graphic character
   122                          	!byte $5d, $29 ; ] = )
   123                          	!byte $5c, $bf ; Backslash => (somewhat) backslash-like graphic character
   124                          	!byte $5b, $28 ; [ = (
   125                          character_translation_table_out_end
   126                          } else { ; End of Danish section
   127                          !ifdef GERMAN_CHARS {
   128                          
   129                          ; GERMAN
   130                          
   131                          character_translation_table_in
   132                          ; (zscii code, petscii code).
   133                          ; NOTE: Must be sorted on PETSCII value, descending!
   134                          	; Map uppercase letters to lowercase, or they won't be recognized in player input
   135                          	!byte $9b, $dd ; Ä => ]
   136                          	!byte $9c, $db ; Ö => [
   137                          	!byte $9d, $c0 ; Ü => @
   138                          	!byte $5c, $bf ; Backslash => (somewhat) backslash-like graphic character
   139                          	!byte $5f, $af ; Underscore = underscore-like graphic character
   140                          	!byte $7c, $a5 ; Pipe = pipe-like graphic character (using $a5 since $dd is used for an accented char)
   141                          	!byte $20, $a0 ; Convert shift-space to regular space
   142                          	!byte $83, $9d ; Cursor left
   143                          	!byte $81, $91 ; Cursor up
   144                          	!byte $8c, $8c ; F8
   145                          	!byte $8a, $8b ; F6
   146                          	!byte $88, $8a ; F4
   147                          	!byte $86, $89 ; F2
   148                          	!byte $8b, $88 ; F7
   149                          	!byte $89, $87 ; F5
   150                          	!byte $87, $86 ; F3
   151                          	!byte $85, $85 ; F1
   152                          	!byte $a1, $5f ; ß = left-arrow
   153                          	!byte $9b, $5d ; ä = ]
   154                          	!byte $db, $5c ; £
   155                          	!byte $9c, $5b ; ö = [
   156                          	!byte $9d, $40 ; ü = @
   157                          	!byte $84, $1d ; Cursor right
   158                          	!byte $08, $14 ; Backspace
   159                          	!byte $82, $11 ; Cursor down
   160                          character_translation_table_in_end
   161                          
   162                          character_translation_table_out
   163                          ; (zscii code, petscii code).
   164                          ; NOTE: Must be sorted on ZSCII value, descending!
   165                          	!byte $db, $5c ; £
   166                          	!byte $a1, $5f ; ß = left-arrow
   167                          	!byte $a0, $c0 ; Ü = Shift-@
   168                          	!byte $9f, $db ; Ö = Shift-[
   169                          	!byte $9e, $dd ; Ä = Shift-]
   170                          	!byte $9d, $40 ; ü = @
   171                          	!byte $9c, $5b ; ö = [
   172                          	!byte $9b, $5d ; ä = ]
   173                          	!byte $7e, $2d ; ~ => -
   174                          	!byte $7d, $29 ; } => )
   175                          	!byte $7c, $a5 ; Pipe = pipe-like graphic character (using $a5 since $dd is used for an accented char)
   176                          	!byte $7b, $28 ; { => (
   177                          	!byte $60, $27 ; Grave accent => quote
   178                          	!byte $5f, $af ; Underscore = underscore-like graphic character
   179                          	!byte $5d, $29 ; ] = )
   180                          	!byte $5c, $bf ; Backslash => (somewhat) backslash-like graphic character
   181                          	!byte $5b, $28 ; [ = (
   182                          character_translation_table_out_end
   183                          } else { ; End of German section
   184                          !ifdef ITALIAN_CHARS {
   185                          
   186                          ; ITALIAN
   187                          
   188                          character_translation_table_in
   189                          ; (zscii code, petscii code).
   190                          ; NOTE: Must be sorted on PETSCII value, descending!
   191                          	; Map uppercase letters to lowercase, or they won't be recognized in player input
   192                          	!byte $7c, $dd ; Pipe = pipe-like graphic character
   193                          	!byte $5c, $bf ; Backslash => (somewhat) backslash-like graphic character
   194                          	!byte $aa, $bb ; é <= É (CBM-f)
   195                          	!byte $b8, $b9 ;      ò (CBM-o)
   196                          	!byte $b9, $b8 ;      ù (CBM-u)
   197                          	!byte $b8, $b6 ; ò <= Ò (CBM-l)
   198                          	!byte $b9, $b5 ; ù <= Ù (CBM-j)
   199                          	!byte $aa, $b2 ;      é (CBM-r)
   200                          	!byte $b6, $b1 ;      è (CBM-e)
   201                          	!byte $b5, $b0 ;      à (CBM-a)
   202                          	!byte $5f, $af ; Underscore = underscore-like graphic character
   203                          	!byte $b5, $ad ; à <= À (CBM-z)
   204                          	!byte $b6, $ac ; è <= È (CBM-d)
   205                          	!byte $b7, $a2 ;      ì (CBM-i)
   206                          	!byte $b7, $a1 ; ì <= Ì (CBM-k)
   207                          	!byte $20, $a0 ; Convert shift-space to regular space
   208                          	!byte $83, $9d ; Cursor left
   209                          	!byte $81, $91 ; Cursor up
   210                          	!byte $8c, $8c ; F8
   211                          	!byte $8a, $8b ; F6
   212                          	!byte $88, $8a ; F4
   213                          	!byte $86, $89 ; F2
   214                          	!byte $8b, $88 ; F7
   215                          	!byte $89, $87 ; F5
   216                          	!byte $87, $86 ; F3
   217                          	!byte $85, $85 ; F1
   218                          	!byte $db, $5c ; £
   219                          	!byte $84, $1d ; Cursor right
   220                          	!byte $08, $14 ; Backspace
   221                          	!byte $82, $11 ; Cursor down
   222                          character_translation_table_in_end
   223                          
   224                          character_translation_table_out
   225                          ; (zscii code, petscii code).
   226                          ; NOTE: Must be sorted on ZSCII value, descending!
   227                          	!byte $db, $5c ; £
   228                          	!byte $be, $b5 ; Ù
   229                          	!byte $bd, $b6 ; Ò
   230                          	!byte $bc, $a1 ; Ì
   231                          	!byte $bb, $ac ; È
   232                          	!byte $ba, $ad ; À
   233                          	!byte $b9, $b8 ; ù
   234                          	!byte $b8, $b9 ; ò
   235                          	!byte $b7, $a2 ; ì
   236                          	!byte $b6, $b1 ; è
   237                          	!byte $b5, $b0 ; à
   238                          	!byte $b0, $bb ; É
   239                          	!byte $aa, $b2 ; é
   240                          	!byte $7e, $2d ; ~ => -
   241                          	!byte $7d, $29 ; } => )
   242                          	!byte $7c, $dd ; Pipe = pipe-like graphic character
   243                          	!byte $7b, $28 ; { => (
   244                          	!byte $60, $27 ; Grave accent => quote
   245                          	!byte $5f, $af ; Underscore = underscore-like graphic character
   246                          	!byte $5c, $bf ; Backslash => (somewhat) backslash-like graphic character
   247                          character_translation_table_out_end
   248                          
   249                          } else { ; End of Italian section
   250                          
   251                          
   252                          !ifdef SPANISH_CHARS {
   253                          
   254                          ; SPANISH
   255                          
   256                          character_translation_table_in
   257                          ; (zscii code, petscii code).
   258                          ; NOTE: Must be sorted on PETSCII value, descending!
   259                          	; Map uppercase letters to lowercase, or they won't be recognized in player input
   260                          	!byte $7c, $dd ; Pipe = pipe-like graphic character
   261                          	!byte $5c, $bf ; Backslash => (somewhat) backslash-like graphic character
   262                          	!byte $ac, $b9 ; á          (CBM-o)
   263                          	!byte $ad, $b8 ; á          (CBM-u)
   264                          	!byte $9d, $b7 ; ü          (CBM-y)
   265                          	!byte $ac, $b6 ; Ó => ó     (CBM-l)
   266                          	!byte $ad, $b5 ; Ú => ú     (CBM-j)
   267                          	!byte $9d, $b4 ; Ü => ü     (CBM-h)
   268                          	!byte $df, $b3 ; inverted ? (CBM-w)
   269                          	!byte $aa, $b1 ; é          (CBM-e)
   270                          	!byte $a9, $b0 ; á          (CBM-a)
   271                          	!byte $5f, $af ; Underscore = underscore-like graphic character
   272                          	!byte $a9, $ad ; Á => á     (CBM-z)
   273                          	!byte $aa, $ac ; É => é     (CBM-d)
   274                          	!byte $de, $ab ; inverted ! (CBM-q)
   275                          	!byte $ce, $aa ; ñ          (CBM-n)
   276                          	!byte $ce, $a7 ; Ñ => ñ     (CBM-m)
   277                          	!byte $ab, $a2 ; í          (CBM-i)
   278                          	!byte $ab, $a1 ; Í => í     (CBM-k)
   279                          	!byte $20, $a0 ; Convert shift-space to regular space
   280                          	!byte $83, $9d ; Cursor left
   281                          	!byte $81, $91 ; Cursor up
   282                          	!byte $8c, $8c ; F8
   283                          	!byte $8a, $8b ; F6
   284                          	!byte $88, $8a ; F4
   285                          	!byte $86, $89 ; F2
   286                          	!byte $8b, $88 ; F7
   287                          	!byte $89, $87 ; F5
   288                          	!byte $87, $86 ; F3
   289                          	!byte $85, $85 ; F1
   290                          	!byte $db, $5c ; £
   291                          	!byte $84, $1d ; Cursor right
   292                          	!byte $08, $14 ; Backspace
   293                          	!byte $82, $11 ; Cursor down
   294                          character_translation_table_in_end
   295                          
   296                          character_translation_table_out
   297                          ; (zscii code, petscii code).
   298                          ; NOTE: Must be sorted on ZSCII value, descending!
   299                          	!byte $df, $b3 ; inverted ?
   300                          	!byte $de, $ab ; inverted !
   301                          	!byte $db, $5c ; £
   302                          	!byte $d1, $a7 ; Ñ
   303                          	!byte $ce, $aa ; ñ
   304                          	!byte $b3, $b5 ; Ú
   305                          	!byte $b2, $b6 ; Ó
   306                          	!byte $b1, $a1 ; Í
   307                          	!byte $b0, $ac ; É
   308                          	!byte $af, $ad ; Á
   309                          	!byte $ad, $b8 ; á
   310                          	!byte $ac, $b9 ; á
   311                          	!byte $ab, $a2 ; í
   312                          	!byte $aa, $b1 ; é
   313                          	!byte $a9, $b0 ; á
   314                          	!byte $a0, $b4 ; Ü
   315                          	!byte $9d, $b7 ; ü
   316                          	!byte $7e, $2d ; ~ => -
   317                          	!byte $7d, $29 ; } => )
   318                          	!byte $7c, $dd ; Pipe = pipe-like graphic character
   319                          	!byte $7b, $28 ; { => (
   320                          	!byte $60, $27 ; Grave accent => quote
   321                          	!byte $5f, $af ; Underscore = underscore-like graphic character
   322                          	!byte $5c, $bf ; Backslash => (somewhat) backslash-like graphic character
   323                          character_translation_table_out_end
   324                          
   325                          } else { ; End of Spanish section
   326                          
   327                          !ifdef FRENCH_CHARS {
   328                          
   329                          ; FRENCH
   330                          
   331                          character_translation_table_in
   332                          ; (zscii code, petscii code).
   333                          ; NOTE: Must be sorted on PETSCII value, descending!
   334                          	; Map uppercase letters to lowercase, or they won't be recognized in player input
   335                          	!byte $dc, $df ; Œ => œ
   336                          	!byte $c3, $de ; Û => û 
   337                          	!byte $7c, $dd ; Pipe = pipe-like graphic character
   338                          	!byte $a2, $dc ; »
   339                          	!byte $a3, $db ; «
   340                          	!byte $5c, $bf ; Backslash => (somewhat) backslash-like graphic character
   341                          	!byte $d5, $be ; Ç => ç
   342                          	!byte $b5, $bd ; À => à
   343                          	!byte $d5, $bc ; ç
   344                          	!byte $a4, $bb ; Ë => ë 
   345                          	!byte $c2, $b9 ; ô
   346                          	!byte $c3, $b8 ; û 
   347                          	!byte $c2, $b6 ; Ô => ô 
   348                          	!byte $9d, $b5 ; ü
   349                          	!byte $b9, $b4 ; ù
   350                          	!byte $aa, $b3 ; é 
   351                          	!byte $b6, $b2 ; è 
   352                          	!byte $c0, $b1 ; ê 
   353                          	!byte $bf, $b0 ; â
   354                          	!byte $5f, $af ; Underscore = underscore-like graphic character
   355                          	!byte $b5, $ae ; à
   356                          	!byte $bf, $ad ; Â => â
   357                          	!byte $a4, $ac ; ë
   358                          	!byte $aa, $ab ; É => é
   359                          	!byte $b9, $aa ; Ù => ù
   360                          	!byte $c1, $a8 ; Î => î 
   361                          	!byte $9d, $a7 ; Ü => ü
   362                          	!byte $a5, $a6 ; Ï => ï
   363                          	!byte $b6, $a5 ; È => è
   364                          	!byte $d3, $a4 ; Æ => æ
   365                          	!byte $c0, $a3 ; Ê => ê
   366                          	!byte $c1, $a2 ; î
   367                          	!byte $a5, $a1 ; ï
   368                          	!byte $20, $a0 ; Convert shift-space to regular space
   369                          	!byte $83, $9d ; Cursor left
   370                          	!byte $81, $91 ; Cursor up
   371                          	!byte $8c, $8c ; F8
   372                          	!byte $8a, $8b ; F6
   373                          	!byte $88, $8a ; F4
   374                          	!byte $86, $89 ; F2
   375                          	!byte $8b, $88 ; F7
   376                          	!byte $89, $87 ; F5
   377                          	!byte $87, $86 ; F3
   378                          	!byte $85, $85 ; F1
   379                          	!byte $dc, $5d ; œ
   380                          	!byte $db, $5c ; £
   381                          	!byte $d3, $5b ; æ
   382                          	!byte $84, $1d ; Cursor right
   383                          	!byte $08, $14 ; Backspace
   384                          	!byte $82, $11 ; Cursor down
   385                          character_translation_table_in_end
   386                          
   387                          character_translation_table_out
   388                          ; (zscii code, petscii code).
   389                          ; NOTE: Must be sorted on ZSCII value, descending!
   390                          	!byte $dd, $df ; Œ 
   391                          	!byte $dc, $5d ; œ
   392                          	!byte $db, $5c ; £
   393                          	!byte $d6, $be ; Ç
   394                          	!byte $d5, $bc ; ç
   395                          	!byte $d4, $a4 ; Æ
   396                          	!byte $d3, $5b ; æ
   397                          	!byte $c8, $de ; Û 
   398                          	!byte $c7, $b6 ; Ô 
   399                          	!byte $c6, $a8 ; Î 
   400                          	!byte $c5, $a3 ; Ê 
   401                          	!byte $c4, $ad ; Â
   402                          	!byte $c3, $b8 ; û 
   403                          	!byte $c2, $b9 ; ô
   404                          	!byte $c1, $a2 ; î
   405                          	!byte $c0, $b1 ; ê 
   406                          	!byte $bf, $b0 ; â
   407                          	!byte $be, $aa ; Ù 
   408                          	!byte $bb, $a5 ; È
   409                          	!byte $ba, $bd ; À
   410                          	!byte $b9, $b4 ; ù
   411                          	!byte $b6, $b2 ; è 
   412                          	!byte $b5, $ae ; à
   413                          	!byte $b0, $ab ; É 
   414                          	!byte $aa, $b3 ; é 
   415                          	!byte $a8, $a6 ; Ï 
   416                          	!byte $a7, $bb ; Ë 
   417                          	!byte $a6, $59 ; ÿ => y
   418                          	!byte $a5, $a1 ; ï
   419                          	!byte $a4, $ac ; ë
   420                          	!byte $a3, $db ; «
   421                          	!byte $a2, $dc ; »
   422                          	!byte $a0, $a7 ; Ü 
   423                          	!byte $9f, $cf ; Ö => O
   424                          	!byte $9e, $c1 ; Ä => A
   425                          	!byte $9d, $b5 ; ü
   426                          	!byte $9c, $4f ; ö => o
   427                          	!byte $9b, $41 ; ä => a
   428                          	!byte $7e, $2d ; ~ => -
   429                          	!byte $7d, $29 ; } => )
   430                          	!byte $7c, $dd ; Pipe = pipe-like graphic character
   431                          	!byte $7b, $28 ; { => (
   432                          	!byte $60, $27 ; Grave accent => quote
   433                          	!byte $5f, $af ; Underscore = underscore-like graphic character
   434                          	!byte $5d, $29 ; ] => )
   435                          	!byte $5c, $bf ; Backslash => (somewhat) backslash-like graphic character
   436                          	!byte $5b, $28 ; [ => (
   437                          character_translation_table_out_end
   438                          
   439                          } else { ; End of French section
   440                          
   441                          ; ENGLISH
   442                          
   443                          character_translation_table_in
   444                          ; (zscii code, petscii code).
   445                          ; NOTE: Must be sorted on PETSCII value, descending!
   446                          !ifndef ACORN {
   447                          	!byte $7c, $dd ; Pipe = pipe-like graphic character
   448                          	!byte $5c, $bf ; Backslash => (somewhat) backslash-like graphic character
   449                          	!byte $5f, $af ; Underscore = underscore-like graphic character
   450                          	!byte $20, $a0 ; Convert shift-space to regular space
   451                          	!byte $83, $9d ; Cursor left
   452                          	!byte $81, $91 ; Cursor up
   453                          	!byte $8c, $8c ; F8
   454                          	!byte $8a, $8b ; F6
   455                          	!byte $88, $8a ; F4
   456                          	!byte $86, $89 ; F2
   457                          	!byte $8b, $88 ; F7
   458                          	!byte $89, $87 ; F5
   459                          	!byte $87, $86 ; F3
   460                          	!byte $85, $85 ; F1
   461                          	!byte $db, $5c ; £
   462                          	!byte $84, $1d ; Cursor right
   463                          	!byte $08, $14 ; Backspace
   464                          	!byte $82, $11 ; Cursor down
   465                          } else {
   466                              ; SF: ENHANCEMENT: The Z-machine allows function keys as input to a game, so
   467                              ; there may be some value in supporting that. However, for games which don't
   468                              ; use them, it's nice to allow the user to use the standard *KEY
   469                              ; functionality, so we shouldn't force special case handling of function
   470                              ; keys. Something to look into if a game which uses function keys ever comes
   471                              ; along. SFTODO: I now have function key support, I may want to optionally add some entries here to map Acorn f0->nothing and Acorn f1->ZSCII f1 etc
   472                          !ifdef ACORN_CURSOR_PASS_THROUGH {
   473  25f5 818b                   !byte $81, $8b ; Cursor up
   474  25f7 828a                   !byte $82, $8a ; Cursor down
   475  25f9 8489                   !byte $84, $89 ; Cursor right
   476  25fb 8388                   !byte $83, $88 ; Cursor left
   477                          }
   478  25fd 087f                   !byte $08, $7f ; Backspace
   479  25ff db60                   !byte $db, $60 ; £
   480                          }
   481                          character_translation_table_in_end
   482                          
   483                          character_translation_table_out
   484                          ; (zscii code, petscii code).
   485                          ; NOTE: Must be sorted on ZSCII value, descending!
   486                          !ifndef ACORN {
   487                          	!byte $db, $5c ; £
   488                          	!byte $7e, $2d ; ~ => -
   489                          	!byte $7d, $29 ; } => )
   490                          	!byte $7c, $dd ; Pipe = pipe-like graphic character
   491                          	!byte $7b, $28 ; { => (
   492                          	!byte $60, $27 ; Grave accent => quote
   493                          	!byte $5f, $af ; Underscore = underscore-like graphic character
   494                          	!byte $5c, $bf ; Backslash => (somewhat) backslash-like graphic character
   495                          } else {
   496  2601 db60                   !byte $db, $60 ; £
   497                          }
   498                          character_translation_table_out_end
   499                          
   500                          } ; End of non-French section
   501                          } ; End of non-Spanish section
   502                          } ; End of non-Italian section
   503                          } ; End of non-German section
   504                          } ; End of non-Danish section
   505                          } ; End of non-Swedish section
   506                          	
   507                          streams_init
   508                          	; Setup/Reset streams handling
   509                          	; input: 
   510                          	; output:
   511                          	; side effects: Sets all variables/tables to their starting values
   512                          	; used registers: a
   513  2603 a900               	lda #0
   514  2605 8dea25             	sta streams_stack_items
   515  2608 8dee25             	sta streams_output_selected + 1
   516  260b 8def25             	sta streams_output_selected + 2
   517  260e 8df025             	sta streams_output_selected + 3
   518  2611 a901               	lda #1
   519  2613 8deb25             	sta streams_buffering
   520  2616 8dec25             	sta streams_buffering + 1
   521  2619 8ded25             	sta streams_output_selected
   522  261c 60                 	rts
   523                          	
   524                          streams_print_output
   525                          	; Print a ZSCII character
   526                          	; input:  character in a
   527                          	; output:
   528                          	; side effects: -
   529                          	; affected registers: p
   530  261d c900               	cmp #0
   531  261f f02d               	beq .return
   532  2621 48                 	pha
   533  2622 adef25             	lda streams_output_selected + 2
   534  2625 d00f               	bne .mem_write
   535  2627 aded25             	lda streams_output_selected
   536  262a f023               	beq .pla_and_return
   537  262c 68                 	pla
   538  262d 200727             	jsr translate_zscii_to_petscii
   539  2630 b003               	bcs .could_not_convert
   540  2632 4ca337             	jmp printchar_buffered
   541                          .could_not_convert
   542                          !ifdef DEBUG {
   543                          	jmp print_bad_zscii_code_buffered
   544                          } else {
   545  2635 60                 	rts
   546                          }
   547                          .mem_write
   548  2636 adac25             	lda streams_current_entry + 2
   549  2639 8d4426             	sta .print_byte_to_mem + 1
   550  263c adad25             	lda streams_current_entry + 3
   551  263f 8d4526             	sta .print_byte_to_mem + 2
   552  2642 68                 	pla
   553                          .print_byte_to_mem
   554  2643 8d0080             	sta $8000 ; Will be modified!
   555  2646 eeac25             	inc streams_current_entry + 2
   556  2649 d003               	bne .return
   557  264b eead25             	inc streams_current_entry + 3
   558                          .return
   559  264e 60                 	rts
   560                          .pla_and_return
   561  264f 68                 	pla
   562  2650 60                 	rts
   563                          	
   564                          z_ins_output_stream
   565                          	; Set output stream held in z_operand 0
   566                          	; input:  z_operand 0: 1..4 to enable, -1..-4 to disable. If enabling stream 3, also provide z_operand 1: z_address of table
   567                          	; output:
   568                          	; side effects: Uses zp_temp (2 bytes)
   569                          	; used registers: a,x,y
   570  2651 241e               	bit z_operand_value_low_arr
   571  2653 3018               	bmi .negative
   572  2655 a51e               	lda z_operand_value_low_arr
   573                          !ifndef UNSAFE {
   574  2657 f00f               	beq .unsupported_stream
   575  2659 c905               	cmp #5
   576  265b b00b               	bcs .unsupported_stream
   577                          }
   578  265d aa                 	tax
   579  265e a901               	lda #1
   580  2660 9dec25             	sta streams_output_selected - 1,x
   581  2663 e003               	cpx #3
   582  2665 f01c               	beq .turn_on_mem_stream
   583  2667 60                 	rts
   584                          !ifndef UNSAFE {
   585                          .unsupported_stream
   586  2668 a901                   lda #ERROR_UNSUPPORTED_STREAM
   587  266a 205322             	jsr fatalerror
   588                          }
   589                          .negative
   590  266d a51e               	lda z_operand_value_low_arr
   591                          !ifndef UNSAFE {
   592  266f c9fc               	cmp #-4
   593  2671 30f5               	bmi .unsupported_stream
   594                          }
   595  2673 49ff               	eor #$ff
   596  2675 18                 	clc
   597  2676 6901               	adc #1
   598  2678 c903               	cmp #3
   599  267a f045               	beq .turn_off_mem_stream
   600  267c aa                 	tax
   601  267d a900               	lda #0
   602  267f 9dec25             	sta streams_output_selected - 1,x
   603  2682 60                 	rts
   604                          .turn_on_mem_stream
   605  2683 adea25             	lda streams_stack_items
   606  2686 f013               	beq .add_first_level
   607                          !ifndef UNSAFE {
   608  2688 c910               	cmp #16
   609  268a b030               	bcs .stream_nesting_error
   610                          }
   611  268c 0a                 	asl
   612  268d 0a                 	asl
   613  268e a8                 	tay
   614                          	; Move current level to stack
   615  268f a203               	ldx #3
   616  2691 bdaa25             -	lda streams_current_entry,x
   617  2694 99ad25             	sta streams_stack - 4 + 3,y
   618  2697 88                 	dey
   619  2698 ca                 	dex
   620  2699 10f6               	bpl -
   621                          .add_first_level
   622                          	; Setup pointer to start of table
   623  269b a51f               	lda z_operand_value_low_arr + 1
   624  269d 8daa25             	sta streams_current_entry
   625  26a0 a517               	lda z_operand_value_high_arr + 1
   626  26a2 18                 	clc
   627  26a3 694e               	adc #>story_start
   628  26a5 8dab25             	sta streams_current_entry + 1
   629                          	; Setup pointer to current storage location
   630  26a8 adaa25             	lda streams_current_entry
   631  26ab 6902               	adc #2
   632  26ad 8dac25             	sta streams_current_entry + 2
   633  26b0 adab25             	lda streams_current_entry + 1
   634  26b3 6900               	adc #0
   635  26b5 8dad25             	sta streams_current_entry + 3
   636  26b8 eeea25             	inc streams_stack_items
   637  26bb 60                 	rts
   638                          !ifndef UNSAFE {
   639                          .stream_nesting_error
   640  26bc a903                   lda #ERROR_STREAM_NESTING_ERROR
   641  26be 205322             	jsr fatalerror
   642                          }
   643                          .turn_off_mem_stream
   644  26c1 adea25             	lda streams_stack_items
   645                          !ifndef UNSAFE {
   646  26c4 f0f6               	beq .stream_nesting_error
   647                          }
   648                          	; Copy length to first word in table
   649  26c6 adaa25             	lda streams_current_entry
   650  26c9 8575               	sta zp_temp
   651  26cb adab25             	lda streams_current_entry + 1
   652  26ce 8576               	sta zp_temp + 1
   653  26d0 adac25             	lda streams_current_entry + 2
   654  26d3 38                 	sec
   655  26d4 e902               	sbc #2
   656  26d6 a8                 	tay
   657  26d7 adad25             	lda streams_current_entry + 3
   658  26da e900               	sbc #0
   659  26dc aa                 	tax
   660  26dd 98                 	tya
   661  26de 38                 	sec
   662  26df e575               	sbc zp_temp
   663  26e1 a001               	ldy #1
   664  26e3 9175               	sta (zp_temp),y
   665  26e5 8a                 	txa
   666  26e6 e576               	sbc zp_temp + 1
   667  26e8 88                 	dey
   668  26e9 9175               	sta (zp_temp),y
   669                          	; Pop item off stack
   670  26eb ceea25             	dec streams_stack_items
   671  26ee adea25             	lda streams_stack_items
   672  26f1 f010               	beq .remove_first_level
   673  26f3 0a                 	asl
   674  26f4 0a                 	asl
   675  26f5 a8                 	tay
   676                          	; Move top stack entry to current level
   677  26f6 a203               	ldx #3
   678  26f8 b9ad25             -	lda streams_stack - 4 + 3,y
   679  26fb 9daa25             	sta streams_current_entry,x
   680  26fe 88                 	dey
   681  26ff ca                 	dex
   682  2700 10f6               	bpl -
   683  2702 60                 	rts
   684                          .remove_first_level
   685                          	; Turn off stream 3 output (A is always 0 here)
   686  2703 8def25             	sta streams_output_selected + 2
   687  2706 60                 	rts
   688                          
   689                          translate_zscii_to_petscii
   690                          	; Return PETSCII code *OR* set carry if this ZSCII character is unsupported
   691  2707 8cf225             	sty .streams_tmp + 1
   692  270a a000               	ldy #character_translation_table_out_end - character_translation_table_out - 2
   693  270c d90126             -	cmp character_translation_table_out,y
   694  270f 9006               	bcc .no_match
   695  2711 f017               	beq .match
   696  2713 88                 	dey
   697  2714 88                 	dey
   698  2715 10f5               	bpl -
   699                          .no_match
   700  2717 acf225             	ldy .streams_tmp + 1
   701                          	; Check if legal
   702  271a c90d               	cmp #13
   703  271c f00a               	beq .case_conversion_done
   704  271e c920               	cmp #$20
   705  2720 9004               	bcc .not_legal
   706  2722 c97f               	cmp #$7f
   707  2724 9002               	bcc .is_legal
   708                          .not_legal
   709  2726 38                 	sec
   710  2727 60                 	rts
   711                          .is_legal
   712                          !ifndef ACORN {
   713                          ; .case_conversion
   714                          	cmp #$41
   715                          	bcc .case_conversion_done
   716                          	cmp #$5b
   717                          	bcs .not_upper_case
   718                          	; Upper case. $41 -> $c1
   719                          	ora #$80
   720                          	bcc .case_conversion_done
   721                          .not_upper_case
   722                          	cmp #$61
   723                          	bcc .case_conversion_done
   724                          	cmp #$7b
   725                          	bcs .case_conversion_done
   726                          	; Lower case. $61 -> $41
   727                          	and #$df
   728                          }
   729                          .case_conversion_done
   730  2728 18                 	clc
   731  2729 60                 	rts
   732                          .match
   733  272a c8                 	iny
   734  272b b90126             	lda character_translation_table_out,y
   735  272e acf225             	ldy .streams_tmp + 1
   736  2731 18                 	clc
   737  2732 60                 	rts
   738                          
   739                          }

; ******** Source: ozmoo.asm
   220                          
   221                          !ifndef ACORN {
   222                          !source "disk.asm"
   223                          } else {

; ******** Source: acorn-disk.asm
     1                          ; Acorn version of disk.asm. There are a few brief bits of code here which are
     2                          ; duplicates of code in disk.asm, but on the whole things are so different it
     3                          ; seems better to keep this completely separate and accept the duplication.
     4                          
     5                          ; SFTODO: readblock could be part of discardable init code on a non-VMEM build;
     6                          ; maybe make it a macro so ozmoo.asm can put it in discardable init or not as
     7                          ; appropriate? (If we support restart on non-VMEM builds for Acorn, we'd maybe
     8                          ; need readblock to do the check for having the game disc in the drive.)
     9                          
    10                          ; SFTODODATA 6
    11                          !ifdef VMEM {
    12  2733 00                 nonstored_blocks		!byte 0
    13                          }
    14  2734 02                 readblocks_numblocks	!byte 2
    15  2735 0000               readblocks_currentblock	!byte 0,0 ; 257 = ff 1
    16                          !ifndef ACORN_ADFS {
    17  2737 00                 readblocks_base         !byte 0
    18                          !ifndef ACORN_DSD {
    19  2738 00                                         !byte 0
    20                          }
    21                          }
    22                          
    23                          readblocks
    24                              ; read <n> blocks (each 256 bytes) from disc to memory
    25                              ; set values in readblocks_* before calling this function
    26                              ; register: a,x,y
    27                          !ifdef TRACE_FLOPPY {
    28                              jsr newline
    29                              jsr print_following_string
    30                              !text "readblocks (n,zp,c64) ",0
    31                              lda readblocks_numblocks
    32                              jsr printa
    33                              jsr comma
    34                              lda readblocks_currentblock + 1
    35                              jsr print_byte_as_hex
    36                              lda readblocks_currentblock
    37                              jsr print_byte_as_hex
    38                              jsr comma
    39                              ; SFTODO: FOR TURBO COPRO ARGUABLY WE SHOULD PRINT readblocks_mempos + 2
    40                              lda readblocks_mempos + 1
    41                              jsr print_byte_as_hex
    42                              lda readblocks_mempos 
    43                              jsr print_byte_as_hex
    44                              jsr newline
    45                          }
    46                          !ifdef ACORN_SWR {
    47                              ; Our caller is responsible for paging in a suitable RAM bank and setting
    48                              ; readblocks_mempos to the physical address within that bank. All we do
    49                              ; here to accommodate sideways RAM is use a bounce buffer when loading to
    50                              ; it.
    51  2739 ad3d28                 lda readblocks_mempos + 1
    52  273c 48                     pha
    53  273d 1008                   bpl +
    54  273f a905                   lda #>scratch_double_page
    55  2741 8d3d28                 sta readblocks_mempos + 1
    56  2744 8d1128                 sta .copy_lda_abs_y + 2
    57                          +
    58                          }
    59                          
    60                              ; We prefix errors with two newlines, so even if we're part way through a
    61                              ; line there will always be at least one blank line above the error message.
    62                              ; We use s_printchar for output here, as this will be mixed in with the
    63                              ; output from the game which was running when this disc read was required.
    64  2747 a202                   ldx #2
    65  2749 a000                   ldy #error_print_s_printchar
    66  274b 20d320                 jsr setjmp
    67  274e f029                   beq .no_error
    68                          !ifdef ACORN_ADFS {
    69                              jsr close_osgbpb_block_handle
    70                          }
    71  2750 20ab20                 jsr error_print_following_string
    72                              ; SFTODO: It's a bit of a luxury item, but it might be nice to allow * to
    73                              ; enter * commands here - if you're on ADFS and you accidentally stick a
    74                              ; DFS floppy in, you can get stuck in an unrecoverable "Bad FS map" retry
    75                              ; loop, and if you had a * prompt you could do a *MOUNT and (I think) fix
    76                              ; things. In reality no one is really likely to get caught by this, but
    77                              ; all else being equal it might be nice to allow a way out.
    78  2753 0d50726573732053...    !text 13, "Press SPACE to retry...", 0
    79  276c 204628                 jsr wait_for_space
    80  276f a90d                   lda #13
    81  2771 20e823                 jsr s_printchar
    82  2774 a90d                   lda #13
    83  2776 20e823                 jsr s_printchar
    84                          .no_error
    85                          
    86                          !ifndef ACORN_ADFS {
    87                              ; This code is based on the BASIC FNdisk() function here:
    88                              ; http://beebwiki.mdfs.net/OSWORD_%267F#Coding
    89                          
    90                              ; Convert (256 byte) block number within game into drive, track and sector.
    91                          .drive_bits = 24+8
    92                          .track = division_result
    93                          .sector = remainder
    94                          .drive = remainder + 1
    95                          !ifndef ACORN_DSD {
    96  2779 18                     clc
    97  277a ad3527                 lda readblocks_currentblock
    98  277d 6d3727                 adc readblocks_base
    99  2780 8d1823                 sta dividend
   100  2783 ad3627                 lda readblocks_currentblock + 1
   101  2786 6d3827                 adc readblocks_base + 1
   102  2789 8d1923                 sta dividend + 1
   103  278c a90a                   lda #10
   104  278e 8d1623                 sta divisor
   105  2791 a920                   lda #.drive_bits + 0
   106  2793 8d1b23                 sta .drive
   107  2796 a900                   lda #0
   108  2798 8d1723                 sta divisor + 1
   109  279b 201e23                 jsr divide16
   110                          
   111  279e ad1823                 lda division_result
   112  27a1 8d1823                 sta .track
   113  27a4 ad1a23                 lda remainder
   114  27a7 8d1a23                 sta .sector
   115                          } else {
   116                              clc
   117                              lda readblocks_currentblock
   118                              sta dividend
   119                              lda readblocks_currentblock + 1
   120                              sta dividend + 1
   121                              lda #20
   122                              sta divisor
   123                              lda #0
   124                              sta divisor + 1
   125                              jsr divide16
   126                          
   127                              lda division_result
   128                              clc
   129                              adc readblocks_base
   130                              sta .track
   131                              lda remainder ; cylinder sector, 0-9 on drive 0, 10-19 on drive 2
   132                              ldx #0
   133                              cmp #10
   134                              bcc +
   135                              ; sec - carry is already set
   136                              sbc #10
   137                              ldx #2
   138                          +   sta .sector
   139                              txa
   140                              ora #.drive_bits
   141                              sta .drive
   142                          }
   143                          
   144                          .retry
   145  27aa ad1b23                 lda .drive
   146  27ad 8d3b28                 sta .osword_7f_block_drive
   147  27b0 ad1823                 lda .track
   148  27b3 8d4228                 sta .osword_7f_block_track
   149  27b6 ad1a23                 lda .sector
   150  27b9 8d4328                 sta .osword_7f_block_sector
   151                              ; We know the number of blocks is going to be <= vmem_block_pagecount, so
   152                              ; there's no need to loop round in case it's too many to read. (Note also
   153                              ; that you can't read across a track boundary using OSWORD $7F, but we align
   154                              ; the data file to avoid needing to do this.)
   155  27bc ad3427                 lda readblocks_numblocks
   156  27bf 0920                   ora #$20
   157  27c1 8d4428                 sta .osword_7f_block_sector_size_and_count
   158                          
   159                          !ifdef FAKE_READ_ERRORS {
   160                              ; Test code to fake intermittent read failures
   161                              jsr kernal_readtime
   162                              cmp #25
   163                              bcs +
   164                              brk
   165                              !byte 'A' ; error code, use a printable character to confirm it isn't printed
   166                              !text "Fake read error"
   167                              !byte 0
   168                          +
   169                          }
   170                          
   171  27c4 a97f                   lda #osword_floppy_op
   172  27c6 a23b                   ldx #<.osword_7f_block
   173  27c8 a028                   ldy #>.osword_7f_block
   174  27ca 20f1ff                 jsr osword
   175  27cd ad4528                 lda .osword_7f_block_result
   176  27d0 f02d                   beq .read_ok
   177  27d2 c910                   cmp #$10
   178  27d4 f0d4                   beq .retry
   179                          !if 1 { ; SFTODO EXPERIMENTAL - 24 bytes (plus " &xx"=4 in error message)
   180  27d6 48                     pha
   181  27d7 4a                     lsr
   182  27d8 4a                     lsr
   183  27d9 4a                     lsr
   184  27da 4a                     lsr
   185  27db a2fe                   ldx #(-2 & $ff)
   186  27dd 290f               -   and #$0f
   187  27df c90a                   cmp #10
   188  27e1 9002                   bcc +
   189  27e3 6906                   adc #'A'-10-1-'0'
   190  27e5 6930               +   adc #'0'
   191  27e7 9dfe26                 sta .disc_read_error_number-(-2 & $ff),x
   192  27ea 68                     pla
   193  27eb e8                     inx
   194  27ec d0ef                   bne -
   195                          }
   196  27ee 00                     brk
   197  27ef 00                     !byte 0
   198  27f0 4469736320657272...    !text "Disc error &"
   199                          .disc_read_error_number
   200                              ; SFTODO: The " &xx" bit should only be included if the above code is
   201  27fc 7878                   !text "xx"
   202  27fe 00                     !byte 0
   203                          .read_ok
   204                          } else { ; ACORN_ADFS
   205                              lda osgbpb_block_handle
   206                              bne .file_is_open
   207                              lda #osfind_open_input
   208                              ldx #<game_data_filename
   209                              ldy #>game_data_filename
   210                              jsr osfind
   211                              bne +
   212                              brk
   213                          cant_open_data_error
   214                              !byte 0
   215                              !text "Can't open DATA"
   216                              !byte 0
   217                          +   sta osgbpb_block_handle
   218                          
   219                          .file_is_open
   220                              ; We could just use osgbpb_block_data_address for readblocks_mempos,
   221                              ; but OSGBPB would then increment it automatically - this is sort of a good
   222                              ; thing, but it creates small variations in behaviour compared to DFS which
   223                              ; then require tweaks elsewhere to compensate.
   224                              ;
   225                              ; If the game isn't an exact multiple of 512 bytes long, reads of the last
   226                              ; 512-byte block will return fewer bytes, but that's fine - there's no need
   227                              ; to pad the game data on disc.
   228                              lda readblocks_mempos
   229                              sta osgbpb_block_data_address + 0
   230                              lda readblocks_mempos + 1
   231                              sta osgbpb_block_data_address + 1
   232                          !ifdef ACORN_TURBO_SUPPORTED {
   233                              lda readblocks_mempos + 2
   234                              sta osgbpb_block_data_address + 2
   235                          }
   236                              lda #0
   237                              sta osgbpb_block_transfer_length + 0
   238                              sta osgbpb_block_pointer + 0
   239                              lda readblocks_numblocks
   240                              sta osgbpb_block_transfer_length + 1
   241                              lda readblocks_currentblock
   242                              sta osgbpb_block_pointer + 1
   243                              lda readblocks_currentblock + 1
   244                              sta osgbpb_block_pointer + 2
   245                              lda #osgbpb_read_using_ptr
   246                              ldx #<osgbpb_block
   247                              ldy #>osgbpb_block
   248                              jsr osgbpb
   249                          }
   250                          
   251  27ff 202121                 jsr set_default_error_handler
   252                          
   253                          !ifdef ACORN_SWR {
   254  2802 68                     pla
   255  2803 101c                   bpl +
   256  2805 8d3d28                 sta readblocks_mempos + 1
   257  2808 8d1428                 sta .copy_sta_abs_y + 2
   258  280b a201                   ldx #1
   259  280d a000                   ldy #0
   260                          -   
   261                          .copy_lda_abs_y
   262  280f b90005                 lda scratch_double_page,y
   263                          .copy_sta_abs_y
   264  2812 9900ff                 sta $ff00,y ; patched
   265  2815 c8                     iny
   266  2816 d0f7                   bne -
   267  2818 ee1428                 inc .copy_sta_abs_y + 2
   268  281b ee1128                 inc .copy_lda_abs_y + 2
   269  281e ca                     dex
   270  281f 10ee                   bpl -
   271                          +
   272                          }
   273                          
   274                              ; Now we know the operation has succeeded and there won't be a retry,
   275                              ; increment the disc and memory positions.
   276  2821 18                     clc
   277  2822 ad3d28                 lda readblocks_mempos + 1
   278  2825 6d3427                 adc readblocks_numblocks
   279  2828 8d3d28                 sta readblocks_mempos + 1
   280  282b 18                     clc
   281  282c ad3527                 lda readblocks_currentblock
   282  282f 6d3427                 adc readblocks_numblocks
   283  2832 8d3527                 sta readblocks_currentblock
   284  2835 9003                   bcc +
   285  2837 ee3627                 inc readblocks_currentblock + 1
   286                          .readblocks_rts
   287  283a 60                 +   rts
   288                          
   289                          !ifndef ACORN_ADFS {
   290                          .osword_7f_block
   291                          .osword_7f_block_drive
   292  283b 00                      !byte 0   ; drive
   293                          readblocks_mempos
   294  283c 0000                    !word 0   ; low order word of address
   295  283e 0000                    !word 0   ; high order word of address
   296  2840 03                      !byte 3   ; number of parameters
   297  2841 53                      !byte $53 ; read data
   298                          .osword_7f_block_track
   299  2842 00                      !byte 0   ; track
   300                          .osword_7f_block_sector
   301  2843 00                      !byte 0   ; sector
   302                          .osword_7f_block_sector_size_and_count
   303  2844 00                      !byte 0   ; sector size and count
   304                          .osword_7f_block_result
   305  2845 00                      !byte 0   ; result
   306                          } else { ; ACORN_ADFS
   307                          readblocks_mempos
   308                              !word 0
   309                          !ifdef ACORN_TURBO_SUPPORTED {
   310                              !byte 0
   311                          }
   312                          }
   313                          
   314                          wait_for_space
   315  2846 a915                   lda #osbyte_flush_buffer
   316  2848 a200                   ldx #buffer_keyboard
   317  284a 20f4ff                 jsr osbyte
   318  284d 20e0ff             -   jsr osrdch
   319  2850 c920                   cmp #' '
   320  2852 d0f9                   bne -
   321  2854 60                     rts
   322                          
   323                          WANT_RESTART = 1
   324                          z_ins_restart
   325                          !ifdef ACORN_NO_SHADOW {
   326  2855 209b21                 jsr undo_mode_7_3c00
   327                              ; Turn the cursor off during the restart; switching to proper mode 7 will
   328                              ; have re-enabled it without updating cursor_status, so we just call
   329                              ; init_cursor_control and that will turn it off again.
   330  2858 20ce38                 jsr init_cursor_control
   331                          }
   332                          
   333                              ; SFTODO: We should probably check the game disc is in the drive here,
   334                              ; although really the user shouldn't have taken it out anyway. Is this that
   335                              ; much different than them doing so during normal gameplay? readblocks will
   336                              ; (of course) happily read junk from whatever random disc is in the drive.
   337                          
   338                              ; Since we discarded our initialisation code on startup, we have to
   339                              ; re-execute the Ozmoo binary from disc to restart.
   340                          !ifndef ACORN_ADFS {
   341                              ; On DFS, the loader puts the restart command at this address; this saves a
   342                              ; tiny bit of space in the binary and (more importantly) means the binary
   343                              ; doesn't need to know at build time whether it's on drive 0 or drive 2.
   344                          restart_command = game_data_filename_or_restart_command
   345  285b a22f                   ldx #<restart_command
   346  285d a004                   ldy #>restart_command
   347                          } else {
   348                          game_data_filename = game_data_filename_or_restart_command
   349                              ; Build up the restart command at scratch_page by copying game_data_filename
   350                              ; and replacing the last component by the executable leafname.
   351                          .last_dot = zp_temp
   352                              lda #'/'
   353                              sta scratch_page
   354                              ldx #0
   355                          -   inx
   356                              lda game_data_filename - 1,x
   357                              sta scratch_page,x
   358                              cmp #'.'
   359                              bne +
   360                              stx .last_dot
   361                          +   cmp #13
   362                              bne -
   363                              ldx .last_dot
   364                              ldy #255
   365                          -   inx
   366                              iny
   367                              lda .executable_leafname,y
   368                              sta scratch_page,x
   369                              cmp #13
   370                              bne -
   371                              ldx #<scratch_page
   372                              ldy #>scratch_page
   373                          }
   374  285f 4cf7ff                 jmp oscli
   375                          
   376                          !ifdef ACORN_ADFS {
   377                          .executable_leafname
   378                          !ifndef ACORN_SWR {
   379                              !text "OZMOO2P", 13
   380                          } else {
   381                              !ifndef ACORN_ELECTRON_SWR {
   382                                  !ifndef ACORN_NO_SHADOW {
   383                                      !text "OZMOOSH", 13
   384                                  } else {
   385                                      !text "OZMOOB", 13
   386                                  }
   387                              } else { ; ACORN_ELECTRON_SWR
   388                                  !text "OZMOOE", 13
   389                              }
   390                          }
   391                          }
   392                          
   393                          z_ins_restore
   394                          !ifdef Z3 {
   395                          	jsr restore_game
   396                          	beq +
   397                          	jmp make_branch_true
   398                          +	jmp make_branch_false
   399                          }
   400                          !ifdef Z4 {
   401                          	jsr restore_game
   402                          	beq +
   403                          	inx
   404                          +	jmp z_store_result
   405                          }
   406                          !ifdef Z5PLUS {
   407  2862 204f2a             	jsr restore_game
   408  2865 f001               	beq +
   409  2867 e8                 	inx
   410  2868 4c2e40             +	jmp z_store_result
   411                          }
   412                          
   413                          z_ins_save
   414                          !ifdef Z3 {
   415                          	jsr save_game
   416                          	beq +
   417                          	jmp make_branch_true
   418                          +	jmp make_branch_false
   419                          }
   420                          !ifdef Z4 {
   421                          	jsr save_game
   422                          	jmp z_store_result
   423                          }
   424                          !ifdef Z5PLUS {
   425  286b 20732a             	jsr save_game
   426  286e 4c2e40             	jmp z_store_result
   427                          }
   428                          
   429                          !zone save_restore {
   430                          .swap_pointers_for_save
   431  2871 a20c               	ldx #zp_bytes_to_save - 1
   432  2873 b526               -	lda zp_save_start,x
   433  2875 bcf349             	ldy stack_start - zp_bytes_to_save,x
   434  2878 9df349             	sta stack_start - zp_bytes_to_save,x
   435  287b 9426               	sty zp_save_start,x
   436  287d ca                 	dex
   437  287e 10f3               	bpl -
   438                          .swap_pointers_for_save_rts
   439  2880 60                 	rts
   440                          
   441                          ; It's faster and simpler to save/restore using OSFILE but it can't access
   442                          ; sideways RAM, so we can only use if it's we're not using ACORN_SWR_BIG_DYNMEM.
   443                          ; SF: ENHANCEMENT: This is bit too pessimistic - since we only save precisely
   444                          ; the number of bytes in dynamic memory as specified by the game's header, even
   445                          ; if nonstored_blocks has overflowed into sideways RAM due to rounding up of
   446                          ; some kind, we can still use OSFILE if the actual dynamic memory fits into main
   447                          ; RAM. At the price of some extra complexity and trial builds in the build
   448                          ; script, we could have it set ACORN_SAVE_RESTORE_OSFIND instead of tying it to
   449                          ; ACORN_SWR_BIG_DYNMEM like this.
   450                          !ifndef ACORN_SWR_BIG_DYNMEM {
   451                          ACORN_SAVE_RESTORE_OSFILE = 1
   452                          }
   453                          
   454                          !ifndef ACORN_SAVE_RESTORE_OSFILE {
   455                          .save_op = osfind_open_output
   456                          .load_op = osfind_open_input
   457                          } else {
   458                          .save_op = osfile_save
   459                          .load_op = osfile_load
   460                          }
   461                          
   462                          .filename_buffer = scratch_page
   463                          .osfile_check_buffer = scratch_page + 0x100 - 0x12
   464                          .filename_buffer_size = (.osfile_check_buffer - .filename_buffer) - 1
   465                          ; Returns with Z set iff user wants to abort the save/restore.
   466                          ; SFTODO: Should we save the current filesystem number before user enters any
   467                          ; * commands and reselect that filesystem afterwards before we access any game
   468                          ; data?
   469                          .get_filename
   470                              ; We use raw OS text output here, because * commands will do and their output
   471                              ; will mix with ours.
   472                              ; Start off with the OS text cursor where it should be.
   473  2881 208b23                 jsr s_cursor_to_screenrowcolumn
   474                              ; Set up a text window so the raw OS text output only scrolls what it should.
   475  2884 18                     clc
   476  2885 201125                 jsr s_pre_scroll
   477                              ; Print the initial descriptive prompt
   478  2888 20bd23                 jsr set_os_normal_video
   479  288b a929                   lda #>.filename_msg
   480  288d a223                   ldx #<.filename_msg
   481  288f 20e621                 jsr printstring_os
   482                              ; Loop round printing a brief prompt, reading input and acting accordingly.
   483                          .get_filename_loop
   484                          .filename_prompt_loads
   485  2892 a9ff                   lda #$ff ; high byte
   486  2894 a2ff                   ldx #$ff ; low byte
   487  2896 20e621                 jsr printstring_os
   488                              ; Read a string from the keyboard. We don't use OSWORD 0 because it allows
   489                              ; the user to type arbitrary control codes and have them sent through to
   490                              ; OSWRCH.
   491  2899 20d538                 jsr turn_on_cursor
   492  289c a200                   ldx #0
   493                          .input_loop
   494  289e 20e0ff                 jsr osrdch
   495                              ; We don't call check_user_interface_controls here. We could do, but:
   496                              ; - It corrupts X. This would be easy to work around.
   497                              ; - In mode 7, the fact we have a text window in effect will interfere with
   498                              ;   changing the colour of the status bar. This could be worked around, but
   499                              ;   it is a big faff and quite a lot of code for very little real benefit.
   500  28a1 c90d                   cmp #cr
   501  28a3 f020                   beq .input_loop_done
   502  28a5 c920                   cmp #32
   503  28a7 90f5                   bcc .input_loop
   504  28a9 c97f                   cmp #del
   505  28ab f00d                   beq .delete
   506  28ad e0ec                   cpx #.filename_buffer_size - 1
   507  28af f0ed                   beq .input_loop
   508  28b1 20eeff                 jsr oswrch
   509  28b4 9d0005                 sta .filename_buffer,x
   510  28b7 e8                     inx
   511  28b8 d0e4                   bne .input_loop ; Always branch
   512                          .delete
   513  28ba e000                   cpx #0
   514  28bc f0e0                   beq .input_loop
   515  28be 20eeff                 jsr oswrch
   516  28c1 ca                     dex
   517  28c2 4c9e28                 jmp .input_loop
   518                          .input_loop_done
   519  28c5 9d0005                 sta .filename_buffer,x
   520  28c8 20e7ff                 jsr osnewl
   521  28cb 20db38                 jsr turn_off_cursor
   522                              ; Skip leading spaces, if any.
   523  28ce a0ff                   ldy #$ff
   524  28d0 c8                 -   iny
   525  28d1 b90005                 lda .filename_buffer,y
   526  28d4 c920                   cmp #' '
   527  28d6 f0f8                   beq - 
   528                              ; Check for empty string or * command.
   529  28d8 c90d                   cmp #13
   530  28da f0a4                   beq .swap_pointers_for_save_rts
   531  28dc c92a                   cmp #'*'
   532  28de f018                   beq .oscli
   533                              ; It's a filename. We could just return it and let the filing system do what
   534                              ; it likes with it. However, a) I seem to have a tendency to type "SAVE FOO"
   535                              ; at the save prompt b) DFS silently truncates filenames at a space, and
   536                              ; these two things together mean I end up saving as SAVE instead of FOO as
   537                              ; I intended. Since spaces aren't allowed in filenames, we check for this.
   538  28e0 c8                 -   iny
   539  28e1 b90005                 lda .filename_buffer,y
   540  28e4 c920                   cmp #' '
   541  28e6 f006                   beq .space_in_filename
   542  28e8 c90d                   cmp #13
   543  28ea d0f4                   bne -
   544  28ec aa                     tax ; clear Z
   545  28ed 60                     rts
   546                          .space_in_filename
   547  28ee a929                   lda #>.space_in_filename_msg
   548  28f0 a2ab                   ldx #<.space_in_filename_msg
   549  28f2 20e621                 jsr printstring_os
   550  28f5 4c9228                 jmp .get_filename_loop
   551                          .oscli
   552  28f8 a201                   ldx #1
   553  28fa a001                   ldy #error_print_osasci
   554  28fc 20d320                 jsr setjmp
   555  28ff d00f                   bne .oscli_error
   556                          .no_oscli_error
   557                              ; We re-enable Escape generating errors while we're executing the command,
   558                              ; this way the user can terminate a long-running command.
   559  2901 a200                   ldx #0
   560  2903 203f22                 jsr do_osbyte_rw_escape_key
   561  2906 a200                   ldx #<.filename_buffer
   562  2908 a005                   ldy #>.filename_buffer
   563  290a 20f7ff                 jsr oscli
   564  290d 4c1329                 jmp .oscli_done
   565                          .oscli_error
   566  2910 20e7ff                 jsr osnewl
   567                              +make_acorn_screen_hole_jmp
   568                          .oscli_done
   569  2913 a201                   ldx #1
   570  2915 203f22                 jsr do_osbyte_rw_escape_key
   571                              ; There might be an Escape pending which the * command didn't acknowledge,
   572                              ; so we do it ourselves. (To see this is necessary, do *ROMS on OS 3.20 and
   573                              ; press Escape while the output is being produced.)
   574  2918 a97e                   lda #osbyte_acknowledge_escape
   575  291a 20f4ff                 jsr osbyte
   576  291d 202121                 jsr set_default_error_handler
   577  2920 4c9228                 jmp .get_filename_loop
   578                          .filename_msg
   579                              ; This message is tweaked to work nicely in 40 or 80 column mode without
   580                              ; needing word wrapping code.
   581  2923 506c656173652065...    !text "Please enter a filename or * command or just press RETURN to carry on playing.", 13
   582                              ; SFTODO: We could omit the following message (don't forget all builds would
   583                              ; need the 0!) on a non-VMEM build, where you never need to keep the game disc
   584                              ; in. Arguably it's clearer to say it, and it's harmless except for using
   585                              ; a few bytes of memory. (But as I've said elsewhere, you do need the game
   586                              ; disc in for RESTART when I support this on non-VMEM.)
   587  2972 596f752063616e20...    !text "You can safely remove the game disc now.", 13, 0
   588                          .save_prompt
   589  299c 736176653e00           !text "save>", 0
   590                          .restore_prompt
   591  29a2 726573746f72653e...    !text "restore>", 0
   592                          .space_in_filename_msg
   593  29ab 536f7272792c206e...    !text "Sorry, no spaces allowed in filenames.", 13, 0
   594                          
   595                          !ifdef VMEM {
   596                              ; This uses s_printchar for output; we've reverted to the normal Ozmoo
   597                              ; output mechanism by the time this is called, and readblocks might use it
   598                              ; to print error messages if we get disc errors during the read, so we need
   599                              ; to be consistent with that.
   600                          .get_game_disc_back
   601                              ; We check to see if the game disc is inserted by reading block 0 of the
   602                              ; game file into scratch memory and comparing its CRC it with the one we
   603                              ; calculated on startup. Although save games could include this data,
   604                              ; thanks to the small number of zp bytes included at the beginning of a
   605                              ; save, no sector on a save game disc will have a copy of block 0. It's
   606                              ; also likely something in that block has been modified between startup and
   607                              ; saving the game. Of course it's possible to contrive situations where this
   608                              ; check will allow a non-game disc to be left in the drive, but this is
   609                              ; pretty good and it avoids the need for spurious prompts in the most common
   610                              ; case where the user didn't take the disc out at all.
   611                          .retry
   612  29d3 a900                   lda #0
   613  29d5 8d3527                 sta readblocks_currentblock
   614  29d8 8d3627                 sta readblocks_currentblock + 1
   615                          !ifdef ACORN_TURBO_SUPPORTED {
   616                              sta readblocks_mempos + 2
   617                          }
   618  29db a901                   lda #1
   619  29dd 8d3427                 sta readblocks_numblocks
   620  29e0 a900                   lda #<scratch_page
   621  29e2 8d3c28                 sta readblocks_mempos
   622  29e5 a905                   lda #>scratch_page
   623  29e7 8d3d28                 sta readblocks_mempos + 1
   624  29ea 203927                 jsr readblocks
   625  29ed a900                   lda #0
   626  29ef a200                   ldx #<scratch_page
   627  29f1 a005                   ldy #>scratch_page
   628  29f3 20fe21                 jsr calculate_crc
   629  29f6 ec0504                 cpx game_disc_crc
   630  29f9 d005                   bne .crc_bad
   631  29fb cc0604                 cpy game_disc_crc + 1
   632  29fe f00d                   beq .crc_ok
   633                          .crc_bad
   634                          !ifdef ACORN_ADFS {
   635                              jsr close_osgbpb_block_handle
   636                          }
   637  2a00 a92a                   lda #>.reinsert_prompt
   638  2a02 a20e                   ldx #<.reinsert_prompt
   639  2a04 209b38                 jsr printstring_raw
   640  2a07 204628                 jsr wait_for_space
   641  2a0a 4cd329                 jmp .retry
   642                          .crc_ok
   643  2a0d 60                     rts
   644                          .reinsert_prompt
   645                              ; This message is tweaked to work nicely in 40 or 80 column mode without
   646                              ; needing word wrapping code.
   647  2a0e 0d506c6561736520...    !text 13, "Please put the game disc in drive 0 and press SPACE...", 13, 0
   648                          }
   649                          
   650                          .io_restore_output
   651                              ; We're about to return control to our caller, so we need to prepare for
   652                              ; a return to Ozmoo-mediated output.
   653                              ; Pick up the current OS cursor position and use it as the position of the
   654                              ; internal Ozmoo cursor used by s_printchar.
   655  2a47 20a023                 jsr s_screenrowcolumn_from_cursor
   656                              ; Reset the text window; this moves the OS cursor but it doesn't matter as
   657                              ; Ozmoo is now managing the cursor position again.
   658  2a4a a91a                   lda #vdu_reset_text_window
   659  2a4c 4ceeff                 jmp oswrch
   660                          
   661                          
   662                          
   663                          restore_game
   664  2a4f a929                   lda #>.restore_prompt
   665  2a51 8d9328                 sta .filename_prompt_loads + 1
   666  2a54 a9a2                   lda #<.restore_prompt
   667  2a56 8d9528                 sta .filename_prompt_loads + 3
   668  2a59 a9ff                   lda #.load_op
   669  2a5b 207f2a                 jsr .save_restore_game
   670                              ; As described in section 8.4 of the Z-machine standards document, we need
   671                              ; to update the header in case the screen dimensions have changed compared
   672                              ; to when this game was saved.
   673  2a5e 08                     php
   674  2a5f 48                     pha
   675  2a60 a919                   +lda_screen_height
   676  2a62 8d204e             	sta story_start + header_screen_height_lines
   677                          !ifdef Z5PLUS {
   678  2a65 8d254e             	sta story_start + header_screen_height_units + 1
   679                          }
   680  2a68 a928                   +lda_screen_width
   681  2a6a 8d214e             	sta story_start + header_screen_width_chars
   682                          !ifdef Z5PLUS {
   683  2a6d 8d234e             	sta story_start + header_screen_width_units + 1
   684                          }
   685  2a70 68                     pla
   686  2a71 28                     plp
   687                          .restore_game_rts
   688  2a72 60                     rts
   689                              
   690                          +make_acorn_screen_hole
   691                          save_game
   692  2a73 a929                   lda #>.save_prompt
   693  2a75 8d9328                 sta .filename_prompt_loads + 1
   694  2a78 a99c                   lda #<.save_prompt
   695  2a7a 8d9528                 sta .filename_prompt_loads + 3
   696  2a7d a900                   lda #.save_op
   697                              ; fall through to .save_restore_game
   698                          .save_restore_game
   699                          .osfile_or_osfind_op = zp_temp ; 1 byte
   700                          .result = zp_temp + 1 ; 1 byte, 0 for failure, 1 for success
   701                          !ifndef ACORN_SAVE_RESTORE_OSFILE {
   702                              .start_ptr = zp_temp + 2 ; 2 bytes
   703                          !ifdef ACORN_ELECTRON_SWR {
   704                              .bytes_to_read = zp_temp + 4 ; 2 bytes
   705                          }
   706                          }
   707  2a7f 8575                   sta .osfile_or_osfind_op
   708                          
   709                          !ifdef ACORN_ADFS {
   710                              jsr close_osgbpb_block_handle
   711                          }
   712                          
   713                              ; We default the result to failure and only set it to success after actually
   714                              ; loading/saving something. If the user aborts the operation, that counts
   715                              ; as failure. See discussion at
   716                              ; https://stardot.org.uk/forums/viewtopic.php?f=2&t=19975&p=281210#p281204
   717                              ; and in the light of that, note that if this subroutine returned 1
   718                              ; (success) after a restore was aborted by the user, we wouldn't comply with
   719                              ; the observation in the Z-machine standard (under "restore") saying
   720                              ; "If the restore fails, 0 is returned, but once again this necessarily
   721                              ; happens since otherwise control is already elsewhere.", because we would
   722                              ; return 2 (z_ins_restore bumps 1->2) but control would not be elsewhere.
   723                              ; Finally, note that the Commodore 64 code treats aborting as failure.
   724  2a81 a900                   lda #0
   725  2a83 8576                   sta .result
   726  2a85 208128                 jsr .get_filename
   727  2a88 f05e                   beq .save_restore_game_cleanup_partial ; user aborted 
   728                          
   729                          	; Swap in z_pc and stack_ptr
   730                              ; We need to normalise z_local_vars_ptr and stack_ptr first so saves are
   731                              ; compatible between different builds.
   732  2a8a a527                   lda z_local_vars_ptr + 1
   733  2a8c 38                     sec
   734  2a8d e94a                   sbc #>stack_start
   735  2a8f 8527                   sta z_local_vars_ptr + 1
   736  2a91 a52c                   lda stack_ptr + 1
   737  2a93 38                     sec
   738  2a94 e94a                   sbc #>stack_start
   739  2a96 852c                   sta stack_ptr + 1
   740  2a98 207128             	jsr .swap_pointers_for_save
   741                          
   742                          	; Perform save or load
   743  2a9b a201                   ldx #1
   744  2a9d a001                   ldy #error_print_osasci
   745  2a9f 20d320                 jsr setjmp
   746  2aa2 f006                   beq .no_osfile_error
   747                          !ifndef ACORN_SAVE_RESTORE_OSFILE {
   748                              jsr close_osgbpb_block_handle
   749                          }
   750                              ; If this is a load and a disc error occurred partway through, the game is
   751                              ; probably in an inconsistent or otherwise corrupt state. There really isn't
   752                              ; much we can do - we don't have enough RAM to take a copy of the game
   753                              ; before the load so we can restore it if the load fails. SFTODO: While it
   754                              ; would break savegame compatibility with Commodore port - unless the change
   755                              ; was pushed upstream - we could calculate a CRC over the save and put it
   756                              ; in an additional two bytes at the start. We could then re-calculate the
   757                              ; CRC after a load and if it doesn't match we at least know the load failed
   758                              ; in a dangerous way and can hang/print a very loud warning. (Most errors
   759                              ; are harmless, e.g. "file not found", so we need the CRC to distinguish
   760                              ; harmless and dangerous errors.) This would work well, but it would add
   761                              ; extra code (less free RAM => more disc access) for an unlikely case. (I
   762                              ; don't think the savegame compatibility is a big issue; even if this ever
   763                              ; turns out to be useful, it's easy enough to chop two bytes off the front
   764                              ; of an Acorn file before transferring to Commodore or to calculate a CRC
   765                              ; for a Commodore savegame before loading onto Acorn.) I do already have CRC
   766                              ; code now for the disc swap, so this wouldn't cost all that much extra.
   767                              ; (I'm not super keen to do this, but savegame compatibility with the C64
   768                              ; is a red herring, since those savegames will include some absolute C64
   769                              ; addresses in the zp bytes and would need a trivial-ish fixup *anyway*,
   770                              ; they would not "just work".)
   771  2aa4 20e7ff                 jsr osnewl
   772  2aa7 4ccd2a                 jmp .save_restore_game_cleanup_full
   773                          .no_osfile_error
   774                              ; If it's a save, check if we're going to overwrite an existing file and
   775                              ; ask the user if that's OK.
   776  2aaa a575                   lda .osfile_or_osfind_op
   777  2aac c900                   cmp #.save_op
   778  2aae d005                   bne .not_save
   779  2ab0 20f32a                 jsr .check_for_overwrite
   780  2ab3 d018                   bne .save_restore_game_cleanup_full
   781                          .not_save
   782                              ; SFTODO: This code has changed and !ifdef/!ifndef blocks can be combined/made into elses
   783                          !ifdef ACORN_SAVE_RESTORE_OSFILE {
   784                              ; The OSFILE block is updated after the call, so we have to reset it via code
   785                              ; every time.
   786  2ab5 a211                   ldx #.osfile_save_load_block_length - 1
   787  2ab7 bd602b             -   lda .osfile_save_load_block_master,x
   788  2aba 9d722b                 sta .osfile_save_load_block,x
   789  2abd ca                     dex
   790  2abe 10f7                   bpl -
   791                          } else {
   792                              lda #<(stack_start - zp_bytes_to_save)
   793                              sta .start_ptr
   794                              lda #>(stack_start - zp_bytes_to_save)
   795                              sta .start_ptr + 1
   796                          !ifndef ACORN_ELECTRON_SWR {
   797                          .save_length = ACORN_DYNAMIC_SIZE_BYTES + stack_size + zp_bytes_to_save
   798                              lda #<.save_length
   799                              sta .osgbpb_save_length
   800                              lda #>.save_length
   801                              sta .osgbpb_save_length + 1
   802                          } else {
   803                              ; On the Electron build, .osfile_pseudo_emulation sets .osgbpb_save_length.
   804                          }
   805                          }
   806  2ac0 a575                   lda .osfile_or_osfind_op
   807                          !ifdef ACORN_SAVE_RESTORE_OSFILE {
   808  2ac2 a272                   ldx #<.osfile_save_load_block
   809  2ac4 a02b                   ldy #>.osfile_save_load_block
   810  2ac6 20ddff                 jsr osfile
   811                          } else {
   812                              jsr .osfile_pseudo_emulation
   813                          }
   814  2ac9 a901                   lda #1
   815  2acb 8576                   sta .result
   816                          
   817                          .save_restore_game_cleanup_full
   818                          	; Swap out z_pc and stack_ptr
   819  2acd 207128             	jsr .swap_pointers_for_save
   820                              ; We need to un-normalise z_local_vars_ptr and stack_ptr now.
   821  2ad0 a527                   lda z_local_vars_ptr + 1
   822  2ad2 18                     clc
   823  2ad3 694a                   adc #>stack_start
   824  2ad5 8527                   sta z_local_vars_ptr + 1
   825  2ad7 a52c                   lda stack_ptr + 1
   826  2ad9 18                     clc
   827  2ada 694a                   adc #>stack_start
   828  2adc 852c                   sta stack_ptr + 1
   829  2ade 202121                 jsr set_default_error_handler
   830                              ; If we just restored we have updated z_pc and need to take that into
   831                              ; account. This is unnecessary but harmless if we just saved.
   832                          !ifdef ACORN_SWR {
   833                              ; We set zp_pc_h to an invalid value to avoid any risk of relying on an
   834                              ; outdated value in mempointer_ram_bank.
   835  2ae1 a9ff                   lda #$ff
   836  2ae3 850a                   sta zp_pc_h
   837                          }
   838                          !ifdef ACORN_TURBO_SUPPORTED {
   839                              ; We set zp_pc_h to an invalid value to avoid any risk of relying on an
   840                              ; outdated value in mempointer_turbo_bank.
   841                              lda #$ff
   842                              sta zp_pc_h
   843                          }
   844  2ae5 205139             	jsr get_page_at_z_pc
   845                          .save_restore_game_cleanup_partial
   846  2ae8 20472a              	jsr .io_restore_output
   847                              ; SFTODO: We should probably do get_game_disc_back even for non-VMEM, now
   848                              ; we always support RESTART.
   849                          !ifdef VMEM {
   850  2aeb 20d329                 jsr .get_game_disc_back
   851                          }
   852  2aee a900                   lda #0
   853  2af0 a676                   ldx .result ; must be last as caller will check Z flag
   854  2af2 60                 	rts
   855                          
   856                          ; On exit, beq will branch if it's OK to save the file.
   857                          .check_for_overwrite
   858                              ; We don't use .osfile_save_load_block here (even if it's in this build)
   859                              ; because we don't want to trample over the load address in there.
   860  2af3 a900                   lda #<.filename_buffer
   861  2af5 8dee05                 sta .osfile_check_buffer
   862  2af8 a905                   lda #>.filename_buffer
   863  2afa 8def05                 sta .osfile_check_buffer + 1
   864  2afd a905                   lda #osfile_read_catalogue_information
   865  2aff a2ee                   ldx #<.osfile_check_buffer
   866  2b01 a005                   ldy #>.osfile_check_buffer
   867  2b03 20ddff                 jsr osfile
   868  2b06 aa                     tax
   869                              +make_acorn_screen_hole_jmp
   870  2b07 f033                   beq .file_doesnt_exist
   871  2b09 a92b                   lda #>.overwrite_msg
   872  2b0b a23d                   ldx #<.overwrite_msg
   873  2b0d 20e621                 jsr printstring_os
   874  2b10 20d538                 jsr turn_on_cursor
   875  2b13 a915                   lda #osbyte_flush_buffer
   876  2b15 a200                   ldx #buffer_keyboard
   877  2b17 20f4ff                 jsr osbyte
   878  2b1a 20e0ff             -   jsr osrdch
   879  2b1d c959                   cmp #'Y'
   880  2b1f f00c                   beq +
   881  2b21 c979                   cmp #'y'
   882  2b23 f008                   beq +
   883  2b25 c94e                   cmp #'N'
   884  2b27 f004                   beq +
   885  2b29 c96e                   cmp #'n'
   886  2b2b d0ed                   bne -
   887  2b2d 29df               +   and #!$20 ; force upper case
   888  2b2f 20eeff                 jsr oswrch
   889  2b32 48                     pha
   890  2b33 20db38                 jsr turn_off_cursor
   891  2b36 20e7ff                 jsr osnewl
   892  2b39 68                     pla
   893  2b3a c959                   cmp #'Y'
   894                          .file_doesnt_exist
   895  2b3c 60                     rts
   896                          .overwrite_msg
   897  2b3d 46696c6520657869...    !text "File exists - overwrite it? (Y/N) ", 0
   898                          
   899                          !ifdef ACORN_SAVE_RESTORE_OSFILE {
   900                          .osfile_save_load_block_master
   901  2b60 0005                   !word .filename_buffer ; filename
   902  2b62 f349                   !word stack_start - zp_bytes_to_save ; load address low
   903  2b64 0000                   !word 0 ; load address high
   904  2b66 0000                   !word 0 ; exec address low: 0 => use specified load address (on load)
   905  2b68 0000                   !word 0 ; exec address high
   906  2b6a f349                   !word stack_start - zp_bytes_to_save ; start address low
   907  2b6c 0000                   !word 0 ; start address high
   908  2b6e 6f69                   !word story_start + ACORN_DYNAMIC_SIZE_BYTES ; end address low
   909  2b70 0000                   !word 0 ; end address high
   910                          .osfile_save_load_block_master_end
   911                          .osfile_save_load_block_length = .osfile_save_load_block_master_end - .osfile_save_load_block_master
   912                          .osfile_save_load_block
   913  2b72 0000000000000000...    !fill .osfile_save_load_block_length
   914                          } else { ; !ACORN_SAVE_RESTORE_OSFILE
   915                          .osgbpb_wrapper
   916                              ; These values in the OSGBPB block keep getting updated, so we have to
   917                              ; set them every time.
   918                              ldx #<scratch_page
   919                              stx osgbpb_block_data_address
   920                              ldx #>scratch_page
   921                              stx osgbpb_block_data_address + 1
   922                              ldx #<osgbpb_block
   923                              ldy #>osgbpb_block
   924                              jmp osgbpb
   925                          
   926                          ; This code pseudo-emulates OSFILE using OSFIND+OSGBPB, using a bounce buffer so
   927                          ; it can handle data located in sideways RAM. A contains the OSFIND operation
   928                          ; code on entry.
   929                          .osfile_pseudo_emulation
   930                          .chunk_size = 256 ; for documentation; we hard-code assumptions about this too
   931                              ; Open the file
   932                              ldx #<.filename_buffer
   933                              ldy #>.filename_buffer
   934                              jsr osfind
   935                              cmp #0
   936                              bne +
   937                              brk
   938                              !byte err_not_found
   939                              !text "Not found"
   940                              !byte 0
   941                          +   sta osgbpb_block_handle
   942                          
   943                              ; Is this a load or save?
   944                              lda .osfile_or_osfind_op
   945                              cmp #osfind_open_input
   946                              beq .osfile_pseudo_emulation_load
   947                          
   948                              ; It's a save.
   949                          !ifdef ACORN_ELECTRON_SWR {
   950                              ; On this build the "zero page"+stack area isn't contiguous with dynamic
   951                              ; memory, so we need to do two separate invocations of
   952                              ; .osfile_pseudo_emulation_save_internal.
   953                              lda #<(zp_bytes_to_save + stack_size)
   954                              sta .osgbpb_save_length
   955                              lda #>(zp_bytes_to_save + stack_size)
   956                              sta .osgbpb_save_length + 1
   957                              jsr .osfile_pseudo_emulation_save_internal
   958                              lda #<story_start
   959                              sta .start_ptr
   960                              lda #>story_start
   961                              sta .start_ptr + 1
   962                              lda #<ACORN_DYNAMIC_SIZE_BYTES
   963                              sta .osgbpb_save_length
   964                              lda #>ACORN_DYNAMIC_SIZE_BYTES
   965                              sta .osgbpb_save_length + 1
   966                              jsr .osfile_pseudo_emulation_save_internal
   967                              jmp close_osgbpb_block_handle
   968                          
   969                          .osfile_pseudo_emulation_save_internal
   970                          }
   971                          
   972                          .osgbpb_save_length = memory_buffer ; 2 bytes
   973                          .osgbpb_save_loop
   974                              ; Save the smaller of .chunk_size and .osgbpb_save_length bytes. If
   975                              ; .osgbpb_save_length is 0, we're done.
   976                              ldx #<.chunk_size
   977                              ldy #>.chunk_size
   978                              lda .osgbpb_save_length + 1
   979                              bne +
   980                              tay
   981                              ldx .osgbpb_save_length
   982                              beq .osgbpb_save_done
   983                          +   stx osgbpb_block_transfer_length
   984                              sty osgbpb_block_transfer_length + 1
   985                          
   986                              ; Subtract the number of bytes to save from .osgbpb_save_length.
   987                              sec
   988                              lda .osgbpb_save_length
   989                              sbc osgbpb_block_transfer_length
   990                              sta .osgbpb_save_length
   991                              lda .osgbpb_save_length + 1
   992                              sbc osgbpb_block_transfer_length + 1
   993                              sta .osgbpb_save_length + 1
   994                          
   995                              ; Copy the data into the bounce buffer.
   996                              ldy #0
   997                          -   lda (.start_ptr),y
   998                              sta scratch_page,y
   999                              iny
  1000                              cpy osgbpb_block_transfer_length
  1001                              bne -
  1002                          
  1003                              ; Advance .start_ptr.
  1004                              clc
  1005                              lda .start_ptr
  1006                              adc osgbpb_block_transfer_length
  1007                              sta .start_ptr
  1008                              lda .start_ptr + 1
  1009                              adc osgbpb_block_transfer_length + 1
  1010                              sta .start_ptr + 1
  1011                          
  1012                              ; Write the bounce buffer out.
  1013                              lda #osgbpb_write_ignoring_ptr
  1014                              jsr .osgbpb_wrapper
  1015                          
  1016                              ; Loop round until we're done.
  1017                              jmp .osgbpb_save_loop
  1018                          
  1019                          .osgbpb_save_done
  1020                          !ifndef ACORN_ELECTRON_SWR {
  1021                              jmp close_osgbpb_block_handle
  1022                          } else {
  1023                              rts
  1024                          }
  1025                          
  1026                              ; It's a load.
  1027                          .osfile_pseudo_emulation_load
  1028                          !ifdef ACORN_ELECTRON_SWR {
  1029                              ; On this build the "zero page"+stack area isn't contiguous with dynamic
  1030                              ; memory, so we need to do two separate invocations of
  1031                              ; .osfile_pseudo_emulation_load_internal.
  1032                              lda #<(zp_bytes_to_save + stack_size)
  1033                              sta .bytes_to_read
  1034                              lda #>(zp_bytes_to_save + stack_size)
  1035                              sta .bytes_to_read + 1
  1036                              jsr .osfile_pseudo_emulation_load_internal
  1037                              lda #<story_start
  1038                              sta .start_ptr
  1039                              lda #>story_start
  1040                              sta .start_ptr + 1
  1041                              lda #$ff
  1042                              sta .bytes_to_read
  1043                              sta .bytes_to_read + 1
  1044                              jsr .osfile_pseudo_emulation_load_internal
  1045                              jmp close_osgbpb_block_handle
  1046                          
  1047                          .osfile_pseudo_emulation_load_internal
  1048                          }
  1049                          
  1050                          .bytes_read = memory_buffer ; 2 bytes
  1051                          .osgbpb_load_loop
  1052                              ; Read some data into the bounce buffer and work out how much we read; if we
  1053                              ; read nothing, it's EOF and we're done. On the Electron we read a maximum
  1054                              ; of .bytes_to_read bytes; on other builds we just read until EOF.
  1055                          !ifndef ACORN_ELECTRON_SWR {
  1056                              ldx #<.chunk_size
  1057                              stx osgbpb_block_transfer_length
  1058                              ldx #>.chunk_size
  1059                              stx osgbpb_block_transfer_length + 1
  1060                          } else {
  1061                              ldx #<.chunk_size
  1062                              ldy #>.chunk_size
  1063                              lda .bytes_to_read + 1
  1064                              bne .read_full_chunk
  1065                              tay
  1066                              ldx .bytes_to_read
  1067                          .read_full_chunk
  1068                              stx osgbpb_block_transfer_length
  1069                              stx .lda_imm_this_chunk_size_low + 1
  1070                              sty osgbpb_block_transfer_length + 1
  1071                              sty .lda_imm_this_chunk_size_high + 1
  1072                          }
  1073                              lda #osgbpb_read_ignoring_ptr
  1074                              jsr .osgbpb_wrapper
  1075                              sec
  1076                          !ifdef ACORN_ELECTRON_SWR {
  1077                          .lda_imm_this_chunk_size_low
  1078                          }
  1079                              lda #<.chunk_size
  1080                              sbc osgbpb_block_transfer_length
  1081                              sta .bytes_read
  1082                          !ifdef ACORN_ELECTRON_SWR {
  1083                          .lda_imm_this_chunk_size_high
  1084                          }
  1085                              lda #>.chunk_size
  1086                              sbc osgbpb_block_transfer_length + 1
  1087                              sta .bytes_read + 1
  1088                              ora .bytes_read
  1089                              beq .osgbpb_load_done
  1090                          
  1091                              ; Copy the data out of the bounce buffer.
  1092                              ldy #0
  1093                          -   lda scratch_page,y
  1094                              sta (.start_ptr),y
  1095                              iny
  1096                              cpy .bytes_read
  1097                              bne -
  1098                          
  1099                              ; If we read fewer than .chunk_size bytes, we've hit EOF and we're done.
  1100                              ; (On ACORN_ELECTRON_SWR builds we may have tried to read fewer than
  1101                              ; .chunk_size bytes, but it's still true that reading fewer than .chunk_size
  1102                              ; bytes means we're done - it's either EOF, or we've read exactly as many
  1103                              ; bytes as we requested.)
  1104                              lda .bytes_read + 1
  1105                              beq .osgbpb_load_done
  1106                          
  1107                          !ifdef ACORN_ELECTRON_SWR {
  1108                              ; Decrement .bytes_to_read by .chunk_size.
  1109                              dec .bytes_to_read + 1
  1110                          }
  1111                          
  1112                              ; Advance .start_ptr by .chunk_size.
  1113                              inc .start_ptr + 1
  1114                          
  1115                              ; Loop round until we're done.
  1116                              bne .osgbpb_load_loop ; Always branch
  1117                          
  1118                          .osgbpb_load_done
  1119                          !ifndef ACORN_ELECTRON_SWR {
  1120                              ; fall through to close_osgbpb_block_handle
  1121                          } else {
  1122                              rts
  1123                          }
  1124                          }
  1125                          
  1126                          !ifdef ACORN_ADFS {
  1127                              ACORN_WANT_OSGBPB_BLOCK = 1
  1128                          } else {
  1129                              !ifndef ACORN_SAVE_RESTORE_OSFILE {
  1130                                  ACORN_WANT_OSGBPB_BLOCK = 1
  1131                              }
  1132                          }
  1133                          !ifdef ACORN_WANT_OSGBPB_BLOCK {
  1134                          ; Close .osgbpb_block_handle iff it's non-0. If it's non-0 we set it to 0
  1135                          ; before doing anything, so we don't get into an infinite loop if the close
  1136                          ; operation fails.
  1137                          close_osgbpb_block_handle
  1138                              ldy osgbpb_block_handle
  1139                              beq +
  1140                              lda #osfind_close ; 0
  1141                              sta osgbpb_block_handle
  1142                              jmp osfind
  1143                          +   rts ; SFTODO: Can we move this and share a nearby rts?
  1144                          
  1145                          ; This block may be shared by both ADFS readblocks and OSFIND+OSGBPB save/
  1146                          ; restore. This isn't a problem, because we don't *want* to keep the game data
  1147                          ; file open across a save/restore anyway as the disc may be removed/dismounted.
  1148                          osgbpb_block
  1149                          osgbpb_block_handle
  1150                              !byte 0
  1151                          osgbpb_block_data_address
  1152                              !word 0 ; low word
  1153                              !word 0 ; high word
  1154                          osgbpb_block_transfer_length
  1155                              !word 0 ; low word
  1156                              !word 0 ; high word
  1157                          osgbpb_block_pointer
  1158                              !word 0 ; pointer low word
  1159                              !word 0 ; pointer high word
  1160                          }
  1161                          }

; ******** Source: ozmoo.asm
   224                          
   225                          }
   226                          !ifdef VMEM {
   227                          !ifndef ACORN {
   228                          !source "reu.asm"
   229                          }
   230                          }
   231                          !ifdef ACORN {

; ******** Source: zmachine.asm
     1                          ; z_extended_opcode 	!byte 0
     2                          ; z_operand_count		!byte 0
     3                          ; z_operand_type_arr  !byte 0, 0, 0, 0, 0, 0, 0, 0
     4                          ; z_operand_value_high_arr  !byte 0, 0, 0, 0, 0, 0, 0, 0
     5                          ; z_operand_value_low_arr   !byte 0, 0, 0, 0, 0, 0, 0, 0
     6                          ; z_local_var_count	!byte 0
     7                          ; z_temp				!byte 0, 0, 0, 0, 0
     8  2b84 7b                 z_rnd_a				!byte 123
     9  2b85 4b                 z_rnd_b				!byte 75
    10  2b86 5d                 z_rnd_c				!byte 93
    11  2b87 01                 z_rnd_x				!byte 1
    12  2b88 00                 z_rnd_mode 			!byte 0
    13                          !ifdef Z4PLUS {
    14  2b89 0000               z_interrupt_return_value !byte 0,0
    15                          }
    16                          !ifdef Z5PLUS {
    17  2b8b 0101               z_font				!byte 1, 1
    18                          }
    19                          !ifdef DEBUG {
    20                          z_test				!byte 0
    21                          z_test_mode_print = 1
    22                          z_test_mode_print_and_store = 2
    23                          }
    24                          
    25                          ; opcount0 = 0
    26                          ; opcount1 = 16
    27                          ; opcount2 = 32
    28                          ; opcountvar = 64
    29                          ; opcountext = 96
    30                          
    31                          ; =========================================== Highbytes of jump table
    32                          
    33                          z_jump_high_arr
    34                          ; 0OP
    35  2b8d 2f                 	!byte >z_ins_rtrue
    36  2b8e 2f                 	!byte >z_ins_rfalse
    37  2b8f 1a                 	!byte >z_ins_print
    38  2b90 1a                 	!byte >z_ins_print_ret
    39  2b91 2f                 	!byte >z_ins_nop
    40                          !ifndef Z5PLUS {
    41                          	!byte >z_ins_save
    42                          	!byte >z_ins_restore
    43                          } else {
    44  2b92 2d                 	!byte >z_not_implemented
    45  2b93 2d                 	!byte >z_not_implemented
    46                          }
    47                          
    48                          !ifdef WANT_RESTART {
    49  2b94 28                 	!byte >z_ins_restart
    50                          } else {
    51                          	!byte >z_ins_not_supported
    52                          }
    53  2b95 2f                 	!byte >z_ins_ret_popped
    54                          !ifndef Z5PLUS {
    55                          	!byte >stack_pull ; z_ins_pop
    56                          } else {
    57  2b96 3a                 	!byte >z_ins_catch
    58                          }
    59  2b97 2f                 	!byte >z_ins_quit
    60  2b98 19                 	!byte >z_ins_new_line
    61                          !ifdef Z3 {
    62                          	!byte >z_ins_show_status
    63                          } else {
    64  2b99 2f                 	!byte >z_ins_nop ; should be nop according to show_status/spec 1.0
    65                          }
    66  2b9a 30                 	!byte >make_branch_true ; z_ins_verify
    67                          !ifdef Z5PLUS {
    68  2b9b 2d                 	!byte >z_not_implemented
    69  2b9c 30                 	!byte >make_branch_true ; z_ins_piracy
    70                          } else {
    71                          	!byte >z_not_implemented
    72                          	!byte >z_not_implemented
    73                          }
    74                          
    75                          ; 1OP
    76                          
    77  2b9d 30                 	!byte >z_ins_jz
    78  2b9e 45                 	!byte >z_ins_get_sibling
    79  2b9f 45                 	!byte >z_ins_get_child
    80  2ba0 45                 	!byte >z_ins_get_parent
    81  2ba1 45                 	!byte >z_ins_get_prop_len
    82  2ba2 2f                 	!byte >z_ins_inc
    83  2ba3 2f                 	!byte >z_ins_dec
    84  2ba4 19                 	!byte >z_ins_print_addr
    85  2ba5 32                 	!byte >z_ins_call_xs
    86  2ba6 45                 	!byte >z_ins_remove_obj
    87  2ba7 46                 	!byte >z_ins_print_obj
    88  2ba8 2f                 	!byte >z_ins_ret
    89  2ba9 2f                 	!byte >z_ins_jump
    90  2baa 19                 	!byte >z_ins_print_paddr
    91  2bab 2f                 	!byte >z_ins_load
    92                          !ifndef Z5PLUS {
    93                          	!byte >z_ins_not
    94                          } else {
    95  2bac 32                 	!byte >z_ins_call_xn
    96                          }
    97                          
    98                          ; 2OP
    99                          
   100  2bad 2d                 	!byte >z_not_implemented
   101  2bae 30                 	!byte >z_ins_je
   102  2baf 30                 	!byte >z_ins_jl
   103  2bb0 30                 	!byte >z_ins_jg
   104  2bb1 30                 	!byte >z_ins_dec_chk
   105  2bb2 30                 	!byte >z_ins_inc_chk
   106  2bb3 46                 	!byte >z_ins_jin
   107  2bb4 31                 	!byte >z_ins_test
   108  2bb5 31                 	!byte >z_ins_or
   109  2bb6 31                 	!byte >z_ins_and
   110  2bb7 46                 	!byte >z_ins_test_attr
   111  2bb8 47                 	!byte >z_ins_set_attr
   112  2bb9 47                 	!byte >z_ins_clear_attr
   113  2bba 31                 	!byte >z_ins_store
   114  2bbb 47                 	!byte >z_ins_insert_obj
   115  2bbc 31                 	!byte >z_ins_loadw_and_storew
   116  2bbd 31                 	!byte >z_ins_loadb
   117  2bbe 48                 	!byte >z_ins_get_prop
   118  2bbf 48                 	!byte >z_ins_get_prop_addr
   119  2bc0 48                 	!byte >z_ins_get_next_prop
   120  2bc1 31                 	!byte >z_ins_add
   121  2bc2 31                 	!byte >z_ins_sub
   122  2bc3 32                 	!byte >z_ins_mul
   123  2bc4 32                 	!byte >z_ins_div
   124  2bc5 32                 	!byte >z_ins_mod
   125                          !ifndef Z4PLUS {
   126                          	!byte >z_not_implemented
   127                          } else {
   128  2bc6 32                 	!byte >z_ins_call_xs
   129                          }
   130                          !ifndef Z5PLUS {
   131                          	!byte >z_not_implemented
   132                          	!byte >z_not_implemented
   133                          	!byte >z_not_implemented
   134                          } else {
   135  2bc7 32                 	!byte >z_ins_call_xn
   136  2bc8 25                 	!byte >z_ins_set_colour
   137  2bc9 3a                 	!byte >z_ins_throw
   138                          }
   139  2bca 2d                 	!byte >z_not_implemented
   140  2bcb 2d                 	!byte >z_not_implemented
   141  2bcc 2d                 	!byte >z_not_implemented
   142                          
   143                          ; VAR	
   144                          
   145  2bcd 32                 	!byte >z_ins_call_xs
   146  2bce 31                 	!byte >z_ins_loadw_and_storew
   147  2bcf 31                 	!byte >z_ins_storeb
   148  2bd0 48                 	!byte >z_ins_put_prop
   149  2bd1 1a                 	!byte >z_ins_read
   150  2bd2 19                 	!byte >z_ins_print_char
   151  2bd3 32                 	!byte >z_ins_print_num
   152  2bd4 33                 	!byte >z_ins_random
   153  2bd5 40                 	!byte >z_ins_push
   154  2bd6 40                 	!byte >z_ins_pull
   155  2bd7 36                 	!byte >z_ins_split_window
   156  2bd8 36                 	!byte >z_ins_set_window
   157                          !ifdef Z4PLUS {
   158  2bd9 32                 	!byte >z_ins_call_xs
   159  2bda 35                 	!byte >z_ins_erase_window
   160  2bdb 35                 	!byte >z_ins_erase_line
   161  2bdc 37                 	!byte >z_ins_set_cursor
   162  2bdd 36                 	!byte >z_ins_get_cursor
   163  2bde 36                 	!byte >z_ins_set_text_style
   164  2bdf 36                 	!byte >z_ins_buffer_mode
   165                          } else {
   166                          	!byte >z_not_implemented
   167                          	!byte >z_not_implemented
   168                          	!byte >z_not_implemented
   169                          	!byte >z_not_implemented
   170                          	!byte >z_not_implemented
   171                          	!byte >z_not_implemented
   172                          	!byte >z_not_implemented
   173                          }
   174  2be0 26                 	!byte >z_ins_output_stream
   175  2be1 2e                 	!byte >z_ins_not_supported
   176  2be2 33                 	!byte >z_ins_sound_effect
   177                          !ifdef Z4PLUS {
   178  2be3 19                 	!byte >z_ins_read_char
   179  2be4 33                 	!byte >z_ins_scan_table
   180                          } else {
   181                          	!byte >z_not_implemented
   182                          	!byte >z_not_implemented
   183                          }
   184                          !ifdef Z5PLUS {
   185  2be5 30                 	!byte >z_ins_not
   186  2be6 32                 	!byte >z_ins_call_xn
   187  2be7 32                 	!byte >z_ins_call_xn
   188  2be8 19                 	!byte >z_ins_tokenise_text
   189  2be9 19                 	!byte >z_ins_encode_text
   190  2bea 34                 	!byte >z_ins_copy_table
   191  2beb 35                 	!byte >z_ins_print_table
   192  2bec 3a                 	!byte >z_ins_check_arg_count
   193                          } else {
   194                          	!byte >z_not_implemented
   195                          	!byte >z_not_implemented
   196                          	!byte >z_not_implemented
   197                          	!byte >z_not_implemented
   198                          	!byte >z_not_implemented
   199                          	!byte >z_not_implemented
   200                          	!byte >z_not_implemented
   201                          	!byte >z_not_implemented
   202                          }
   203                          
   204                          ; EXT
   205                          
   206                          !ifdef Z5PLUS {
   207  2bed 28                 	!byte >z_ins_save
   208  2bee 28                 	!byte >z_ins_restore
   209  2bef 35                 	!byte >z_ins_log_shift
   210  2bf0 35                 	!byte >z_ins_art_shift
   211  2bf1 35                 	!byte >z_ins_set_font
   212  2bf2 2d                 	!byte >z_not_implemented
   213  2bf3 2d                 	!byte >z_not_implemented
   214  2bf4 2d                 	!byte >z_not_implemented
   215  2bf5 2d                 	!byte >z_not_implemented
   216  2bf6 35                 	!byte >z_ins_save_restore_undo
   217  2bf7 35                 	!byte >z_ins_save_restore_undo
   218  2bf8 1a                 	!byte >z_ins_print_unicode
   219  2bf9 1a                 	!byte >z_ins_check_unicode
   220  2bfa 33                 	!byte >z_ins_set_true_colour
   221                          }
   222                          
   223                          
   224                          ; =========================================== Lowbytes of jump table
   225                          	
   226                          +make_acorn_screen_hole
   227                          z_jump_low_arr
   228  2bfb 88                 	!byte <z_ins_rtrue
   229  2bfc 8f                 	!byte <z_ins_rfalse
   230  2bfd 09                 	!byte <z_ins_print
   231  2bfe 21                 	!byte <z_ins_print_ret
   232  2bff b3                 	!byte <z_ins_nop
   233                          !ifndef Z5PLUS {
   234                          	!byte <z_ins_save
   235                          	!byte <z_ins_restore
   236                          } else {
   237  2c00 76                 	!byte <z_not_implemented
   238  2c01 76                 	!byte <z_not_implemented
   239                          }
   240                          !ifdef WANT_RESTART {
   241  2c02 55                 	!byte <z_ins_restart
   242                          } else {
   243                          	!byte <z_ins_not_supported
   244                          }
   245  2c03 98                 	!byte <z_ins_ret_popped
   246                          !ifndef Z5PLUS {
   247                          	!byte <stack_pull ; z_ins_pop
   248                          } else {
   249  2c04 b7                 	!byte <z_ins_catch
   250                          }
   251  2c05 95                 	!byte <z_ins_quit
   252  2c06 45                 	!byte <z_ins_new_line
   253                          !ifdef Z3 {
   254                          	!byte <z_ins_show_status
   255                          } else {
   256  2c07 b3                 	!byte <z_ins_nop ; should be nop according to show_status/spec 1.0
   257                          }
   258  2c08 a3                 	!byte <make_branch_true ; z_ins_verify
   259                          !ifdef Z5PLUS {
   260  2c09 76                 	!byte <z_not_implemented
   261  2c0a a3                 	!byte <make_branch_true ; z_ins_piracy
   262                          } else {
   263                          	!byte <z_not_implemented
   264                          	!byte <z_not_implemented
   265                          }
   266                          
   267                          ; 1OP
   268                          
   269  2c0b 22                 	!byte <z_ins_jz
   270  2c0c 60                 	!byte <z_ins_get_sibling
   271  2c0d 64                 	!byte <z_ins_get_child
   272  2c0e 97                 	!byte <z_ins_get_parent
   273  2c0f a9                 	!byte <z_ins_get_prop_len
   274  2c10 9e                 	!byte <z_ins_inc
   275  2c11 b4                 	!byte <z_ins_dec
   276  2c12 f5                 	!byte <z_ins_print_addr
   277  2c13 cc                 	!byte <z_ins_call_xs
   278  2c14 f0                 	!byte <z_ins_remove_obj
   279  2c15 c2                 	!byte <z_ins_print_obj
   280  2c16 d5                 	!byte <z_ins_ret
   281  2c17 dc                 	!byte <z_ins_jump
   282  2c18 ff                 	!byte <z_ins_print_paddr
   283  2c19 f1                 	!byte <z_ins_load
   284                          !ifndef Z5PLUS {
   285                          	!byte <z_ins_not
   286                          } else {
   287  2c1a bc                 	!byte <z_ins_call_xn
   288                          }
   289                          	
   290                          ; 2OP
   291                          
   292  2c1b 76                 	!byte <z_not_implemented
   293  2c1c 6a                 	!byte <z_ins_je
   294  2c1d 11                 	!byte <z_ins_jl
   295  2c1e 42                 	!byte <z_ins_jg
   296  2c1f 52                 	!byte <z_ins_dec_chk
   297  2c20 2b                 	!byte <z_ins_inc_chk
   298  2c21 dd                 	!byte <z_ins_jin
   299  2c22 39                 	!byte <z_ins_test
   300  2c23 4f                 	!byte <z_ins_or
   301  2c24 5b                 	!byte <z_ins_and
   302  2c25 f5                 	!byte <z_ins_test_attr
   303  2c26 05                 	!byte <z_ins_set_attr
   304  2c27 1f                 	!byte <z_ins_clear_attr
   305  2c28 67                 	!byte <z_ins_store
   306  2c29 40                 	!byte <z_ins_insert_obj
   307  2c2a 7c                 	!byte <z_ins_loadw_and_storew
   308  2c2b d0                 	!byte <z_ins_loadb
   309  2c2c 21                 	!byte <z_ins_get_prop
   310  2c2d 5a                 	!byte <z_ins_get_prop_addr
   311  2c2e 63                 	!byte <z_ins_get_next_prop
   312  2c2f ed                 	!byte <z_ins_add
   313  2c30 fa                 	!byte <z_ins_sub
   314  2c31 07                 	!byte <z_ins_mul
   315  2c32 8b                 	!byte <z_ins_div
   316  2c33 99                 	!byte <z_ins_mod
   317                          !ifndef Z4PLUS {
   318                          	!byte <z_not_implemented
   319                          } else {
   320  2c34 cc                 	!byte <z_ins_call_xs
   321                          }
   322                          !ifndef Z5PLUS {
   323                          	!byte <z_not_implemented
   324                          	!byte <z_not_implemented
   325                          	!byte <z_not_implemented
   326                          } else {
   327  2c35 bc                 	!byte <z_ins_call_xn
   328  2c36 a7                 	!byte <z_ins_set_colour
   329  2c37 be                 	!byte <z_ins_throw
   330                          }
   331  2c38 76                 	!byte <z_not_implemented
   332  2c39 76                 	!byte <z_not_implemented
   333  2c3a 76                 	!byte <z_not_implemented
   334                          
   335                          ; VAR	
   336                          
   337  2c3b cc                 	!byte <z_ins_call_xs
   338  2c3c 7c                 	!byte <z_ins_loadw_and_storew
   339  2c3d e5                 	!byte <z_ins_storeb
   340  2c3e 80                 	!byte <z_ins_put_prop
   341  2c3f 30                 	!byte <z_ins_read
   342  2c40 40                 	!byte <z_ins_print_char
   343  2c41 e2                 	!byte <z_ins_print_num
   344  2c42 43                 	!byte <z_ins_random
   345  2c43 a9                 	!byte <z_ins_push
   346  2c44 b0                 	!byte <z_ins_pull
   347  2c45 96                 	!byte <z_ins_split_window
   348  2c46 cb                 	!byte <z_ins_set_window
   349                          !ifdef Z4PLUS {
   350  2c47 cc                 	!byte <z_ins_call_xs
   351  2c48 85                 	!byte <z_ins_erase_window
   352  2c49 e2                 	!byte <z_ins_erase_line
   353  2c4a 31                 	!byte <z_ins_set_cursor
   354  2c4b ff                 	!byte <z_ins_get_cursor
   355  2c4c ef                 	!byte <z_ins_set_text_style
   356  2c4d 75                 	!byte <z_ins_buffer_mode
   357                          } else {
   358                          	!byte <z_not_implemented
   359                          	!byte <z_not_implemented
   360                          	!byte <z_not_implemented
   361                          	!byte <z_not_implemented
   362                          	!byte <z_not_implemented
   363                          	!byte <z_not_implemented
   364                          	!byte <z_not_implemented
   365                          }
   366  2c4e 51                 	!byte <z_ins_output_stream
   367  2c4f 86                 	!byte <z_ins_not_supported
   368  2c50 c2                 	!byte <z_ins_sound_effect
   369                          !ifdef Z4PLUS {
   370  2c51 4a                 	!byte <z_ins_read_char
   371  2c52 e3                 	!byte <z_ins_scan_table
   372                          } else {
   373                          	!byte <z_not_implemented
   374                          	!byte <z_not_implemented
   375                          }
   376                          !ifdef Z5PLUS {
   377  2c53 05                 	!byte <z_ins_not
   378  2c54 bc                 	!byte <z_ins_call_xn
   379  2c55 bc                 	!byte <z_ins_call_xn
   380  2c56 91                 	!byte <z_ins_tokenise_text
   381  2c57 ca                 	!byte <z_ins_encode_text
   382  2c58 51                 	!byte <z_ins_copy_table
   383  2c59 eb                 	!byte <z_ins_print_table
   384  2c5a 9b                 	!byte <z_ins_check_arg_count
   385                          } else {
   386                          	!byte <z_not_implemented
   387                          	!byte <z_not_implemented
   388                          	!byte <z_not_implemented
   389                          	!byte <z_not_implemented
   390                          	!byte <z_not_implemented
   391                          	!byte <z_not_implemented
   392                          	!byte <z_not_implemented
   393                          	!byte <z_not_implemented
   394                          }
   395                          
   396                          ; EXT
   397                          
   398                          z_opcount_ext_jump_low_arr
   399                          !ifdef Z5PLUS {
   400  2c5b 6b                 	!byte <z_ins_save
   401  2c5c 62                 	!byte <z_ins_restore
   402  2c5d 1d                 	!byte <z_ins_log_shift
   403  2c5e 40                 	!byte <z_ins_art_shift
   404  2c5f 5a                 	!byte <z_ins_set_font
   405  2c60 76                 	!byte <z_not_implemented
   406  2c61 76                 	!byte <z_not_implemented
   407  2c62 76                 	!byte <z_not_implemented
   408  2c63 76                 	!byte <z_not_implemented
   409  2c64 7f                 	!byte <z_ins_save_restore_undo
   410  2c65 7f                 	!byte <z_ins_save_restore_undo
   411  2c66 9f                 	!byte <z_ins_print_unicode
   412  2c67 99                 	!byte <z_ins_check_unicode
   413  2c68 42                 	!byte <z_ins_set_true_colour
   414                          }
   415                          
   416                          z_number_of_ext_opcodes_implemented = * - z_opcount_ext_jump_low_arr
   417                          
   418                          z_number_of_opcodes_implemented = * - z_jump_low_arr
   419                          
   420                          ; These get zeropage addresses in constants.asm:
   421                          ; z_opcode 
   422                          ; z_opcode_number
   423                          ; z_opcode_opcount ; 0 = 0OP, 1=1OP, 2=2OP, 3=VAR
   424                          
   425                          !ifdef Z5PLUS {
   426                          z_opcode_extended = 190
   427                          z_opcode_call_vn2 = 250
   428                          }
   429                          !ifdef Z4PLUS {
   430                          z_opcode_call_vs2 = 236
   431                          }
   432                          
   433                          z_opcode_opcount_0op = 0
   434                          z_opcode_opcount_1op = 16
   435                          z_opcode_opcount_2op = 32
   436                          z_opcode_opcount_var = 64
   437                          z_opcode_opcount_ext = 96
   438                          
   439                          z_exe_mode_normal = $0
   440                          z_exe_mode_return_from_read_interrupt = $80
   441                          !ifndef ACORN {
   442                          z_exe_mode_exit = $ff
   443                          }
   444                          
   445                          
   446                          !zone z_execute {
   447                          
   448                          +make_acorn_screen_hole
   449                          .not_normal_exe_mode
   450                          !ifdef Z4PLUS {
   451                          !ifdef VMEM { ; Non-VMEM games can't be restarted, so they don't get z_exe_mode_exit and don't need this code.
   452                          !ifndef ACORN { ; ACORN builds never use z_exe_mode_exit and don't need this code.
   453                          	cmp #z_exe_mode_return_from_read_interrupt
   454                          	bne .return_from_z_execute
   455                          }
   456                          }
   457  2c69 a900               	lda #z_exe_mode_normal
   458  2c6b 8555               	sta z_exe_mode
   459                          }
   460                          .return_from_z_execute
   461  2c6d 60                 	rts
   462                          
   463                          z_execute
   464                          
   465                          !ifdef DEBUG {
   466                          ; Play high-pitched beep
   467                          ;	lda #1
   468                          ;	sta z_operand_value_low_arr
   469                          ;	jsr z_ins_sound_effect
   470                          }
   471                          
   472                          !ifdef DEBUG {
   473                          !ifdef PRINTSPEED {
   474                          !ifndef ACORN {
   475                          	lda #0
   476                          	sta $a0
   477                          	sta $a1
   478                          	sta $a2 ; SF: Kernal jiffy timer
   479                          	sta $4b
   480                          	sta $4c
   481                          } else {
   482                              lda #0
   483                              jsr kernal_readtime
   484                              sta .printspeed_last_time
   485                              stx .printspeed_last_time + 1
   486                              sty .printspeed_last_time + 2
   487                              jmp +
   488                          .printspeed_last_time
   489                              !byte 0, 0, 0
   490                          .printspeed_this_time
   491                              !byte 0, 0, 0
   492                          .printspeed_count
   493                              !word 0
   494                          +
   495                          }
   496                          }
   497                          }
   498                          
   499                          .main_loop
   500                          
   501                          !ifdef DEBUG {
   502                          !ifdef PRINTSPEED {
   503                          !ifndef ACORN {
   504                          	lda $a2
   505                          	cmp #60
   506                          	bcc ++
   507                          	bne +
   508                          	lda $a1
   509                          	bne +
   510                          	lda $4c
   511                          	ldx $4b
   512                          	jsr printinteger
   513                          	jsr comma
   514                          	
   515                          +	lda #0
   516                          	sta $a0
   517                          	sta $a1
   518                          	sta $a2
   519                          	sta $4b
   520                          	sta $4c
   521                          
   522                          ++	inc $4b
   523                          	bne +
   524                          	inc $4c
   525                          +
   526                          } else {
   527                              jsr kernal_readtime
   528                              sta .printspeed_this_time
   529                              stx .printspeed_this_time + 1
   530                              sty .printspeed_this_time + 2
   531                              sec
   532                              sbc .printspeed_last_time ; A is now $a2 from C64 code
   533                              php
   534                              cmp #50 ; Acorn port has 50Hz jiffies, not 60Hz ones
   535                              bcc ++
   536                              bne +
   537                              plp
   538                              txa
   539                              sbc .printspeed_last_time + 1 ; A is now $a1 from C64 code
   540                              bne +++
   541                              lda .printspeed_count + 1
   542                              ldx .printspeed_count
   543                              jsr printinteger
   544                              jsr comma
   545                              php
   546                          
   547                          +   plp
   548                          +++ lda .printspeed_this_time
   549                              sta .printspeed_last_time
   550                              lda .printspeed_this_time + 1
   551                              sta .printspeed_last_time + 1
   552                              lda .printspeed_this_time + 2
   553                              sta .printspeed_last_time + 2
   554                              lda #0
   555                              sta .printspeed_count
   556                              sta .printspeed_count + 1
   557                              php
   558                          
   559                          ++  plp
   560                              inc .printspeed_count
   561                              bne +
   562                              inc .printspeed_count + 1
   563                          +
   564                          }
   565                          }
   566                          }
   567                          	
   568  2c6e a555               	lda z_exe_mode
   569  2c70 d0f7               	bne .not_normal_exe_mode
   570                          
   571                          !ifdef VICE_TRACE {
   572                              ; send trace info to $DE00-$DE02, which a patched
   573                              ; version of Vice can use to trace z_pc onto stderr
   574                              ; and store on a file. To enable, edit src/c64/c64io.c
   575                              ; void c64io_de00_store(uint16_t addr, uint8_t value)
   576                              ; if(addr == 0xde01) fprintf(stderr, "%02x", value);
   577                              ; if(addr == 0xde02) { fprintf(stderr, "\n"); fflush(stderr); }
   578                              lda z_pc
   579                              sta $de01
   580                              lda z_pc + 1
   581                              sta $de01
   582                              lda z_pc + 2
   583                              sta $de01
   584                              sta $de02
   585                              ; send a memory dump if at specific address (e.g. $ad30)
   586                              lda z_pc+1
   587                              cmp #$ad ; $ad
   588                              bne +
   589                              lda z_pc+2
   590                              cmp #$30 ; $30
   591                              bne +
   592                              ; dump dynmem
   593                              ; first find out how many lines to dump (16 bytes/line)
   594                          dumptovice
   595                              lda story_start + header_static_mem + 1
   596                              sta .dyndump + 2
   597                              lda story_start + header_static_mem 
   598                              sta .dyndump + 1
   599                              ldx #4
   600                          -   lsr .dyndump + 2
   601                              ror .dyndump + 1
   602                              dex
   603                              bne -
   604                              ldy .dyndump + 1
   605                              iny
   606                              lda #<story_start
   607                              sta .dyndump + 1
   608                              lda #>story_start
   609                              sta .dyndump + 2
   610                          -   ldx  #0
   611                          .dyndump
   612                              lda $8000,x
   613                              sta $de01 ; dump byte
   614                              inx
   615                              cpx #16
   616                              bne .dyndump
   617                              sta $de02 ; newline in dump
   618                              clc
   619                              lda .dyndump + 1
   620                              adc #16
   621                              sta .dyndump + 1
   622                              lda .dyndump + 2
   623                              adc #0
   624                              sta .dyndump + 2
   625                              dey
   626                              bne -
   627                          +
   628                          }
   629                          
   630                          !ifdef TRACE {
   631                          	; Store z_pc to trace page 
   632                          	ldx #0
   633                          	ldy z_trace_index
   634                          -	lda z_pc,x
   635                          	sta z_trace_page,y
   636                          	iny
   637                          	inx
   638                          	cpx #3
   639                          	bne -
   640                          	sty z_trace_index
   641                          }
   642                          
   643                          !ifndef CMOS {
   644  2c72 a900               	lda #0
   645  2c74 850d               	sta z_operand_count
   646                          } else {
   647                              stz z_operand_count
   648                          }
   649                          !ifdef Z4PLUS {	
   650                          !ifndef CMOS {
   651  2c76 856d               	sta z_temp + 5 ; Signal to NOT read up to four more operands
   652                          } else {
   653                          	stz z_temp + 5 ; Signal to NOT read up to four more operands
   654                          }
   655                          }
   656  2c78 a000b132e632d003...	+read_next_byte_at_z_pc_unsafe_start
   657  2c85 8502               	sta z_opcode
   658                          	
   659                          !ifdef DEBUG {	
   660                          	;jsr print_following_string
   661                          	;!pet "opcode: ",0
   662                          	;ldx z_opcode
   663                          	;jsr printx
   664                          	;jsr print_following_string
   665                          	;!pet " @ ",0
   666                          	;ldx z_pc + 2
   667                          	;lda z_pc + 1
   668                          	;jsr printinteger
   669                          	;jsr newline
   670                          	;lda z_opcode
   671                          }
   672  2c87 2402               	bit z_opcode
   673  2c89 106c               	bpl .top_bits_are_0x
   674  2c8b 502d               	bvc .top_bits_are_10
   675                          
   676                          	; Top bits are 11. Form = Variable
   677  2c8d 291f               	and #%00011111
   678  2c8f 8509               	sta z_opcode_number
   679  2c91 a020               	ldy #z_opcode_opcount_2op
   680  2c93 a502               	lda z_opcode
   681  2c95 2920               	and #%00100000
   682  2c97 f01c               	beq + ; This is a 2OP instruction, with up to 4 operands
   683                          ; This is a VAR instruction
   684                          !ifdef Z4PLUS {	
   685  2c99 a502               	lda z_opcode
   686  2c9b c9ec               	cmp #z_opcode_call_vs2
   687                          !ifdef Z5PLUS {
   688  2c9d f004               	beq .get_4_extra_op_types
   689  2c9f c9fa               	cmp #z_opcode_call_vn2
   690                          }
   691  2ca1 d010               	bne .dont_get_4_extra_op_types
   692                          .get_4_extra_op_types
   693  2ca3 a000b132e632d003...	+read_next_byte_at_z_pc_unsafe_middle
   694  2cb0 aa                 	tax
   695  2cb1 c66d               	dec z_temp + 5 ; Signal to read up to four more operands, and first four operand types are in x
   696                          .dont_get_4_extra_op_types
   697                          }
   698  2cb3 a040               	ldy #z_opcode_opcount_var
   699  2cb5 840c               +	sty z_opcode_opcount
   700  2cb7 4c192d             	jmp .get_4_op_types ; Always branch
   701                          
   702                          .top_bits_are_10
   703                          !ifdef Z5PLUS {
   704  2cba c9be               	cmp #z_opcode_extended
   705  2cbc d018               	bne .short_form
   706                          	; Form = Extended
   707  2cbe a960               	lda #z_opcode_opcount_ext
   708  2cc0 850c               	sta z_opcode_opcount ; Set to EXT
   709  2cc2 a000b132e632d003...	+read_next_byte_at_z_pc_unsafe_middle
   710  2ccf 8507               	sta z_extended_opcode
   711  2cd1 8509               	sta z_opcode_number
   712  2cd3 4c192d             	jmp .get_4_op_types
   713                          }
   714                          .short_form
   715                          	; Form = Short
   716  2cd6 290f               	and #%00001111
   717  2cd8 8509               	sta z_opcode_number
   718  2cda a502               	lda z_opcode
   719  2cdc 2930               	and #%00110000
   720  2cde c930               	cmp #%00110000
   721  2ce0 f00f               	beq .short_0op
   722  2ce2 a210               	ldx #z_opcode_opcount_1op
   723  2ce4 860c               	stx z_opcode_opcount
   724  2ce6 4a                 	lsr
   725  2ce7 4a                 	lsr
   726  2ce8 4a                 	lsr
   727  2ce9 4a                 	lsr
   728  2cea aa                 	tax
   729  2ceb 207b2d             	jsr read_operand
   730  2cee 4c5a2d             	jmp .perform_instruction
   731                          .short_0op
   732  2cf1 a900               	lda #z_opcode_opcount_0op 
   733  2cf3 850c               	sta z_opcode_opcount
   734  2cf5 f063               	beq .perform_instruction ; Always branch
   735                          	
   736                          .top_bits_are_0x
   737                          	; Form = Long
   738  2cf7 291f               	and #%00011111
   739  2cf9 8509               	sta z_opcode_number
   740  2cfb a920               	lda #z_opcode_opcount_2op 
   741  2cfd 850c               	sta z_opcode_opcount
   742  2cff a502               	lda z_opcode
   743  2d01 0a                 	asl
   744  2d02 0a                 	asl
   745  2d03 a202               	ldx #%00000010
   746  2d05 b001               	bcs +
   747  2d07 ca                 	dex
   748  2d08 48                 +	pha
   749  2d09 207b2d             	jsr read_operand
   750  2d0c 68                 	pla
   751  2d0d 0a                 	asl
   752  2d0e a202               	ldx #%00000010
   753  2d10 b001               	bcs +
   754  2d12 ca                 	dex
   755  2d13 207b2d             +	jsr read_operand
   756  2d16 4c5a2d             	jmp .perform_instruction
   757                          
   758                          .get_4_op_types
   759                          ; If z_temp + 5 = $ff, x holds first byte of arg types and we need to read one more byte and store in z_temp + 4 
   760  2d19 a004               	ldy #4 ; index of last possible operand + 1 (4 or 8) 
   761  2d1b 8468               	sty z_temp
   762  2d1d a000b132e632d003...	+read_next_byte_at_z_pc_unsafe_middle
   763                          !ifdef Z4PLUS {
   764  2d2a a46d               	ldy z_temp + 5
   765  2d2c f003               	beq .not_4_extra_args
   766  2d2e 856c               	sta z_temp + 4
   767  2d30 8a                 	txa
   768                          .not_4_extra_args
   769                          }
   770                          	
   771                          .get_next_op_type
   772  2d31 0a                 	asl
   773  2d32 9007               	bcc .optype_0x
   774  2d34 0a                 	asl
   775  2d35 b015               	bcs .done ; %11
   776  2d37 a202               	ldx #%00000010
   777  2d39 d006               	bne .store_optype ; Always branch
   778                          .optype_0x
   779  2d3b 0a                 	asl
   780  2d3c a200               	ldx #%00000000
   781  2d3e 9001               	bcc .store_optype
   782  2d40 e8                 	inx
   783                          .store_optype
   784  2d41 48                 	pha
   785  2d42 207b2d             	jsr read_operand
   786  2d45 68                 	pla
   787  2d46 a60d               	ldx z_operand_count
   788  2d48 e468               	cpx z_temp
   789  2d4a 90e5               	bcc .get_next_op_type
   790                          
   791                          .done
   792                          
   793                          !ifdef Z4PLUS {
   794  2d4c a56d               	lda z_temp + 5 ; $0 = Don't read more args, $ff = read more args
   795  2d4e f00a               	beq .perform_instruction
   796  2d50 e66d               	inc z_temp + 5
   797  2d52 a56c               	lda z_temp + 4
   798  2d54 a008               	ldy #8
   799  2d56 8468               	sty z_temp
   800  2d58 d0d7               	bne .get_next_op_type ; Always branch
   801                          }
   802                          	
   803                          .perform_instruction
   804  2d5a a50c               	lda z_opcode_opcount
   805  2d5c 18                 	clc
   806  2d5d 6509               	adc z_opcode_number
   807                          !ifdef TRACE {
   808                          	ldy z_trace_index
   809                          	sta z_trace_page,y
   810                          	inc z_trace_index
   811                          }
   812                          !ifndef UNSAFE {
   813  2d5f c96e               	cmp #z_number_of_opcodes_implemented
   814  2d61 b013               	bcs z_not_implemented
   815                          }
   816  2d63 aa                 	tax 
   817  2d64 bdfb2b             	lda z_jump_low_arr,x
   818  2d67 8d712d             	sta .jsr_perform + 1
   819  2d6a bd8d2b             	lda z_jump_high_arr,x
   820  2d6d 8d722d             	sta .jsr_perform + 2
   821                              +finish_read_next_byte_at_z_pc_unsafe
   822                          .jsr_perform
   823  2d70 200080             	jsr $8000
   824  2d73 4c6e2c             	jmp .main_loop
   825                          
   826                          
   827                          z_not_implemented
   828                          
   829                          !ifdef UNSAFE {
   830                          	rts
   831                          } else {
   832                          !ifdef DEBUG {
   833                          	jsr print_following_string
   834                          !ifndef ACORN {
   835                          	!pet "opcode: ",0
   836                          } else {
   837                          	!text "opcode: ",0
   838                          }
   839                          	ldx z_opcode
   840                          	jsr printx
   841                          	jsr print_following_string
   842                          	!pet " @ ",0
   843                          	ldx z_pc + 2
   844                          	lda z_pc + 1
   845                          	jsr printinteger
   846                          	jsr newline
   847                          }
   848  2d76 a908                   lda #ERROR_OPCODE_NOT_IMPLEMENTED
   849  2d78 205322             	jsr fatalerror
   850                          }
   851                          }
   852                          
   853                          read_operand
   854                          ; Operand type in x - Zero flag must reflect if X is 0 upon entry
   855  2d7b d020               	bne .operand_is_not_large_constant
   856  2d7d a000b132e632d003...	+read_next_byte_at_z_pc_unsafe_middle
   857  2d8a 48                 	pha
   858  2d8b a000b132e632d003...	+read_next_byte_at_z_pc_unsafe_middle
   859  2d98 aa                 	tax
   860  2d99 68                 	pla
   861  2d9a 4cb12d             	jmp .store_operand ; Always branch
   862                          .operand_is_not_large_constant
   863  2d9d a000b132e632d003...	+read_next_byte_at_z_pc_unsafe_middle
   864  2daa e002               	cpx #%00000010
   865  2dac f00d               	beq .operand_is_var
   866                          	; Operand is small constant
   867  2dae aa                 	tax
   868  2daf a900               	lda #0
   869                          
   870                          .store_operand
   871  2db1 a40d               	ldy z_operand_count
   872  2db3 991600             	sta z_operand_value_high_arr,y
   873  2db6 961e               	stx z_operand_value_low_arr,y
   874  2db8 e60d               	inc z_operand_count
   875  2dba 60                 	rts
   876                          
   877                          .operand_is_var
   878                          	; Variable# in a
   879  2dbb c900               	cmp #0
   880  2dbd f017               	beq .read_from_stack
   881  2dbf 3032               	bmi .read_high_global_var
   882  2dc1 c910               	cmp #16
   883  2dc3 b023               	bcs .read_global_var
   884                          	; Local variable
   885                          !ifndef UNSAFE {
   886  2dc5 a8                 	tay
   887  2dc6 88                 	dey
   888  2dc7 c428               	cpy z_local_var_count
   889  2dc9 b033               	bcs .nonexistent_local
   890                          }
   891  2dcb 0a                 	asl ; This clears carry
   892  2dcc a8                 	tay
   893  2dcd c8                 	iny
   894  2dce b126               	lda (z_local_vars_ptr),y
   895  2dd0 aa                 	tax
   896  2dd1 88                 	dey
   897  2dd2 b126               	lda (z_local_vars_ptr),y
   898  2dd4 90db               	bcc .store_operand ; Always branch
   899                          .read_from_stack
   900                          !ifdef SLOW {
   901                          	jsr stack_pull
   902                          } else {
   903  2dd6 a42f               	ldy stack_has_top_value
   904  2dd8 f008               	beq +
   905  2dda a52d               	lda stack_top_value
   906  2ddc a62e               	ldx stack_top_value + 1
   907  2dde c62f               	dec stack_has_top_value
   908  2de0 f0cf               	beq .store_operand ; Always branch
   909  2de2 208040             +	jsr stack_pull_no_top_value
   910                          }
   911  2de5 4cb12d             	jmp .store_operand ; Always branch
   912                          .read_global_var
   913                          	; cmp #128
   914                          	; bcs .read_high_global_var
   915                              +finish_read_next_byte_at_z_pc_unsafe
   916                          !ifdef SLOW {
   917                          	jsr z_get_low_global_variable_value
   918                          } else {
   919  2de8 0a                 	asl
   920  2de9 a8                 	tay
   921  2dea c8                 	iny
   922  2deb b150               	lda (z_low_global_vars_ptr),y
   923  2ded aa                 	tax
   924  2dee 88                 	dey
   925  2def b150               	lda (z_low_global_vars_ptr),y
   926                          }
   927                          !ifndef ACORN_SWR_BIG_DYNMEM {
   928  2df1 90be               	bcc .store_operand ; Always branch
   929                          } else {
   930                              +restart_read_next_byte_at_z_pc_unsafe
   931                              jmp .store_operand
   932                          }
   933                          .read_high_global_var
   934                              +finish_read_next_byte_at_z_pc_unsafe
   935                          	; and #$7f ; Change variable# 128->0, 129->1 ... 255 -> 127 (Pointless, since ASL will remove top bit anyway)
   936  2df3 0a                 	asl ; This sets carry
   937  2df4 a8                 	tay
   938  2df5 c8                 	iny
   939  2df6 b152               	lda (z_high_global_vars_ptr),y
   940  2df8 aa                 	tax
   941  2df9 88                 	dey
   942  2dfa b152               	lda (z_high_global_vars_ptr),y
   943                          !ifndef ACORN_SWR_BIG_DYNMEM {
   944  2dfc b0b3               	bcs .store_operand ; Always branch
   945                          } else {
   946                              +restart_read_next_byte_at_z_pc_unsafe
   947                              jmp .store_operand
   948                          }
   949                          !ifndef UNSAFE {
   950                          .nonexistent_local
   951  2dfe a909                   lda #ERROR_USED_NONEXISTENT_LOCAL_VAR
   952  2e00 205322             	jsr fatalerror
   953                          }
   954                          
   955                          
   956                          ; These instructions use variable references: inc,  dec,  inc_chk,  dec_chk,  store,  pull,  load
   957                          
   958                          +make_acorn_screen_hole
   959                          !zone {
   960                          z_get_variable_reference
   961                          	; input: Variable in x
   962                          	; output: Address is returned in a,x
   963                          	; affects registers: p
   964  2e03 8478               	sty zp_temp + 3
   965  2e05 e000               	cpx #0
   966  2e07 d006               	bne +
   967                          	; Find on stack
   968  2e09 205840             	jsr stack_get_ref_to_top_value
   969  2e0c a478               	ldy zp_temp + 3
   970  2e0e 60                 	rts
   971  2e0f 8a                 +	txa
   972  2e10 c910               	cmp #16
   973  2e12 b012               	bcs .find_global_var
   974                          	; Local variable
   975  2e14 a8                 	tay
   976  2e15 88                 	dey
   977                          !ifndef UNSAFE {
   978  2e16 c428               	cpy z_local_var_count
   979  2e18 b01e               	bcs .nonexistent_local
   980                          }
   981  2e1a 0a                 	asl
   982  2e1b 18                 	clc
   983  2e1c 6526               	adc z_local_vars_ptr
   984  2e1e aa                 	tax
   985  2e1f a527               	lda z_local_vars_ptr + 1
   986  2e21 6900               	adc #0
   987  2e23 a478               	ldy zp_temp + 3
   988  2e25 60                 	rts
   989                          .find_global_var
   990  2e26 a200               	ldx #0
   991  2e28 8676               	stx zp_temp + 1
   992  2e2a 0a                 	asl
   993  2e2b 2676               	rol zp_temp + 1
   994  2e2d 18                 	clc
   995  2e2e 6550               	adc z_low_global_vars_ptr
   996  2e30 aa                 	tax
   997  2e31 a576               	lda zp_temp + 1
   998  2e33 6551               	adc z_low_global_vars_ptr + 1
   999  2e35 a478               	ldy zp_temp + 3
  1000  2e37 60                 	rts
  1001                          
  1002                          !ifndef UNSAFE {
  1003                          .nonexistent_local
  1004  2e38 a909                   lda #ERROR_USED_NONEXISTENT_LOCAL_VAR
  1005  2e3a 205322             	jsr fatalerror
  1006                          }
  1007                          	
  1008                          ; z_get_variable_value
  1009                          z_get_low_global_variable_value
  1010                          	; Read global var 0-111
  1011                          	; input: a = variable# + 16 (16-127)
  1012  2e3d 0a                 	asl ; Clears carry
  1013  2e3e a8                 	tay
  1014  2e3f c8                 	iny
  1015  2e40 b150               	lda (z_low_global_vars_ptr),y
  1016  2e42 aa                 	tax
  1017  2e43 88                 	dey
  1018  2e44 b150               	lda (z_low_global_vars_ptr),y
  1019  2e46 60                 	rts ; Note that caller may assume that carry is clear on return!
  1020                          
  1021                          ; Used by z_set_variable
  1022                          .write_to_stack
  1023  2e47 204140             	jsr stack_push
  1024  2e4a 60                 	rts
  1025                          	
  1026                          z_set_variable
  1027                          	; Value in a,x
  1028                          	; Variable in y
  1029                          	; affects: a, x, y
  1030  2e4b c000               	cpy #0
  1031  2e4d f0f8               	beq .write_to_stack	
  1032  2e4f 8568               	sta z_temp
  1033  2e51 8669               	stx z_temp + 1
  1034  2e53 98                 	tya
  1035                          !ifdef SLOW {
  1036                          	tax
  1037                          	jsr z_get_variable_reference
  1038                          	stx z_temp + 2
  1039                          	sta z_temp + 3
  1040                          	ldy #0
  1041                          	lda z_temp
  1042                          	sta (z_temp + 2),y
  1043                          	iny
  1044                          	lda z_temp + 1
  1045                          	sta (z_temp + 2),y
  1046                          	rts
  1047                          } else {
  1048  2e54 c910               	cmp #16
  1049  2e56 b012               	bcs .write_global_var
  1050                          	; Local variable
  1051  2e58 a8                 	tay
  1052  2e59 88                 	dey
  1053                          !ifndef UNSAFE {
  1054  2e5a c428               	cpy z_local_var_count
  1055  2e5c b0da               	bcs .nonexistent_local
  1056                          }
  1057  2e5e 0a                 	asl
  1058  2e5f a8                 	tay
  1059  2e60 a568               	lda z_temp
  1060  2e62 9126               	sta (z_local_vars_ptr),y
  1061  2e64 c8                 	iny
  1062  2e65 a569               	lda z_temp + 1
  1063  2e67 9126               	sta (z_local_vars_ptr),y
  1064  2e69 60                 	rts
  1065                          .write_global_var
  1066  2e6a c980               	cmp #128
  1067  2e6c b00c               	bcs .write_high_global_var
  1068  2e6e 0a                 	asl
  1069  2e6f a8                 	tay
  1070  2e70 a568               	lda z_temp
  1071  2e72 9150               	sta (z_low_global_vars_ptr),y
  1072  2e74 c8                 	iny
  1073  2e75 a569               	lda z_temp + 1
  1074  2e77 9150               	sta (z_low_global_vars_ptr),y
  1075  2e79 60                 	rts
  1076                          .write_high_global_var
  1077                          ;	and #$7f ; Change variable# 128->0, 129->1 ... 255 -> 127 ; Pointless, since ASL will remove top bit
  1078  2e7a 0a                 	asl
  1079  2e7b a8                 	tay
  1080  2e7c a568               	lda z_temp
  1081  2e7e 9152               	sta (z_high_global_vars_ptr),y
  1082  2e80 c8                 	iny
  1083  2e81 a569               	lda z_temp + 1
  1084  2e83 9152               	sta (z_high_global_vars_ptr),y
  1085  2e85 60                 	rts
  1086                          } ; Not SLOW
  1087                          } ; Zone
  1088                          
  1089                          
  1090                          !zone {
  1091                          z_ins_not_supported
  1092  2e86 a02e                   ldy #>.not_supported_string
  1093  2e88 a98d               	lda #<.not_supported_string
  1094  2e8a 4ccf22             	jmp printstring
  1095                          .not_supported_string
  1096  2e8d 5b4e6f7420737570...!raw "[Not supported]",13,0
  1097  2e9e 60                 	rts
  1098                          }
  1099                          
  1100                          +make_acorn_screen_hole
  1101                          !zone z_division {
  1102                          z_divide
  1103                          	; input: Dividend in arg 0, divisor in arg 1, y = signed? 0 = unsigned, $ff = signed
  1104                          	; output: result in division_result (low byte, high byte)
  1105                          !ifndef UNSAFE {
  1106  2e9f a517               	lda z_operand_value_high_arr + 1
  1107  2ea1 051f               	ora z_operand_value_low_arr + 1
  1108  2ea3 d005               	bne .not_div_by_0
  1109  2ea5 a911                   lda #ERROR_DIVISION_BY_ZERO
  1110  2ea7 205322             	jsr fatalerror
  1111                          .not_div_by_0	
  1112                          }
  1113  2eaa c000               	cpy #0
  1114  2eac f01b               	beq .div_unsigned
  1115  2eae a516               	lda z_operand_value_high_arr
  1116  2eb0 4517               	eor z_operand_value_high_arr + 1
  1117  2eb2 8577               	sta zp_temp + 2 ; Top bit: 1 = Result is negative, other bits must be ignored
  1118                          	; Get 2-complement of dividend, if negative
  1119  2eb4 a51e               	lda z_operand_value_low_arr
  1120  2eb6 2416               	bit z_operand_value_high_arr
  1121  2eb8 1013               	bpl +
  1122                          	; It's negative!
  1123  2eba 49ff               	eor #$ff
  1124  2ebc 18                 	clc
  1125  2ebd 6901               	adc #1
  1126  2ebf aa                 	tax
  1127  2ec0 a516               	lda z_operand_value_high_arr
  1128  2ec2 49ff               	eor #$ff
  1129  2ec4 6900               	adc #0
  1130  2ec6 4cd02e             	jmp ++
  1131                          .div_unsigned
  1132  2ec9 8477               	sty zp_temp + 2 ; Top bit: 1 = Result is negative, other bits must be ignored
  1133  2ecb a51e               	lda z_operand_value_low_arr
  1134  2ecd aa                 +	tax
  1135  2ece a516               	lda z_operand_value_high_arr
  1136  2ed0 8e1823             ++	stx dividend
  1137  2ed3 8d1923             	sta dividend + 1
  1138                          	; Get 2-complement of divisor, if negative
  1139  2ed6 a51f               	lda z_operand_value_low_arr + 1
  1140  2ed8 c000               	cpy #0
  1141  2eda f013               	beq + ; Unsigned div, no sign inveversion
  1142  2edc 2417               	bit z_operand_value_high_arr + 1
  1143  2ede 100f               	bpl +
  1144                          	; It's negative!
  1145  2ee0 49ff               	eor #$ff
  1146  2ee2 18                 	clc
  1147  2ee3 6901               	adc #1
  1148  2ee5 aa                 	tax
  1149  2ee6 a517               	lda z_operand_value_high_arr + 1
  1150  2ee8 49ff               	eor #$ff
  1151  2eea 6900               	adc #0
  1152  2eec 4cf22e             	jmp ++
  1153  2eef aa                 +	tax
  1154  2ef0 a517               	lda z_operand_value_high_arr + 1
  1155  2ef2 8e1623             ++	stx divisor
  1156  2ef5 8d1723             	sta divisor + 1
  1157                          	; Perform the division
  1158  2ef8 201e23             	jsr divide16
  1159                          	; Inverse sign if applicable. 
  1160  2efb 2477               	bit zp_temp + 2
  1161  2efd 1015               	bpl +
  1162                          	; Inverse sign of result
  1163  2eff ad1823             	lda division_result
  1164  2f02 49ff               	eor #$ff
  1165  2f04 18                 	clc
  1166  2f05 6901               	adc #1
  1167  2f07 8d1823             	sta division_result
  1168  2f0a ad1923             	lda division_result + 1
  1169  2f0d 49ff               	eor #$ff
  1170  2f0f 6900               	adc #0
  1171  2f11 8d1923             	sta division_result + 1
  1172  2f14 60                 +	rts
  1173                          }
  1174                          
  1175                          !zone {
  1176                          calc_address_in_byte_array
  1177                          	; output: If address is in dynmem, y = 0 and address is in (zp_temp). Otherwise, y = 1 and address is in .addr
  1178                          	; y value is loaded last, so beq/bne can be used to check y value
  1179  2f15 a51e               	lda z_operand_value_low_arr
  1180  2f17 18                 	clc
  1181  2f18 651f               	adc z_operand_value_low_arr + 1
  1182  2f1a aa                 	tax
  1183  2f1b a516               	lda z_operand_value_high_arr
  1184  2f1d 6517               	adc z_operand_value_high_arr + 1
  1185  2f1f a8                 	tay
  1186  2f20 ec0f4e             	cpx story_start + header_static_mem + 1
  1187  2f23 ed0e4e             	sbc story_start + header_static_mem
  1188  2f26 98                 	tya
  1189  2f27 9006               	bcc .is_in_dynmem
  1190  2f29 206f44             	jsr set_z_address
  1191  2f2c a001               	ldy #1
  1192  2f2e 60                 	rts
  1193                          .is_in_dynmem	
  1194  2f2f 8675               	stx zp_temp
  1195  2f31 694e               	adc #>story_start ; Carry is already clear
  1196  2f33 8576               	sta zp_temp + 1
  1197  2f35 a000               	ldy #0
  1198  2f37 60                 	rts
  1199                          }
  1200                          
  1201                          !zone rnd {
  1202                          z_rnd_init_random
  1203                          	; in: Nothing
  1204                          !ifndef ACORN {
  1205                          	lda $dc04
  1206                          	eor #%10101010
  1207                          	eor z_rnd_a
  1208                          	tay
  1209                          	lda $dc05
  1210                          	eor #%01010101
  1211                          	eor z_rnd_b
  1212                          	tax
  1213                          	lda $d41b
  1214                          	eor $d012
  1215                          	eor z_rnd_c
  1216                          } else {
  1217  2f38 a901                   lda #osword_read_clock
  1218  2f3a a268                   ldx #<z_temp
  1219  2f3c a000                   ldy #>z_temp
  1220  2f3e 20f1ff                 jsr osword
  1221                              ; z_temp+[34] are unlikely to change so we don't try to include them.
  1222                              ; z_temp+3 only advances every 46.6 hours, z_temp+4 only advances every
  1223                              ; 497.1 days.
  1224  2f41 ad862b                 lda z_rnd_c
  1225  2f44 4568                   eor z_temp+0
  1226  2f46 4569                   eor z_temp+1
  1227  2f48 a8                     tay
  1228  2f49 ad852b                 lda z_rnd_b
  1229  2f4c 4568                   eor z_temp+0
  1230  2f4e 456a                   eor z_temp+2
  1231  2f50 aa                     tax
  1232  2f51 ad842b                 lda z_rnd_a
  1233  2f54 4569                   eor z_temp+1
  1234  2f56 456a                   eor z_temp+2
  1235                          }
  1236                          z_rnd_init
  1237                          	; in: a,x,y as seed
  1238  2f58 8d842b             	sta z_rnd_a
  1239  2f5b 8e852b             	stx z_rnd_b
  1240  2f5e 8c862b             	sty z_rnd_c
  1241  2f61 49ff               	eor #$ff
  1242  2f63 8d872b             	sta z_rnd_x
  1243                          z_rnd_number
  1244  2f66 ee872b             	inc z_rnd_x
  1245  2f69 ad872b             	lda z_rnd_x
  1246  2f6c 4d862b             	eor z_rnd_c
  1247  2f6f 4d842b             	eor z_rnd_a
  1248  2f72 8d842b             	sta z_rnd_a
  1249  2f75 18                 	clc
  1250  2f76 6d852b             	adc z_rnd_b
  1251  2f79 8d852b             	sta z_rnd_b
  1252  2f7c 4a                 	lsr
  1253  2f7d 4d842b             	eor z_rnd_a
  1254  2f80 18                 	clc
  1255  2f81 6d862b             	adc z_rnd_c
  1256  2f84 8d862b             	sta z_rnd_c
  1257  2f87 60                 	rts
  1258                          }
  1259                          
  1260                          !zone z_instructions {
  1261                          ; 0OP instructions
  1262                          z_ins_rtrue
  1263  2f88 a900               	lda #0
  1264  2f8a a201               	ldx #1
  1265  2f8c 4ce73a             	jmp stack_return_from_routine
  1266                          
  1267                          z_ins_rfalse
  1268  2f8f a900               	lda #0
  1269  2f91 aa                 	tax
  1270  2f92 4ce73a             	jmp stack_return_from_routine
  1271                          
  1272                          ; z_ins_print (moved to text.asm)
  1273                          
  1274                          ; z_ins_print_ret (moved to text.asm)
  1275                          
  1276                          ; z_ins_nop is part of 1OP z_ins_inc
  1277                          
  1278                          ; z_ins_catch (moved to stack.asm)
  1279                          
  1280                          z_ins_quit
  1281                          !ifndef ACORN {
  1282                          	jmp kernal_reset
  1283                          } else {
  1284  2f95 4c2749                 jmp clean_up_and_quit
  1285                          }
  1286                          
  1287                          ; z_ins_restart (moved to disk.asm)
  1288                          	
  1289                          z_ins_ret_popped
  1290  2f98 207540             	jsr stack_pull
  1291  2f9b 4ce73a             	jmp stack_return_from_routine
  1292                          	
  1293                          ;z_ins_pop
  1294                          ;	jmp stack_pull
  1295                          	
  1296                          ; z_ins_new_line (moved to text.asm)
  1297                          
  1298                          ; z_ins_show_status (moved to screen.asm)
  1299                          
  1300                          ; z_ins_verify has no implementation, jump table points to make_branch_true instead.
  1301                          
  1302                          ; z_ins_extended needs no implementation
  1303                          
  1304                          ; z_ins_piracy jumps directly to make_branch_true
  1305                          
  1306                          ; 1OP instructions
  1307                          
  1308                          ; z_ins_jz placed later to allow relative jumps
  1309                          
  1310                          ; z_ins_get_sibling (moved to objecttable.asm)
  1311                          
  1312                          ; z_ins_get_child (moved to objecttable.asm)
  1313                          
  1314                          ; z_ins_get_parent (moved to objecttable.asm)
  1315                          
  1316                          ; z_ins_get_prop_len (moved to objecttable.asm)
  1317                          
  1318                          z_ins_inc
  1319  2f9e a61e               	ldx z_operand_value_low_arr
  1320  2fa0 20032e             	jsr z_get_variable_reference
  1321                          
  1322                          	; ldy #1
  1323                          	; lda (foo),y
  1324                          	; clc
  1325                          	; adc #1
  1326                          	; sta (foo),y
  1327                          	; bne +
  1328                          	; dey
  1329                          	; lda (foo),y
  1330                          	; adc #0
  1331                          	; sta (foo),y
  1332                          ; +	rts
  1333                           
  1334                              +make_acorn_screen_hole_jmp
  1335                          .inc_store_ref	
  1336  2fa3 8eac2f             	stx .ins_inc + 1
  1337  2fa6 8dad2f             	sta .ins_inc + 2
  1338  2fa9 a201               	ldx #1
  1339                          .ins_inc
  1340  2fab fe0004             	inc $0400,x
  1341  2fae d003               	bne +
  1342  2fb0 ca                 	dex
  1343  2fb1 10f8               	bpl .ins_inc
  1344                          z_ins_nop
  1345  2fb3 60                 +	rts	
  1346                          	
  1347                          z_ins_dec
  1348  2fb4 a61e               	ldx z_operand_value_low_arr
  1349  2fb6 20032e             	jsr z_get_variable_reference
  1350                          .dec_store_ref
  1351  2fb9 8ec82f             	stx .ins_dec + 1
  1352  2fbc 8dc92f             	sta .ins_dec + 2
  1353  2fbf 8ecb2f             	stx .ins_dec + 4
  1354  2fc2 8dcc2f             	sta .ins_dec + 5
  1355  2fc5 a201               	ldx #1
  1356                          .ins_dec
  1357  2fc7 de0004             	dec $0400,x
  1358  2fca bd0004             	lda $0400,x
  1359  2fcd c9ff               	cmp #$ff
  1360  2fcf d003               	bne +
  1361  2fd1 ca                 	dex
  1362  2fd2 10f3               	bpl .ins_dec
  1363  2fd4 60                 +	rts
  1364                          	
  1365                          ; z_ins_print_addr (moved to text.asm)
  1366                          	
  1367                          ; z_ins_remove_obj (moved to objecttable.asm)
  1368                          
  1369                          ; z_ins_print_obj (moved to objecttable.asm)
  1370                          
  1371                          z_ins_ret
  1372  2fd5 a516               	lda z_operand_value_high_arr
  1373  2fd7 a61e               	ldx z_operand_value_low_arr
  1374  2fd9 4ce73a             	jmp stack_return_from_routine
  1375                          
  1376                          z_ins_jump
  1377  2fdc a900               	lda #0
  1378  2fde 2416               	bit z_operand_value_high_arr
  1379  2fe0 1002               	bpl +
  1380  2fe2 a9ff               	lda #$ff
  1381  2fe4 8575               +	sta zp_temp
  1382  2fe6 a516               	lda z_operand_value_high_arr
  1383  2fe8 8576               	sta zp_temp + 1
  1384  2fea a51e               	lda z_operand_value_low_arr
  1385  2fec 8577               	sta zp_temp + 2
  1386  2fee 4c1431             	jmp z_jump_to_offset_in_zp_temp
  1387                          
  1388                          ; z_ins_print_paddr (moved to text.asm)
  1389                          
  1390                          z_ins_load
  1391  2ff1 a61e               	ldx z_operand_value_low_arr
  1392  2ff3 20032e             	jsr z_get_variable_reference
  1393  2ff6 8675               	stx zp_temp
  1394  2ff8 8576               	sta zp_temp + 1
  1395  2ffa a001               	ldy #1
  1396  2ffc b175               	lda (zp_temp),y
  1397  2ffe aa                 	tax
  1398  2fff 88                 	dey
  1399  3000 b175               	lda (zp_temp),y
  1400  3002 4c2e40             	jmp z_store_result
  1401                          
  1402                          z_ins_not
  1403  3005 a51e               	lda z_operand_value_low_arr
  1404  3007 49ff               	eor #$ff
  1405  3009 aa                 	tax
  1406  300a a516               	lda z_operand_value_high_arr
  1407  300c 49ff               	eor #$ff
  1408  300e 4c2e40             	jmp z_store_result
  1409                          
  1410                          ; z_ins_jz moved to after z_ins_jl to allow relative branching	
  1411                          
  1412                          ; 2OP instructions
  1413                          	
  1414                          z_ins_jl
  1415  3011 a51e               	lda z_operand_value_low_arr
  1416                          .jl_comp
  1417  3013 c51f               	cmp z_operand_value_low_arr + 1
  1418  3015 a516               	lda z_operand_value_high_arr
  1419  3017 e517               	sbc z_operand_value_high_arr + 1
  1420  3019 5002               	bvc +
  1421  301b 4980               	eor #$80
  1422  301d 105d               +	bpl make_branch_false
  1423  301f 4ca330             	jmp make_branch_true
  1424                          
  1425                          z_ins_jz
  1426  3022 a51e               	lda z_operand_value_low_arr
  1427  3024 0516               	ora z_operand_value_high_arr
  1428  3026 d054               	bne make_branch_false
  1429  3028 4ca330             	jmp make_branch_true
  1430                          	
  1431                          z_ins_inc_chk
  1432  302b a61e               	ldx z_operand_value_low_arr
  1433  302d 20032e             	jsr z_get_variable_reference
  1434  3030 8675               	stx zp_temp
  1435  3032 8576               	sta zp_temp + 1
  1436  3034 20a32f             	jsr .inc_store_ref
  1437  3037 a000               	ldy #0
  1438  3039 b175               	lda (zp_temp),y
  1439  303b 8516               	sta z_operand_value_high_arr
  1440  303d c8                 	iny
  1441  303e b175               	lda (zp_temp),y
  1442  3040 851e               	sta z_operand_value_low_arr
  1443                          z_ins_jg
  1444  3042 a51f               	lda z_operand_value_low_arr + 1
  1445  3044 c51e               	cmp z_operand_value_low_arr
  1446  3046 a517               	lda z_operand_value_high_arr + 1
  1447  3048 e516               	sbc z_operand_value_high_arr
  1448  304a 5002               	bvc +
  1449  304c 4980               	eor #$80
  1450                          !ifndef ACORN_ELECTRON_SWR {
  1451  304e 3053               +	bmi make_branch_true
  1452  3050 102a               	bpl make_branch_false ; Always branch
  1453                          } else {
  1454                              ; Unfortunately the Electron's more verbose ROM paging code means
  1455                              ; make_branch_true is out of range of a branch instruction.
  1456                          +   bpl make_branch_false
  1457                              jmp make_branch_true
  1458                          }
  1459                          
  1460                          z_ins_dec_chk
  1461  3052 a61e               	ldx z_operand_value_low_arr
  1462  3054 20032e             	jsr z_get_variable_reference
  1463  3057 8675               	stx zp_temp
  1464  3059 8576               	sta zp_temp + 1
  1465  305b 20b92f             	jsr .dec_store_ref
  1466  305e a000               	ldy #0
  1467  3060 b175               	lda (zp_temp),y
  1468  3062 8516               	sta z_operand_value_high_arr
  1469  3064 c8                 	iny
  1470  3065 b175               	lda (zp_temp),y
  1471  3067 4c1330             	jmp .jl_comp
  1472                          
  1473                          z_ins_je
  1474  306a a60d               	ldx z_operand_count
  1475  306c ca                 	dex
  1476  306d a51e               -	lda z_operand_value_low_arr
  1477  306f d51e               	cmp z_operand_value_low_arr,x
  1478  3071 d006               	bne .je_try_next
  1479  3073 a516               	lda z_operand_value_high_arr
  1480  3075 d516               	cmp z_operand_value_high_arr,x
  1481  3077 f02a               	beq make_branch_true
  1482                          .je_try_next
  1483  3079 ca                 	dex
  1484  307a d0f1               	bne -
  1485                          make_branch_false
  1486  307c a000b132e632d003...	+read_next_byte_at_z_pc
  1487  3089 8576               	sta zp_temp + 1
  1488  308b 2476               	bit zp_temp + 1
  1489  308d 7011               	bvs +
  1490  308f a000b132e632d003...	+read_next_byte_at_z_pc
  1491  309c 8577               	sta zp_temp + 2
  1492  309e 2476               	bit zp_temp + 1
  1493  30a0 1027               +	bpl .choose_jumptype
  1494  30a2 60                 -	rts
  1495                          make_branch_true
  1496  30a3 a000b132e632d003...	+read_next_byte_at_z_pc
  1497  30b0 8576               	sta zp_temp + 1
  1498  30b2 2476               	bit zp_temp + 1
  1499  30b4 7011               	bvs + ; 1 byte of branch information
  1500                          	; 2 bytes of branch information
  1501  30b6 a000b132e632d003...	+read_next_byte_at_z_pc
  1502  30c3 8577               	sta zp_temp + 2
  1503  30c5 2476               	bit zp_temp + 1
  1504  30c7 10d9               +	bpl -
  1505                          .choose_jumptype
  1506                              +make_acorn_screen_hole_jmp
  1507                          	; We have decided to jump
  1508  30c9 5025               	bvc .two_byte_jump
  1509                          	; This is a single byte jump
  1510  30cb a576               	lda zp_temp + 1
  1511  30cd 293f               	and #%00111111
  1512  30cf c902               	cmp #2
  1513  30d1 b006               	bcs .jump_to_single_byte_offset
  1514                          	; Return value (true or false)
  1515  30d3 aa                 	tax
  1516                          .return_x
  1517  30d4 a900               	lda #0
  1518  30d6 4ce73a             	jmp stack_return_from_routine
  1519                          .jump_to_single_byte_offset
  1520  30d9 e902               	sbc #2 ; Carry is already set
  1521  30db 18                 	clc
  1522  30dc 6532               	adc z_pc + 2
  1523  30de 900d               	bcc +
  1524  30e0 a8                 	tay
  1525  30e1 a531               	lda z_pc + 1
  1526  30e3 6900               	adc #0
  1527  30e5 aa                 	tax
  1528  30e6 a530               	lda z_pc
  1529  30e8 6900               	adc #0
  1530  30ea 4c3339             	jmp set_z_pc
  1531  30ed 8532               +	sta z_pc + 2 ; Within same page
  1532  30ef 60                 	rts
  1533                          .two_byte_jump
  1534  30f0 a576               	lda zp_temp + 1
  1535  30f2 293f               	and #%00111111
  1536  30f4 aa                 	tax
  1537  30f5 2920               	and #%00100000
  1538  30f7 f00b               	beq +
  1539                          	; Propagate minus bit
  1540  30f9 8a                 	txa
  1541  30fa 09c0               	ora #%11000000
  1542  30fc 8576               	sta zp_temp + 1
  1543  30fe a9ff               	lda #$ff
  1544  3100 8575               	sta zp_temp
  1545  3102 d010               	bne z_jump_to_offset_in_zp_temp ; Always branch
  1546  3104 8676               +	stx zp_temp + 1
  1547  3106 a900               	lda #0
  1548  3108 8575               	sta zp_temp
  1549                          ; two_byte_check_return
  1550  310a a677               	ldx zp_temp + 2
  1551  310c e002               	cpx #2
  1552  310e b004               	bcs z_jump_to_offset_in_zp_temp
  1553  3110 a576               	lda zp_temp + 1
  1554  3112 f0c0               	beq .return_x 
  1555                          z_jump_to_offset_in_zp_temp
  1556  3114 a532               	lda z_pc + 2
  1557  3116 18                 	clc
  1558  3117 6577               	adc zp_temp + 2
  1559                              +make_acorn_screen_hole_jmp
  1560  3119 a8                 	tay
  1561  311a a531               	lda z_pc + 1
  1562  311c 6576               	adc zp_temp + 1
  1563  311e aa                 	tax
  1564  311f a530               	lda z_pc
  1565  3121 6575               	adc zp_temp
  1566  3123 48                 	pha
  1567  3124 98                 	tya
  1568  3125 38                 	sec
  1569  3126 e902               	sbc #2
  1570  3128 a8                 	tay
  1571  3129 9004               	bcc +
  1572  312b 68                 	pla
  1573  312c 4c3339             	jmp set_z_pc
  1574  312f 8a                 +	txa
  1575  3130 e900               	sbc #0
  1576  3132 aa                 	tax
  1577  3133 68                 	pla
  1578  3134 e900               	sbc #0
  1579  3136 4c3339             	jmp set_z_pc
  1580                          
  1581                          ; z_ins_jin (moved to objecttable.asm)
  1582                          
  1583                          +make_acorn_screen_hole
  1584                          z_ins_test
  1585  3139 a51e               	lda z_operand_value_low_arr
  1586  313b 251f               	and z_operand_value_low_arr + 1
  1587  313d c51f               	cmp z_operand_value_low_arr + 1
  1588  313f d00b               	bne .test_branch_false
  1589  3141 a516               	lda z_operand_value_high_arr
  1590  3143 2517               	and z_operand_value_high_arr + 1
  1591  3145 c517               	cmp z_operand_value_high_arr + 1
  1592  3147 d003               	bne .test_branch_false
  1593  3149 4ca330             	jmp make_branch_true
  1594                          .test_branch_false
  1595  314c 4c7c30             	jmp make_branch_false
  1596                          	
  1597                          z_ins_or
  1598  314f a51e               	lda z_operand_value_low_arr
  1599  3151 051f               	ora z_operand_value_low_arr + 1
  1600  3153 aa                 	tax
  1601  3154 a516               	lda z_operand_value_high_arr
  1602  3156 0517               	ora z_operand_value_high_arr + 1
  1603  3158 4c2e40             	jmp z_store_result
  1604                          
  1605                          z_ins_and
  1606  315b a51e               	lda z_operand_value_low_arr
  1607  315d 251f               	and z_operand_value_low_arr + 1
  1608  315f aa                 	tax
  1609  3160 a516               	lda z_operand_value_high_arr
  1610  3162 2517               	and z_operand_value_high_arr + 1
  1611  3164 4c2e40             	jmp z_store_result
  1612                          
  1613                          ; z_ins_test_attr (moved to objecttable.asm)
  1614                          
  1615                          ; z_ins_set_attr (moved to objecttable.asm)
  1616                          	
  1617                          ; z_ins_clear_attr (moved to objecttable.asm)
  1618                          	
  1619                          z_ins_store
  1620  3167 a61e               	ldx z_operand_value_low_arr
  1621  3169 20032e             	jsr z_get_variable_reference
  1622  316c 8675               	stx zp_temp
  1623  316e 8576               	sta zp_temp + 1
  1624  3170 a000               	ldy #0
  1625  3172 a517               	lda z_operand_value_high_arr + 1
  1626  3174 9175               	sta (zp_temp),y
  1627  3176 c8                 	iny
  1628  3177 a51f               	lda z_operand_value_low_arr + 1
  1629  3179 9175               	sta (zp_temp),y
  1630  317b 60                 	rts
  1631                          
  1632                          ; z_ins_insert_obj (moved to objecttable.asm)
  1633                          	
  1634                          z_ins_loadw_and_storew
  1635  317c 061f               	asl z_operand_value_low_arr + 1 
  1636  317e 2617               	rol z_operand_value_high_arr + 1
  1637  3180 a51e               	lda z_operand_value_low_arr
  1638  3182 18                 	clc
  1639  3183 651f               	adc z_operand_value_low_arr + 1
  1640  3185 8575               	sta zp_temp
  1641  3187 aa                 	tax
  1642  3188 a516               	lda z_operand_value_high_arr
  1643  318a 6517               	adc z_operand_value_high_arr + 1
  1644  318c 8576               	sta zp_temp + 1
  1645  318e a001               	ldy #1
  1646  3190 a509               	lda z_opcode_number
  1647  3192 c90f               	cmp #15 ; Code for loadw
  1648  3194 d02a               	bne .storew
  1649                          	; Check if address is in dynamic memory
  1650  3196 ec0f4e             	cpx story_start + header_static_mem + 1
  1651  3199 a576               	lda zp_temp + 1
  1652  319b ed0e4e             	sbc story_start + header_static_mem
  1653  319e 9011               	bcc .word_read_in_dynmem
  1654                          ; !ifdef DEBUG {
  1655                          	; ; Check that address is in z-machine memory
  1656                          	; ; THIS CHECK IS ALL WRONG! Need to compute end of file address to compare to!
  1657                          	; cpx story_start + header_high_mem + 1
  1658                          	; lda zp_temp + 1
  1659                          	; sbc story_start + header_high_mem
  1660                          	; bcs .read_above_statmem
  1661                          ; }
  1662                          	; Address is in static memory
  1663  31a0 a576               	lda zp_temp + 1
  1664  31a2 206f44             	jsr set_z_address
  1665  31a5 20b244             	jsr read_next_byte
  1666  31a8 48                 	pha
  1667  31a9 20b244             	jsr read_next_byte
  1668  31ac aa                 	tax
  1669  31ad 68                 	pla
  1670  31ae 4c2e40             	jmp z_store_result
  1671                          .word_read_in_dynmem
  1672  31b1 a576               	lda zp_temp +1
  1673  31b3 694e               	adc #>story_start
  1674  31b5 8576               	sta zp_temp + 1
  1675  31b7 b175               	lda (zp_temp),y
  1676  31b9 aa                 	tax
  1677  31ba 88                 	dey
  1678  31bb b175               	lda (zp_temp),y
  1679  31bd 4c2e40             	jmp z_store_result
  1680                          .storew
  1681                          !ifdef DEBUG {
  1682                          	; Check that address is in dynamic memory
  1683                          	cpx story_start + header_static_mem + 1
  1684                          	lda zp_temp + 1
  1685                          	sbc story_start + header_static_mem
  1686                          	bcs .write_outside_dynmem
  1687                          }
  1688                          	; Ok, write is within dynmem
  1689  31c0 a576               	lda zp_temp + 1
  1690  31c2 694e               	adc #>story_start ; Carry is already clear
  1691  31c4 8576               	sta zp_temp + 1
  1692  31c6 a520               	lda z_operand_value_low_arr + 2
  1693  31c8 9175               	sta (zp_temp),y
  1694  31ca 88                 	dey
  1695  31cb a518               	lda z_operand_value_high_arr + 2
  1696  31cd 9175               	sta (zp_temp),y
  1697  31cf 60                 	rts
  1698                          !ifdef DEBUG {
  1699                          .write_outside_dynmem
  1700                          	lda #ERROR_WRITE_ABOVE_DYNMEM
  1701                          	jsr fatalerror
  1702                          ; .read_above_statmem
  1703                          	; lda #ERROR_READ_ABOVE_STATMEM
  1704                          	; jsr fatalerror
  1705                          }
  1706                          	
  1707                          z_ins_loadb
  1708  31d0 20152f             	jsr calc_address_in_byte_array
  1709  31d3 d007               	bne + ; Z = 0 if address is in statmem
  1710  31d5 b175               	lda (zp_temp),y
  1711  31d7 aa                 	tax
  1712  31d8 98                 	tya
  1713  31d9 4c2e40             	jmp z_store_result
  1714  31dc 20b244             +	jsr read_next_byte
  1715  31df aa                 	tax
  1716  31e0 a900               	lda #0
  1717  31e2 4c2e40             	jmp z_store_result
  1718                          
  1719                          ; VAR instruction, moved here to allow relative jump to error	
  1720                          z_ins_storeb
  1721  31e5 20152f             	jsr calc_address_in_byte_array
  1722                          !ifdef DEBUG {
  1723                          	bne .write_outside_dynmem
  1724                          }
  1725  31e8 a520               	lda z_operand_value_low_arr + 2
  1726  31ea 9175               	sta (zp_temp),y
  1727  31ec 60                 	rts
  1728                          
  1729                          ; z_ins_get_prop (moved to objecttable.asm)
  1730                          	
  1731                          ; z_ins_get_prop_addr (moved to objecttable.asm)
  1732                          
  1733                          ; z_ins_get_next_prop (moved to objecttable.asm)
  1734                          
  1735                          z_ins_add
  1736  31ed a51e               	lda z_operand_value_low_arr
  1737  31ef 18                 	clc
  1738  31f0 651f               	adc z_operand_value_low_arr + 1
  1739  31f2 aa                 	tax
  1740  31f3 a516               	lda z_operand_value_high_arr
  1741  31f5 6517               	adc z_operand_value_high_arr + 1
  1742  31f7 4c2e40             	jmp z_store_result
  1743                          
  1744                          z_ins_sub
  1745  31fa a51e               	lda z_operand_value_low_arr
  1746  31fc 38                 	sec
  1747  31fd e51f               	sbc z_operand_value_low_arr + 1
  1748  31ff aa                 	tax
  1749  3200 a516               	lda z_operand_value_high_arr
  1750  3202 e517               	sbc z_operand_value_high_arr + 1
  1751  3204 4c2e40             	jmp z_store_result
  1752                          
  1753                          .mul_product = memory_buffer ; 5 bytes (4 for product + 1 for last bit)
  1754                          .mul_inv_multiplicand = memory_buffer + 5 ; 2 bytes
  1755                          
  1756                          +make_acorn_screen_hole
  1757                          z_ins_mul
  1758  3207 a900               	lda #0
  1759  3209 a010               	ldy #16
  1760  320b 8d2804             	sta .mul_product
  1761  320e 8d2904             	sta .mul_product + 1
  1762  3211 8d2c04             	sta .mul_product + 4
  1763  3214 a516               	lda z_operand_value_high_arr
  1764  3216 8d2a04             	sta .mul_product + 2
  1765  3219 a51e               	lda z_operand_value_low_arr
  1766  321b 8d2b04             	sta .mul_product + 3
  1767  321e a51f               	lda z_operand_value_low_arr + 1
  1768  3220 49ff               	eor #$ff
  1769  3222 18                 	clc
  1770  3223 6901               	adc #1
  1771  3225 8d2e04             	sta .mul_inv_multiplicand + 1
  1772  3228 a517               	lda z_operand_value_high_arr + 1
  1773  322a 49ff               	eor #$ff
  1774  322c 6900               	adc #0
  1775  322e 8d2d04             	sta .mul_inv_multiplicand
  1776                          	; Perform multiplication
  1777                          .mul_next_iteration
  1778  3231 ad2b04             	lda .mul_product + 3
  1779  3234 2901               	and #1
  1780  3236 f01b               	beq .mul_bottom_is_0
  1781                          	; Bottom bit is 1
  1782  3238 2c2c04             	bit .mul_product + 4
  1783  323b 302c               	bmi .mul_do_nothing
  1784                          	; Subtract
  1785  323d ad2904             	lda .mul_product + 1
  1786  3240 18                 	clc
  1787  3241 6d2e04             	adc .mul_inv_multiplicand + 1
  1788  3244 8d2904             	sta .mul_product + 1
  1789  3247 ad2804             	lda .mul_product
  1790  324a 6d2d04             	adc .mul_inv_multiplicand
  1791  324d 8d2804             	sta .mul_product
  1792  3250 4c6932             	jmp .mul_do_nothing
  1793                          .mul_bottom_is_0
  1794                          	; Bottom bit is 0
  1795  3253 2c2c04             	bit .mul_product + 4
  1796  3256 1011               	bpl .mul_do_nothing
  1797                          	; Add
  1798  3258 ad2904             	lda .mul_product + 1
  1799  325b 18                 	clc
  1800  325c 651f               	adc z_operand_value_low_arr + 1
  1801  325e 8d2904             	sta .mul_product + 1
  1802  3261 ad2804             	lda .mul_product
  1803  3264 6517               	adc z_operand_value_high_arr + 1
  1804  3266 8d2804             	sta .mul_product
  1805                          .mul_do_nothing
  1806  3269 18                 	clc
  1807  326a 2c2804             	bit .mul_product
  1808  326d 1001               	bpl +
  1809  326f 38                 	sec
  1810  3270 6e2804             +	ror .mul_product
  1811  3273 6e2904             	ror .mul_product + 1
  1812  3276 6e2a04             	ror .mul_product + 2
  1813  3279 6e2b04             	ror .mul_product + 3
  1814  327c 6e2c04             	ror .mul_product + 4
  1815  327f 88                 	dey
  1816  3280 d0af               	bne .mul_next_iteration
  1817  3282 ad2a04             	lda .mul_product + 2
  1818  3285 ae2b04             	ldx .mul_product + 3
  1819  3288 4c2e40             	jmp z_store_result
  1820                          
  1821                          z_ins_div
  1822  328b a0ff               	ldy #$ff
  1823  328d 209f2e             	jsr z_divide
  1824  3290 ad1923             	lda division_result + 1
  1825  3293 ae1823             	ldx division_result
  1826  3296 4c2e40             	jmp z_store_result
  1827                          	
  1828                          z_ins_mod
  1829  3299 a0ff               	ldy #$ff
  1830  329b 209f2e             	jsr z_divide
  1831  329e ad1a23             	lda remainder
  1832  32a1 2416               	bit z_operand_value_high_arr
  1833  32a3 3007               	bmi +
  1834  32a5 aa                 	tax
  1835  32a6 ad1b23             	lda remainder  + 1
  1836  32a9 4c2e40             	jmp z_store_result
  1837  32ac 49ff               +	eor #$ff
  1838  32ae 18                 	clc
  1839  32af 6901               	adc #1
  1840  32b1 aa                 	tax
  1841  32b2 ad1b23             	lda remainder + 1
  1842  32b5 49ff               	eor #$ff
  1843  32b7 6900               	adc #0
  1844  32b9 4c2e40             	jmp z_store_result
  1845                          	
  1846                          !ifdef Z5PLUS {
  1847                          z_ins_call_xn
  1848                          	; If value in argument 0 is 0, set status flag Z to 1, otherwise set to 0
  1849  32bc a516               	lda z_operand_value_high_arr
  1850  32be 051e               	ora z_operand_value_low_arr
  1851  32c0 d001               	bne +
  1852  32c2 60                 	rts
  1853  32c3 a60d               +	ldx z_operand_count
  1854  32c5 ca                 	dex
  1855  32c6 a000               	ldy #0 ; Don't store result
  1856  32c8 98                 	tya ; Normal call mode
  1857  32c9 4ccf39             	jmp stack_call_routine
  1858                          }
  1859                          	
  1860                          ; z_ins_set_colour (moved to screenkernal.asm)
  1861                          
  1862                          ; z_ins_throw (moved to stack.asm)
  1863                          
  1864                          	
  1865                          ; VAR instructions
  1866                          	
  1867                          z_ins_call_xs
  1868                          ;	jsr check_for_routine_0_and_store
  1869  32cc a516               	lda z_operand_value_high_arr
  1870  32ce 051e               	ora z_operand_value_low_arr
  1871  32d0 d006               	bne +
  1872  32d2 a900               	lda #0
  1873  32d4 aa                 	tax
  1874  32d5 4c2e40             	jmp z_store_result
  1875  32d8 a60d               +	ldx z_operand_count
  1876  32da ca                 	dex
  1877  32db a001               	ldy #1 ; Store result = 1
  1878  32dd a900               	lda #z_exe_mode_normal
  1879  32df 4ccf39             	jmp stack_call_routine
  1880                          
  1881                          ; VAR storew is implemented in z_ins_loadw_and_storew, under 2OP	
  1882                          
  1883                          ; VAR storeb was moved to 2OP area, to allow for relative jump for error.
  1884                          	
  1885                          ; z_ins_put_prop (moved to objecttable.asm)
  1886                          	
  1887                          ; z_ins_read (moved to text.asm)
  1888                          
  1889                          ; z_ins_print_char (moved to text.asm)
  1890                          
  1891                          z_ins_print_num
  1892  32e2 a516               	lda z_operand_value_high_arr
  1893  32e4 1017               	bpl print_num_unsigned 
  1894  32e6 a61e               	ldx z_operand_value_low_arr
  1895  32e8 a8                 	tay
  1896  32e9 a92d               	lda #$2d
  1897  32eb 201d26             	jsr streams_print_output
  1898  32ee 8a                 	txa
  1899  32ef 49ff               	eor #$ff
  1900  32f1 18                 	clc
  1901  32f2 6901               	adc #1
  1902  32f4 851e               	sta z_operand_value_low_arr
  1903  32f6 98                 	tya
  1904  32f7 49ff               	eor #$ff
  1905  32f9 6900               	adc #0
  1906  32fb 8516               	sta z_operand_value_high_arr
  1907                          print_num_unsigned
  1908                          	; Sign has been printed, if any. Now print number (0 to 32768)
  1909  32fd a90a               	lda #10
  1910  32ff 851f               	sta z_operand_value_low_arr + 1
  1911  3301 a900               	lda #0
  1912  3303 8517               	sta z_operand_value_high_arr + 1
  1913                          	; Divide by 10 up to four times
  1914  3305 a000               	ldy #0
  1915  3307 8468               	sty z_temp
  1916  3309 a51e               -	lda z_operand_value_low_arr
  1917  330b c90a               	cmp #10
  1918  330d b005               	bcs +
  1919  330f aa                 	tax
  1920  3310 a516               	lda z_operand_value_high_arr
  1921  3312 f01c               	beq .done_dividing
  1922  3314 a000               +	ldy #0
  1923  3316 209f2e             	jsr z_divide
  1924  3319 ad1a23             	lda remainder
  1925  331c a468               	ldy z_temp
  1926  331e 996900             	sta z_temp + 1,y
  1927  3321 e668               	inc z_temp
  1928  3323 ad1823             	lda division_result
  1929  3326 851e               	sta z_operand_value_low_arr
  1930  3328 ad1923             	lda division_result + 1
  1931  332b 8516               	sta z_operand_value_high_arr
  1932  332d 4c0933             	jmp -
  1933                          .done_dividing
  1934  3330 a468               	ldy z_temp
  1935  3332 8a                 	txa
  1936  3333 996900             	sta z_temp + 1,y
  1937  3336 b96900             -	lda z_temp + 1,y
  1938  3339 18                 	clc
  1939  333a 6930               	adc #$30
  1940  333c 201d26             	jsr streams_print_output
  1941  333f 88                 	dey
  1942  3340 10f4               	bpl -
  1943                          !ifdef Z5PLUS {
  1944                          z_ins_set_true_colour
  1945                          }
  1946  3342 60                 	rts
  1947                          
  1948                          +make_acorn_screen_hole
  1949                          z_ins_random	
  1950  3343 a516               	lda z_operand_value_high_arr
  1951  3345 f005               	beq .random_highbyte_empty
  1952  3347 1027               	bpl .random_wordsize
  1953  3349 4cae33             	jmp .random_seed
  1954                          .random_highbyte_empty
  1955  334c a51e               +	lda z_operand_value_low_arr
  1956  334e d020               	bne .random_wordsize
  1957  3350 4ca433             	jmp	.random_seed_0
  1958                          .random_bytesize
  1959  3353 a001               	ldy #1
  1960  3355 8477               	sty zp_temp + 2 ; mask
  1961  3357 a577               -	lda zp_temp + 2
  1962  3359 c51e               	cmp z_operand_value_low_arr
  1963  335b b005               	bcs .random_bytesize_found_mask
  1964  335d 38                 	sec
  1965  335e 2677               	rol zp_temp + 2
  1966  3360 90f5               	bcc - ; Branch unless the mask is now > $ff (which can't happen)
  1967                          .random_bytesize_found_mask
  1968  3362 20662f             -	jsr z_rnd_number
  1969  3365 2577               	and zp_temp + 2
  1970  3367 c51e               	cmp z_operand_value_low_arr
  1971  3369 b0f7               	bcs -
  1972  336b aa                 	tax
  1973  336c e8                 	inx
  1974                          
  1975                          !ifdef DEBUG {
  1976                          	ldy z_test
  1977                          	beq .rnd_store_bytesize
  1978                          	stx z_temp + 1
  1979                          	lda #0
  1980                          	jsr printinteger
  1981                          	jsr space
  1982                          	ldx z_temp + 1
  1983                          	ldy z_test
  1984                          	cpy #z_test_mode_print
  1985                          	bne .rnd_store_bytesize
  1986                          	rts
  1987                          .rnd_store_bytesize
  1988                          }
  1989                          
  1990  336d 4c2e40             	jmp z_store_result
  1991                          
  1992                          .random_wordsize	
  1993  3370 a001               	ldy #1
  1994  3372 8477               	sty zp_temp + 2 ; lowbyte of mask
  1995  3374 88                 	dey
  1996  3375 8478               	sty zp_temp + 3 ; highbyte of mask
  1997  3377 a577               -	lda zp_temp + 2
  1998  3379 c51e               	cmp z_operand_value_low_arr
  1999  337b a578               	lda zp_temp + 3
  2000  337d e516               	sbc z_operand_value_high_arr
  2001  337f b007               	bcs .random_found_mask
  2002  3381 38                 	sec
  2003  3382 2677               	rol zp_temp + 2
  2004  3384 2678               	rol zp_temp + 3
  2005  3386 90ef               	bcc - ; Branch unless the mask is now > $ffff (which can't happen)
  2006                          .random_found_mask
  2007  3388 20662f             -	jsr z_rnd_number
  2008  338b 2578               	and zp_temp + 3
  2009  338d a8                 	tay
  2010  338e 20662f             	jsr z_rnd_number
  2011  3391 2577               	and zp_temp + 2
  2012  3393 aa                 	tax
  2013  3394 c51e               	cmp z_operand_value_low_arr
  2014  3396 98                 	tya
  2015  3397 e516               	sbc z_operand_value_high_arr
  2016  3399 b0ed               	bcs -
  2017                          ; .rnd_store_good_rnd_number
  2018  339b 98                 	tya
  2019  339c e8                 	inx
  2020  339d d002               	bne +
  2021  339f 6901               	adc #1 ; Carry is always clear here, no need for clc
  2022                          +
  2023                          
  2024                          !ifdef DEBUG {
  2025                          	ldy z_test
  2026                          	beq .rnd_store
  2027                          	sta z_temp
  2028                          	stx z_temp + 1
  2029                          	jsr printinteger
  2030                          	jsr space
  2031                          	lda z_temp
  2032                          	ldx z_temp + 1
  2033                          	ldy z_test
  2034                          	cpy #z_test_mode_print
  2035                          	bne .rnd_store
  2036                          	rts
  2037                          .rnd_store
  2038                          }
  2039                          
  2040  33a1 4c2e40             	jmp z_store_result
  2041                          
  2042                          .random_seed_0
  2043                          !ifndef BENCHMARK {
  2044                          !ifdef DEBUG {
  2045                          	ldy z_test
  2046                          	beq +
  2047                          	jsr print_following_string
  2048                          !ifndef ACORN {
  2049                          	!pet "seed 0!",13,0
  2050                          } else {
  2051                              !text "seed 0!",13,0
  2052                          }
  2053                          +	
  2054                          }
  2055  33a4 20382f             	jsr z_rnd_init_random
  2056  33a7 a900               	lda #0
  2057  33a9 8d882b             	sta z_rnd_mode
  2058  33ac f010               	beq .rnd_tax_and_return ; Always branch
  2059                          }
  2060                          .random_seed
  2061                          
  2062                          !ifdef DEBUG {
  2063                          	ldy z_test
  2064                          	beq +
  2065                          	tax
  2066                          	jsr print_following_string
  2067                          !ifndef ACORN {
  2068                          	!pet "seed -1!",13,0
  2069                          } else {
  2070                          	!text "seed -1!",13,0
  2071                          }
  2072                          	txa
  2073                          +
  2074                          }	
  2075                          
  2076  33ae a8                 	tay
  2077  33af a61e               	ldx z_operand_value_low_arr
  2078  33b1 18                 	clc
  2079  33b2 69aa               	adc #%10101010
  2080  33b4 20582f             	jsr z_rnd_init
  2081  33b7 a901               	lda #1 ; Predictable sequence
  2082  33b9 8d882b             	sta z_rnd_mode
  2083  33bc a900               	lda #0
  2084                          .rnd_tax_and_return
  2085  33be aa                 	tax
  2086                          
  2087                          !ifdef DEBUG {
  2088                          	ldy z_test
  2089                          	cpy #z_test_mode_print
  2090                          	bne .rnd_store_seed
  2091                          	rts
  2092                          .rnd_store_seed
  2093                          }
  2094                          
  2095  33bf 4c2e40             	jmp z_store_result
  2096                          
  2097                          ; z_ins_push moved to stack.asm
  2098                          	
  2099                          ; z_ins_pull moved to stack.asm
  2100                          
  2101                          ; z_ins_split_window moved to screen.asm
  2102                          
  2103                          ; z_ins_set_window moved to screen.asm
  2104                          
  2105                          ; z_ins_erase_window moved to screen.asm
  2106                          
  2107                          ; z_ins_erase_line moved to screen.asm
  2108                          
  2109                          ; z_ins_set_cursor moved to screen.asm
  2110                          
  2111                          ; z_ins_get_cursor moved to screen.asm
  2112                          
  2113                          ; z_ins_buffer_mode moved to screen.asm
  2114                          
  2115                          ; z_ins_set_text_style moved to screen.asm
  2116                          	
  2117                          ; z_ins_output_stream jumps directly to streams_output_stream.
  2118                          
  2119                          z_ins_sound_effect
  2120                          !ifndef ACORN {
  2121                          	lda #$08
  2122                          } else {
  2123  33c2 a900                   lda #0 ; B1
  2124                          }
  2125  33c4 a61e               	ldx z_operand_value_low_arr
  2126  33c6 ca                 	dex
  2127  33c7 f004               	beq .sound_high_pitched_beep
  2128  33c9 ca                 	dex
  2129  33ca f003               	beq .sound_low_pitched_beep
  2130  33cc 60                 	rts
  2131                          !ifndef ACORN {
  2132                          .sound_high_pitched_beep
  2133                          	lda #$40
  2134                          .sound_low_pitched_beep
  2135                          	sta $d401
  2136                          	lda #$21
  2137                          	sta $d404
  2138                          	ldy #40
  2139                          --	ldx #0
  2140                          -	dex
  2141                          	bne -
  2142                          	dey
  2143                          	bne --
  2144                          	lda #$20
  2145                          	sta $d404
  2146                          	rts
  2147                          } else {
  2148                              ; MOS 6581 SID datasheet says for standard 1.0MHz clock, frequency is given
  2149                              ; by Fout = (Fn * 0.0596) Hz. The C64 code uses Fn=$4000->976 Hz for the
  2150                              ; high-pitched bleep and Fn=$0800->122 Hz for the low-pitched bleep. Looking
  2151                              ; up those frequencies in https://en.wikipedia.org/wiki/Piano_key_frequencies
  2152                              ; and correlating that with the table in the BBC User Guide gives the values
  2153                              ; used here. This is far too much effort for such a tiny sound. :-)
  2154                          sound_high_pitched_beep
  2155                          .sound_high_pitched_beep
  2156  33cd a990                   lda #144 ; B4
  2157                          .sound_low_pitched_beep
  2158  33cf 8ddf33                 sta .sound_block + 4
  2159                              ; SF: ENHANCEMENT: The C64 code won't return until the sound has finished
  2160                              ; playing. I am really struggling to find a way to wait until the sound has
  2161                              ; played; checking the free space in the sound buffer only tells us it has
  2162                              ; started playing as far as I can see from my experiments. It probably
  2163                              ; doesn't matter that we return to the caller before the sound has finished,
  2164                              ; but I could vaguely imagine a game playing sounds repeatedly in a timed
  2165                              ; loop and with this implementation the OS buffer would cause the sounds to
  2166                              ; go on a bit longer than desired. In practice the buffer isn't huge and
  2167                              ; these sounds are very short and it's almost certainly not going to matter.
  2168  33d2 a907                   lda #osword_sound
  2169  33d4 a2db                   ldx #<.sound_block
  2170  33d6 a033                   ldy #>.sound_block
  2171  33d8 4cf1ff                 jmp osword
  2172                          
  2173                          .sound_block
  2174  33db 0100                   !word 1   ; channel
  2175  33dd f1ff                   !word -15 ; amplitude
  2176  33df 0000                   !word 0   ; pitch
  2177  33e1 0100                   !word 1   ; duration (twentieths of a second) - C64 bleep is ~(1/20) sec
  2178                          }
  2179                          
  2180                          +make_acorn_screen_hole
  2181                          !ifdef Z4PLUS {
  2182                          z_ins_scan_table
  2183  33e3 a982               	lda #$82
  2184  33e5 a60d               	ldx z_operand_count
  2185  33e7 e004               	cpx #4
  2186  33e9 9002               	bcc +
  2187  33eb a521               	lda z_operand_value_low_arr + 3
  2188  33ed 8575               +	sta zp_temp ; form (bit 7 = 1 means words, 0 means bytes)
  2189  33ef 2980               	and #$80
  2190  33f1 d004               	bne + ; This is word compare, so don't perform the following test
  2191  33f3 a516               	lda z_operand_value_high_arr
  2192  33f5 d047               	bne .scan_table_false ; A value > 255 will never be matched by a byte
  2193  33f7 a575               +	lda zp_temp
  2194  33f9 297f               	and #$7f
  2195  33fb 8576               	sta zp_temp + 1 ; entry length (1-127)
  2196  33fd a61f               	ldx z_operand_value_low_arr + 1
  2197  33ff 8677               	stx zp_temp + 2 ; Lowbyte of table address
  2198  3401 a517               	lda z_operand_value_high_arr + 1
  2199  3403 8578               	sta zp_temp + 3 ; Highbyte of table address
  2200                          .scan_next
  2201  3405 a518               	lda z_operand_value_high_arr + 2
  2202  3407 0520               	ora z_operand_value_low_arr + 2
  2203  3409 f033               	beq .scan_table_false
  2204  340b a578               	lda zp_temp + 3
  2205  340d a677               	ldx zp_temp + 2
  2206  340f 206f44                 jsr set_z_address
  2207  3412 20b244             	jsr read_next_byte
  2208  3415 a675               	ldx zp_temp
  2209  3417 1007               	bpl .scan_byte_compare
  2210  3419 c516               	cmp z_operand_value_high_arr
  2211  341b d007               	bne .scan_not_a_match
  2212  341d 20b244             	jsr read_next_byte
  2213                          .scan_byte_compare
  2214  3420 c51e               	cmp z_operand_value_low_arr
  2215  3422 f023               	beq .scan_is_a_match
  2216                          .scan_not_a_match
  2217                          	; Move to next address in table
  2218  3424 a577               	lda zp_temp + 2
  2219  3426 18                 	clc
  2220  3427 6576               	adc zp_temp + 1
  2221  3429 8577               	sta zp_temp + 2
  2222  342b a578               	lda zp_temp + 3
  2223  342d 6900               	adc #0
  2224  342f 8578               	sta zp_temp + 3
  2225                          	; Decrease number of entries left
  2226  3431 c620               	dec z_operand_value_low_arr + 2
  2227  3433 a420               	ldy z_operand_value_low_arr + 2
  2228  3435 c0ff               	cpy #$ff
  2229  3437 d0cc               	bne .scan_next
  2230  3439 c618               	dec z_operand_value_high_arr + 2
  2231  343b 4c0534             	jmp .scan_next
  2232                          .scan_table_false
  2233  343e a900               	lda #0
  2234  3440 aa                 	tax
  2235  3441 202e40             	jsr z_store_result
  2236  3444 4c7c30             	jmp make_branch_false
  2237                          .scan_is_a_match
  2238  3447 a578               	lda zp_temp + 3
  2239  3449 a677               	ldx zp_temp + 2
  2240  344b 202e40             	jsr z_store_result
  2241  344e 4ca330             	jmp make_branch_true
  2242                          }
  2243                          
  2244                          ; z_ins_read_char moved to text.asm	
  2245                          
  2246                          ; z_ins_tokenise_text moved to text.asm
  2247                          
  2248                          ; z_ins_encode_text moved to text.asm
  2249                          
  2250                          !ifdef Z5PLUS {
  2251                          z_ins_copy_table
  2252                          	; copy_table first second size 
  2253                          
  2254  3451 a51f               	lda z_operand_value_low_arr + 1
  2255  3453 0517               	ora z_operand_value_high_arr + 1
  2256  3455 d027               	bne .copy_table_not_zerofill
  2257                          
  2258                          	; Fill with zero
  2259                          	; Copy target table address to ZP vector
  2260  3457 a51e               	lda z_operand_value_low_arr
  2261  3459 8575               	sta zp_temp
  2262  345b a516               	lda z_operand_value_high_arr
  2263  345d 18                 	clc
  2264  345e 694e               	adc #>story_start
  2265  3460 8576               	sta zp_temp + 1
  2266                          
  2267                          	; Perform zero-fill
  2268  3462 a000               	ldy #0
  2269  3464 a620               	ldx z_operand_value_low_arr + 2
  2270  3466 8a                 -	txa
  2271  3467 0518               	ora z_operand_value_high_arr + 2
  2272  3469 f012               	beq .copy_all_done
  2273  346b a900               	lda #0
  2274  346d 9175               	sta (zp_temp),y
  2275  346f c8                 	iny
  2276  3470 d002               	bne +
  2277  3472 e676               	inc zp_temp + 1
  2278  3474 ca                 +	dex
  2279  3475 e0ff               	cpx #$ff
  2280  3477 d0ed               	bne -
  2281  3479 c618               	dec z_operand_value_high_arr + 2
  2282  347b 10e9               	bpl - ; Always branch
  2283                          .copy_all_done
  2284  347d 60                 	rts ; We are done
  2285                          
  2286                          .copy_table_not_zerofill
  2287                          
  2288                          	; Copy target table address to ZP vector
  2289  347e a51f               	lda z_operand_value_low_arr + 1
  2290  3480 8575               	sta zp_temp
  2291  3482 a517               	lda z_operand_value_high_arr + 1
  2292  3484 18                 	clc
  2293  3485 694e               	adc #>story_start
  2294  3487 8576               	sta zp_temp + 1
  2295                          
  2296                          	; If size is negative, we invert it and copy forwards
  2297  3489 a418               	ldy z_operand_value_high_arr + 2
  2298  348b 303e               	bmi .copy_table_forwards_invert_size
  2299                          	
  2300                          	; Choose direction
  2301  348d a51f               	lda z_operand_value_low_arr + 1
  2302  348f c51e               	cmp z_operand_value_low_arr
  2303  3491 a517               	lda z_operand_value_high_arr + 1
  2304  3493 e516               	sbc z_operand_value_high_arr
  2305  3495 9044               	bcc .copy_table_forwards
  2306                          
  2307                          	; Copy table backwards
  2308                          	; Add size - 1 to first
  2309  3497 a51e               	lda z_operand_value_low_arr
  2310  3499 18                 	clc
  2311  349a 6520               	adc z_operand_value_low_arr + 2
  2312  349c a8                 	tay
  2313  349d a516               	lda z_operand_value_high_arr
  2314  349f 6518               	adc z_operand_value_high_arr + 2
  2315  34a1 aa                 	tax
  2316  34a2 98                 	tya
  2317  34a3 38                 	sec
  2318  34a4 e901               	sbc #1
  2319  34a6 851e               	sta z_operand_value_low_arr
  2320  34a8 8a                 	txa
  2321  34a9 e900               	sbc #0
  2322  34ab 8516               	sta z_operand_value_high_arr
  2323                          	; Add size - 1 to second
  2324  34ad a575               	lda zp_temp
  2325  34af 18                 	clc
  2326  34b0 6520               	adc z_operand_value_low_arr + 2
  2327  34b2 a8                 	tay
  2328  34b3 a576               	lda zp_temp + 1
  2329  34b5 6518               	adc z_operand_value_high_arr + 2
  2330  34b7 aa                 	tax
  2331  34b8 98                 	tya
  2332  34b9 38                 	sec
  2333  34ba e901               	sbc #1
  2334  34bc 8575               	sta zp_temp
  2335  34be 8a                 	txa
  2336  34bf e900               	sbc #0
  2337  34c1 8576               	sta zp_temp + 1
  2338                          	; Store direction
  2339  34c3 a2ff               	ldx #$ff
  2340  34c5 8677               	stx zp_temp + 2
  2341  34c7 8678               	stx zp_temp + 3
  2342  34c9 d017               	bne .copy_table_common ; Always branch
  2343                          	
  2344                          .copy_table_forwards_invert_size
  2345  34cb a520               	lda z_operand_value_low_arr + 2
  2346  34cd 38                 	sec
  2347  34ce e901               	sbc #1
  2348  34d0 49ff               	eor #$ff
  2349  34d2 8520               	sta z_operand_value_low_arr + 2
  2350  34d4 98                 	tya
  2351  34d5 e900               	sbc #0
  2352  34d7 49ff               	eor #$ff
  2353  34d9 8518               	sta z_operand_value_high_arr + 2
  2354                          
  2355                          .copy_table_forwards
  2356  34db a201               	ldx #1
  2357  34dd 8677               	stx zp_temp + 2
  2358  34df ca                 	dex
  2359  34e0 8678               	stx zp_temp + 3
  2360                          
  2361                          .copy_table_common
  2362  34e2 a616               	ldx z_operand_value_high_arr
  2363  34e4 a41e               	ldy z_operand_value_low_arr
  2364  34e6 a520               -	lda z_operand_value_low_arr + 2
  2365  34e8 0518               	ora z_operand_value_high_arr + 2
  2366  34ea f091               	beq .copy_all_done
  2367  34ec a900               	lda #0
  2368                          	; Read next byte from first table
  2369  34ee 20f540             	jsr read_byte_at_z_address
  2370                          	; Store byte in second table
  2371  34f1 a000               	ldy #0
  2372  34f3 9175               	sta (zp_temp),y
  2373                          	; Increase/decrease pointer to second
  2374  34f5 a575               	lda zp_temp
  2375  34f7 18                 	clc
  2376  34f8 6577               	adc zp_temp + 2
  2377  34fa 8575               	sta zp_temp
  2378  34fc a576               	lda zp_temp + 1
  2379  34fe 6578               	adc zp_temp + 3
  2380  3500 8576               	sta zp_temp + 1
  2381                          	; Increase/decrease pointer to first
  2382  3502 a51e               	lda z_operand_value_low_arr
  2383  3504 18                 	clc
  2384  3505 6577               	adc zp_temp + 2
  2385  3507 851e               	sta z_operand_value_low_arr
  2386  3509 a8                 	tay
  2387  350a a516               	lda z_operand_value_high_arr
  2388  350c 6578               	adc zp_temp + 3
  2389  350e 8516               	sta z_operand_value_high_arr
  2390  3510 aa                 	tax
  2391                          	; Decrease # of bytes left to copy
  2392  3511 c620               	dec z_operand_value_low_arr + 2
  2393  3513 a520               	lda z_operand_value_low_arr + 2
  2394  3515 c9ff               	cmp #$ff
  2395  3517 d0cd               	bne -
  2396  3519 c618               	dec z_operand_value_high_arr + 2
  2397  351b 10c9               	bpl - ; Always branch
  2398                          }
  2399                          ; z_ins_print_table moved to screen.asm
  2400                          
  2401                          ; z_ins_check_arg_count moved to stack.asm	
  2402                          	
  2403                          ; EXT instructions
  2404                          
  2405                          !ifdef Z5PLUS {
  2406                          z_ins_log_shift
  2407  351d a517               	lda z_operand_value_high_arr + 1
  2408  351f 051f               	ora z_operand_value_low_arr + 1
  2409  3521 f016               	beq .shift_store
  2410  3523 2417               	bit z_operand_value_high_arr + 1
  2411  3525 100a               	bpl .left_shift
  2412  3527 4616               -	lsr z_operand_value_high_arr
  2413  3529 661e               	ror z_operand_value_low_arr
  2414  352b e61f               	inc z_operand_value_low_arr + 1
  2415  352d d0f8               	bne -
  2416  352f f008               	beq .shift_store ; Always branch
  2417                          .left_shift
  2418  3531 061e               	asl z_operand_value_low_arr
  2419  3533 2616               	rol z_operand_value_high_arr
  2420  3535 c61f               	dec z_operand_value_low_arr + 1
  2421  3537 d0f8               	bne .left_shift
  2422                          .shift_store
  2423  3539 a61e               	ldx z_operand_value_low_arr
  2424  353b a516               	lda z_operand_value_high_arr
  2425  353d 4c2e40             	jmp z_store_result
  2426                          
  2427                          z_ins_art_shift
  2428  3540 a517               	lda z_operand_value_high_arr + 1
  2429  3542 051f               	ora z_operand_value_low_arr + 1
  2430  3544 f0f3               	beq .shift_store
  2431  3546 2417               	bit z_operand_value_high_arr + 1
  2432  3548 10e7               	bpl .left_shift
  2433  354a 18                 -	clc
  2434  354b 2416               	bit z_operand_value_high_arr
  2435  354d 1001               	bpl +
  2436  354f 38                 	sec
  2437  3550 6616               +	ror z_operand_value_high_arr
  2438  3552 661e               	ror z_operand_value_low_arr
  2439  3554 e61f               	inc z_operand_value_low_arr + 1
  2440  3556 d0f2               	bne -
  2441  3558 f0df               	beq .shift_store ; Always branch
  2442                          
  2443                          z_ins_set_font
  2444  355a a474               	ldy current_window
  2445  355c a51e               	lda z_operand_value_low_arr
  2446  355e f019               	beq .set_font_check_status
  2447  3560 c901               	cmp #1
  2448  3562 f00a               	beq .set_font_do
  2449  3564 c904               	cmp #4
  2450  3566 f006               	beq .set_font_do
  2451                          	; Font is unavailable
  2452  3568 a900               	lda #0
  2453  356a aa                 	tax
  2454  356b 4c2e40             	jmp z_store_result
  2455                          .set_font_do
  2456  356e be8b2b             	ldx z_font,y
  2457  3571 998b2b             	sta z_font,y
  2458  3574 a900               	lda #0
  2459  3576 4c2e40             	jmp z_store_result
  2460                          .set_font_check_status	
  2461  3579 be8b2b             	ldx z_font,y ; a is already 0
  2462  357c 4c2e40             	jmp z_store_result
  2463                          
  2464                          z_ins_save_restore_undo
  2465                          	; Return -1 to indicate that this is not supported
  2466  357f a2ff               	ldx #$ff
  2467  3581 8a                 	txa
  2468  3582 4c2e40             	jmp z_store_result
  2469                          }
  2470                          
  2471                          ; z_ins_set_true_colour placed at end of VAR z_ins_print_num
  2472                          	
  2473                          	
  2474                          }

; ******** Source: ozmoo.asm
   232                          
   233                          }

; ******** Source: screen.asm
     1                          ; screen update routines
     2                          
     3                          !ifndef ACORN { ; SF
     4                          init_screen_colours_invisible
     5                          	lda zcolours + BGCOL
     6                          	bpl + ; Always branch
     7                          init_screen_colours
     8                              jsr s_init
     9                          	lda zcolours + FGCOL
    10                          !if BORDERCOL_FINAL = 1 {
    11                          	sta reg_bordercolour
    12                          }
    13                          +	jsr s_set_text_colour
    14                              lda zcolours + BGCOL
    15                              sta reg_backgroundcolour
    16                          !if BORDERCOL_FINAL = 0 {
    17                          	sta reg_bordercolour
    18                          } else {
    19                          	!if BORDERCOL_FINAL != 1 {
    20                          		lda zcolours + BORDERCOL_FINAL
    21                          		sta reg_bordercolour
    22                          	}
    23                          }
    24                              lda zcolours + CURSORCOL
    25                              sta current_cursor_colour
    26                          !ifdef Z5PLUS {
    27                              ; store default colours in header
    28                              lda #BGCOL ; blue
    29                              sta story_start + header_default_bg_colour
    30                              lda #FGCOL ; white
    31                              sta story_start + header_default_fg_colour
    32                          }
    33                              lda #147 ; clear screen
    34                              jmp s_printchar
    35                          }
    36                          
    37                          !ifdef Z4PLUS {
    38                          z_ins_erase_window
    39                              ; erase_window window
    40  3585 a61e                   ldx z_operand_value_low_arr
    41                          ;    jmp erase_window ; Not needed, since erase_window follows
    42                          }
    43                          	
    44                          erase_window
    45                              ; x = 0: clear lower window
    46                              ;     1: clear upper window
    47                              ;    -1: clear screen and unsplit
    48                              ;    -2: clear screen and keep split
    49  3587 a58f                   lda zp_screenrow
    50  3589 48                     pha
    51                          ;    lda z_operand_value_low_arr
    52  358a e000                   cpx #0
    53  358c f018                   beq .window_0
    54  358e e001                   cpx #1
    55  3590 f033                   beq .window_1
    56  3592 a900               	lda #0
    57  3594 8574               	sta current_window
    58  3596 e0ff                   cpx #$ff ; clear screen, then; -1 unsplit, -2 keep as is
    59  3598 d008                   bne .keep_split
    60  359a 203e37             	jsr clear_num_rows
    61  359d a200                   ldx #0 ; unsplit
    62  359f 209836                 jsr split_window
    63                          .keep_split
    64                          !ifdef Z3 {
    65                              lda #1
    66                          	bne .clear_from_a ; Always branch
    67                          } else {
    68  35a2 a900                   lda #0
    69  35a4 f002               	beq .clear_from_a ; Always branch
    70                          }
    71                              ; SF: ENHANCEMENT: This could be rewritten to clear the whole area in one go
    72                              ; using a text window, but since it would introduce a divergence from
    73                              ; upstream with potential for bugs I'd want a decent performance improvement
    74                              ; in a real game to make it worthwhile.
    75                          .window_0
    76  35a6 a581                   lda window_start_row + 1
    77                          .clear_from_a
    78  35a8 858f                   sta zp_screenrow
    79  35aa 20de24             -   jsr s_erase_line
    80  35ad e68f                   inc zp_screenrow
    81  35af a58f                   lda zp_screenrow
    82  35b1 c919                   +cmp_screen_height
    83  35b3 d0f5                   bne -
    84  35b5 203e37             	jsr clear_num_rows
    85                              ; set cursor to top left (or, if Z4, bottom left)
    86  35b8 68                     pla
    87  35b9 a200               	ldx #0
    88  35bb 867d               	stx cursor_column + 1
    89                          !ifdef Z3 {
    90                          	inx
    91                          }
    92                          !ifdef Z5PLUS {
    93  35bd a581                   lda window_start_row + 1
    94                          } else {
    95                              +lda_screen_height_minus_1
    96                          }
    97  35bf 867b               	stx cursor_row + 1
    98  35c1 48                     pha
    99  35c2 4cda35                 jmp .end_erase
   100                              ; SF: ENHANCEMENT: As above.
   101                          .window_1
   102  35c5 a581               	lda window_start_row + 1
   103  35c7 c582               	cmp window_start_row + 2
   104  35c9 f00f               	beq .end_erase
   105  35cb a582                   lda window_start_row + 2
   106  35cd 858f                   sta zp_screenrow
   107  35cf 20de24             -   jsr s_erase_line
   108  35d2 e68f                   inc zp_screenrow
   109  35d4 a58f                   lda zp_screenrow
   110  35d6 c581               	cmp window_start_row + 1
   111  35d8 d0f5                   bne -
   112                          .end_erase
   113                          !ifdef ACORN {
   114  35da a901                   lda #1
   115  35dc 8534                   sta s_cursors_inconsistent
   116                          }
   117  35de 68                     pla
   118  35df 858f                   sta zp_screenrow
   119                          .return	
   120  35e1 60                     rts
   121                          
   122                          !ifdef Z4PLUS {
   123                          z_ins_erase_line
   124                              ; erase_line value
   125                              ; clear current line (where the cursor is)
   126  35e2 a51e               	lda z_operand_value_low_arr
   127  35e4 c901               	cmp #1
   128  35e6 d0f9               	bne .return
   129  35e8 4ce224                 jmp s_erase_line_from_cursor
   130                          
   131                          !ifdef Z5PLUS {
   132                          .pt_cursor = z_temp;  !byte 0,0
   133                          .pt_width = z_temp + 2 ; !byte 0
   134                          .pt_height = z_temp + 3; !byte 0
   135                          .pt_skip = z_temp + 4; !byte 0,0
   136                          .current_col = z_temp + 6; !byte 0
   137                          
   138                          z_ins_print_table
   139                              ; print_table zscii-text width [height = 1] [skip]
   140                              ; ; defaults
   141  35eb a901                   lda #1
   142  35ed 856b                   sta .pt_height
   143  35ef a900                   lda #0
   144  35f1 856c                   sta .pt_skip
   145  35f3 856d                   sta .pt_skip + 1
   146                          	; Read args
   147  35f5 a51f                   lda z_operand_value_low_arr + 1
   148  35f7 f063               	beq .print_table_done
   149  35f9 856a                   sta .pt_width
   150  35fb a40d                   ldy z_operand_count
   151  35fd c003                   cpy #3
   152  35ff 9012                   bcc ++
   153  3601 a520                   lda z_operand_value_low_arr + 2
   154  3603 f057               	beq .print_table_done
   155  3605 856b                   sta .pt_height
   156  3607 c004               +   cpy #4
   157  3609 9008                   bcc ++
   158  360b a521                   lda z_operand_value_low_arr + 3
   159  360d 856c                   sta .pt_skip
   160  360f a519                   lda z_operand_value_high_arr + 3
   161  3611 856d                   sta .pt_skip + 1
   162  3613 a56b               ++	lda .pt_height
   163  3615 c901               	cmp #1
   164  3617 f044               	beq .print_table_oneline
   165                          ; start printing multi-line table
   166  3619 207037                 jsr printchar_flush
   167  361c 20b338                 jsr get_cursor ; x=row, y=column
   168  361f 8668                   stx .pt_cursor
   169  3621 8469                   sty .pt_cursor + 1
   170  3623 a516               	lda z_operand_value_high_arr ; Start address
   171  3625 a61e               	ldx z_operand_value_low_arr
   172  3627 206f44             --	jsr set_z_address
   173  362a a669                   ldx .pt_cursor + 1
   174  362c 866e               	stx .current_col
   175  362e a46a               	ldy .pt_width
   176  3630 20b244             -	jsr read_next_byte
   177  3633 a66e               	ldx .current_col
   178  3635 e028                   +cpx_screen_width
   179  3637 b003               	bcs +
   180  3639 201d26             	jsr streams_print_output
   181  363c e66e               +	inc .current_col
   182  363e 88                 	dey
   183  363f d0ef               	bne -
   184  3641 c66b               	dec .pt_height
   185  3643 f017               	beq .print_table_done
   186                          ; Move cursor to start of next line to print
   187  3645 e668               	inc .pt_cursor
   188  3647 a668               	ldx .pt_cursor
   189  3649 a469               	ldy .pt_cursor + 1
   190  364b 20af38             	jsr set_cursor
   191                          ; Skip the number of bytes requested
   192  364e 20a644             	jsr get_z_address
   193  3651 48                 	pha
   194  3652 8a                 	txa
   195  3653 18                 	clc
   196  3654 656c               	adc .pt_skip
   197  3656 aa                 	tax
   198  3657 68                 	pla
   199  3658 656d               	adc .pt_skip + 1
   200  365a 90cb               	bcc -- ; Always jump
   201                          .print_table_done	
   202  365c 60                 	rts
   203                          .print_table_oneline
   204  365d a516               	lda z_operand_value_high_arr ; Start address
   205  365f a61e               	ldx z_operand_value_low_arr
   206  3661 206f44             	jsr set_z_address
   207  3664 a46a               	ldy .pt_width
   208  3666 20b244             -	jsr read_next_byte
   209  3669 200727             	jsr translate_zscii_to_petscii
   210  366c b003               	bcs + ; Illegal char
   211  366e 20a337             	jsr printchar_buffered
   212  3671 88                 +	dey
   213  3672 d0f2               	bne -
   214  3674 60                 	rts
   215                          }
   216                          
   217                          z_ins_buffer_mode 
   218                          	; buffer_mode flag
   219                          	; If buffer mode goes from 0 to 1, remember the start column
   220                          	; If buffer mode goes from 1 to 0, flush the buffer 
   221                          	
   222  3675 a51e               	lda z_operand_value_low_arr
   223  3677 f002               	beq +
   224  3679 a901               	lda #1
   225  367b c508               +	cmp is_buffered_window
   226  367d f009               	beq .buffer_mode_done
   227                          ; Buffer mode changes
   228  367f 8508               	sta is_buffered_window ; set lower window to buffered or unbuffered mode
   229  3681 c900               	cmp #0
   230  3683 d004               	bne start_buffering
   231  3685 207037             	jsr printchar_flush
   232                          .buffer_mode_done
   233  3688 60                 	rts
   234                          
   235                          }
   236                          
   237                          start_buffering
   238  3689 20b338             	jsr get_cursor
   239  368c 8c8838             	sty first_buffered_column
   240  368f 848c               	sty buffer_index
   241  3691 a000               	ldy #0
   242  3693 848d               	sty last_break_char_buffer_pos
   243  3695 60                 	rts
   244                          
   245                          +make_acorn_screen_hole
   246                          z_ins_split_window
   247                              ; split_window lines
   248  3696 a61e                   ldx z_operand_value_low_arr
   249                          ;    jmp split_window ; Not needed since split_window follows
   250                          
   251                          split_window
   252                              ; split if <x> > 0, unsplit if <x> = 0
   253  3698 e000                   cpx #0
   254  369a d008                   bne .split_window
   255                              ; unsplit
   256  369c a682                   ldx window_start_row + 2
   257  369e 8681                   stx window_start_row + 1
   258                          !ifdef MODE_7_STATUS {
   259                          !ifdef Z4PLUS {
   260  36a0 207623                 jsr check_and_add_mode_7_colour_code
   261                          }
   262                          }
   263  36a3 60                     rts
   264                          .split_window
   265  36a4 e019               	+cpx_max_lines
   266  36a6 9002               	bcc +
   267  36a8 a219               	+ldx_max_lines
   268  36aa 8a                 +	txa
   269  36ab 18                 	clc
   270  36ac 6582               	adc window_start_row + 2
   271  36ae 8581               	sta window_start_row + 1
   272                          !ifdef Z3 {
   273                          	ldx #1
   274                          	jsr erase_window
   275                          }	
   276                          !ifdef MODE_7_STATUS {
   277                          !ifdef Z4PLUS {
   278  36b0 207623                 jsr check_and_add_mode_7_colour_code
   279                          }
   280                          }
   281  36b3 a574               	lda current_window
   282  36b5 f008               	beq .ensure_cursor_in_window
   283                          	; Window 1 was already selected => Reset cursor if outside window
   284  36b7 20b338             	jsr get_cursor
   285  36ba e481               	cpx window_start_row + 1
   286  36bc b02a               	bcs .reset_cursor
   287                          .do_nothing
   288  36be 60                 	rts
   289                          .ensure_cursor_in_window
   290  36bf 20b338             	jsr get_cursor
   291  36c2 e481               	cpx window_start_row + 1
   292  36c4 b0f8               	bcs .do_nothing
   293  36c6 a681               	ldx window_start_row + 1
   294  36c8 4caf38             	jmp set_cursor
   295                          
   296                          z_ins_set_window
   297                              ;  set_window window
   298  36cb a51e                   lda z_operand_value_low_arr
   299  36cd d00e               	bne select_upper_window
   300                          	; Selecting lower window
   301                          select_lower_window
   302  36cf a674               	ldx current_window
   303  36d1 f0eb               	beq .do_nothing
   304  36d3 20b738             	jsr save_cursor
   305  36d6 a900               	lda #0
   306  36d8 8574                   sta current_window
   307                              ; this is the main text screen, restore cursor position
   308  36da 4cc338                 jmp restore_cursor
   309                          select_upper_window
   310                          	; this is the status line window
   311                              ; store cursor position so it can be restored later
   312                              ; when set_window 0 is called
   313  36dd a674               	ldx current_window
   314  36df d007               	bne .reset_cursor ; Upper window was already selected
   315  36e1 20b738                 jsr save_cursor
   316  36e4 a201               	ldx #1
   317  36e6 8674               	stx current_window
   318                          .reset_cursor
   319                          !ifdef Z3 { ; Since Z3 has a separate statusline 
   320                          	ldx #1
   321                          } else {
   322  36e8 a200               	ldx #0
   323                          }
   324  36ea a000               	ldy #0
   325  36ec 4caf38             	jmp set_cursor
   326                          
   327                          !ifdef Z4PLUS {
   328                          z_ins_set_text_style
   329  36ef a51e                   lda z_operand_value_low_arr
   330  36f1 d003                   bne .t0
   331                              ; roman
   332                          !ifndef ACORN {
   333                              lda #146 ; reverse off
   334                              jmp s_printchar
   335                          } else {
   336                              ; A is zero
   337  36f3 8587                   sta s_reverse
   338  36f5 60                     rts
   339                          }
   340  36f6 c901               .t0 cmp #1
   341  36f8 d0c4                   bne .do_nothing
   342                          !ifndef ACORN {
   343                              lda #18 ; reverse on
   344                              jmp s_printchar
   345                          } else {
   346  36fa a980                   lda #$80
   347  36fc 8587                   sta s_reverse
   348  36fe 60                     rts
   349                          }
   350                          
   351                          
   352                          +make_acorn_screen_hole
   353                          z_ins_get_cursor
   354                              ; get_cursor array
   355  36ff a61e                   ldx z_operand_value_low_arr
   356  3701 8643                   stx string_array
   357  3703 a516                   lda z_operand_value_high_arr
   358  3705 18                     clc
   359  3706 694e                   adc #>story_start
   360  3708 8544                   sta string_array + 1
   361  370a a900                   lda #0
   362  370c a000                   ldy #0
   363  370e 9143                   sta (string_array),y
   364  3710 a002                   ldy #2
   365  3712 9143                   sta (string_array),y
   366  3714 a674               	ldx current_window
   367  3716 f012               	beq + ; We are in lower window, jump to read last cursor pos in upper window
   368  3718 20b338                 jsr get_cursor ; x=row, y=column	
   369  371b e8                 -	inx ; In Z-machine, cursor has position 1+
   370  371c c8                 	iny ; In Z-machine, cursor has position 1+
   371  371d 98                     tya
   372  371e 48                     pha
   373  371f a001                   ldy #1
   374  3721 8a                     txa ; row
   375  3722 9143                   sta (string_array),y
   376  3724 68                     pla ; column
   377  3725 a003                   ldy #3
   378  3727 9143                   sta (string_array),y
   379                          .do_nothing_2
   380  3729 60                     rts
   381  372a a67b               +	ldx cursor_row + 1
   382  372c a47d               	ldy cursor_column + 1
   383  372e 4c1b37             	jmp -	
   384                          
   385                          
   386                          z_ins_set_cursor
   387                              ; set_cursor line column
   388  3731 a474                   ldy current_window
   389  3733 f0f4                   beq .do_nothing_2
   390  3735 a61e                   ldx z_operand_value_low_arr ; line 1..
   391  3737 ca                     dex ; line 0..
   392  3738 a41f                   ldy z_operand_value_low_arr + 1 ; column
   393  373a 88                     dey
   394  373b 4caf38                 jmp set_cursor
   395                          }
   396                          
   397                          clear_num_rows
   398  373e a900                   lda #0
   399  3740 8d0704                 sta num_rows
   400  3743 60                     rts
   401                          
   402                          +make_acorn_screen_hole
   403                          increase_num_rows
   404  3744 a574               	lda current_window
   405  3746 d027               	bne .increase_num_rows_done ; Upper window is never buffered
   406  3748 ee0704             	inc num_rows
   407  374b a508               	lda is_buffered_window
   408  374d f020               	beq .increase_num_rows_done
   409  374f a580               	lda window_start_row
   410  3751 38                 	sec
   411  3752 e581               	sbc window_start_row + 1
   412  3754 e901               	sbc #1
   413  3756 cd0704             	cmp num_rows
   414  3759 b014               	bcs .increase_num_rows_done
   415                          show_more_prompt
   416                          	; time to show [More]
   417  375b 203e37             	jsr clear_num_rows
   418                          !ifndef ACORN {
   419                          	lda $07e7 
   420                          	sta .more_text_char
   421                          	lda #128 + $2a ; screen code for reversed "*"
   422                          	sta $07e7
   423                          	; wait for ENTER
   424                          .printchar_pressanykey
   425                          !ifndef BENCHMARK {
   426                          --	ldx s_colour
   427                          	iny
   428                          	tya
   429                          	and #1
   430                          	beq +
   431                          	ldx $d021
   432                          +	stx $d800 + 999	
   433                          	ldx #40
   434                          ---	lda $a2
   435                          -	cmp $a2
   436                          	beq -
   437                          	jsr getchar_and_maybe_toggle_darkmode
   438                          	cmp #0
   439                          	bne +
   440                          	dex
   441                          	bne ---
   442                              beq -- ; Always branch
   443                          +
   444                          }
   445                          	lda .more_text_char
   446                          	sta $07e7
   447                          } else {
   448                          !ifndef BENCHMARK {
   449                              ; We mimic the OS paged mode behaviour here: we flicker the keyboard LEDs
   450                              ; and wait until SHIFT is pressed. It would be difficult (impossible using
   451                              ; portable OS routines?) to display a "more" prompt in the bottom right
   452                              ; character without causing a scroll. We could maybe define a text window
   453                              ; covering that single character and repeatedly print (say) "X" and " " over
   454                              ; and over again but that might look a bit ugly, although I haven't tried
   455                              ; it.
   456                              ; SF: ENHANCEMENT: Just possibly we could enable OS paged mode, define a
   457                              ; single cell text window at the bottom right, print a single-character
   458                              ; "more" prompt and let the OS block until SHIFT is pressed. I haven't tried
   459                              ; this and it strikes me as a corner-ish case that may behave differently on
   460                              ; different OS versions so would need to test carefully. To be honest it
   461                              ; feels more Acorn-y to not display a "more" prompt character anyway, but
   462                              ; maybe users will disagree and by noting possibilities to implement this I
   463                              ; can try to convince myself I'm not adopting a sour grapes attitude. :-)
   464                              ; SF: ENHANCEMENT: I'm not sure it's a good idea, but I *could* turn the
   465                              ; cursor on and fiddle with the CRTC registers to give it a flashing block
   466                              ; appearance at the bottom right position as a kind of "more" prompt.
   467                              ; SFTODO: Should we also allow RETURN to scroll? And/or SPACE? And/or any
   468                              ; key?
   469                              ; SFTODO: Would it save code if we actually used OS page mode (without trying
   470                              ; the tricks described above to generate a single character "more" prompt)
   471                              ; instead of emulating it ourselves? *Probably* not given how short this code
   472                              ; is, but maybe worth thinking about it.
   473  375e a976               -   lda #osbyte_reflect_keyboard_status
   474  3760 20f4ff                 jsr osbyte
   475  3763 a981                   lda #osbyte_read_key
   476  3765 a2ff                   ldx #$ff
   477  3767 a0ff                   ldy #$ff
   478  3769 20f4ff                 jsr osbyte
   479  376c 98                     tya
   480  376d f0ef                   beq -
   481                          }
   482                          }
   483                          .increase_num_rows_done
   484  376f 60                     rts
   485                          
   486                          !ifndef ACORN {
   487                          .more_text_char !byte 0
   488                          }
   489                          
   490                          printchar_flush
   491                              ; flush the printchar buffer
   492  3770 a674               	ldx current_window
   493  3772 8673               	stx z_temp + 11
   494  3774 20cf36             	jsr select_lower_window
   495  3777 a587                   lda s_reverse
   496  3779 48                     pha
   497  377a ae8838                 ldx first_buffered_column
   498  377d e48c               -   cpx buffer_index
   499  377f b00e                   bcs +
   500  3781 bd5101                 lda print_buffer2,x
   501  3784 8587                   sta s_reverse
   502  3786 bd0001                 lda print_buffer,x
   503  3789 20e823                 jsr s_printchar
   504  378c e8                     inx
   505  378d d0ee                   bne -
   506  378f 68                 +	pla
   507  3790 8587                       sta s_reverse
   508  3792 208936                     jsr start_buffering
   509  3795 a673               	ldx z_temp + 11
   510  3797 f0d6               	beq .increase_num_rows_done
   511  3799 20b738             	jsr save_cursor
   512  379c a901               	lda #1
   513  379e 8574               	sta current_window
   514                          	; We have re-selected the upper window, restore cursor position
   515  37a0 4cc338             	jmp restore_cursor
   516                          
   517                          +make_acorn_screen_hole
   518                          printchar_buffered
   519                              ; a is PETSCII character to print
   520  37a3 8d8538                 sta .buffer_char
   521                              ; need to save x,y
   522  37a6 8a                     txa
   523  37a7 48                     pha
   524  37a8 98                     tya
   525  37a9 48                     pha
   526                              ; is this a buffered window?
   527  37aa a574                   lda current_window
   528  37ac d004               	bne .is_not_buffered
   529  37ae a508                   lda is_buffered_window
   530  37b0 d009                   bne .buffered_window
   531                          .is_not_buffered
   532  37b2 ad8538                 lda .buffer_char
   533  37b5 20e823                 jsr s_printchar
   534  37b8 4c8038                 jmp .printchar_done
   535                              ; update the buffer
   536                          .buffered_window
   537  37bb ad8538                 lda .buffer_char
   538                              ; add this char to the buffer
   539  37be c90d                   cmp #$0d
   540  37c0 d011                   bne .check_break_char
   541  37c2 207037             	jsr printchar_flush
   542                              ; more on the same line
   543  37c5 204437                 jsr increase_num_rows
   544  37c8 a90d                   lda #$0d
   545  37ca 20e823                 jsr s_printchar
   546  37cd 208936             	jsr start_buffering
   547  37d0 4c8038                 jmp .printchar_done
   548                          .check_break_char
   549  37d3 a48c                   ldy buffer_index
   550  37d5 c028                   +cpy_screen_width
   551  37d7 b00a               	bcs .add_char ; Don't register break chars on last position of buffer.
   552  37d9 c920                   cmp #$20 ; Space
   553  37db f004                   beq .break_char
   554  37dd c92d               	cmp #$2d ; -
   555  37df d002               	bne .add_char
   556                          .break_char
   557                              ; update index to last break character
   558  37e1 848d                   sty last_break_char_buffer_pos
   559                          .add_char
   560  37e3 a48c                   ldy buffer_index
   561  37e5 990001                 sta print_buffer,y
   562  37e8 a587                   lda s_reverse
   563  37ea 995101                 sta print_buffer2,y
   564  37ed c8                 	iny
   565  37ee 848c                   sty buffer_index
   566  37f0 c029                   +cpy_screen_width_plus_1
   567  37f2 f003                   beq +
   568  37f4 4c8038                 jmp .printchar_done
   569                          +
   570                              ; print the line until last space
   571                          	; First calculate max# of characters on line
   572                          !ifndef ACORN {
   573                          	ldx #40
   574                          } else {
   575  37f7 a228                   +ldx_screen_width
   576                          }
   577  37f9 a580               	lda window_start_row
   578  37fb 38                 	sec
   579  37fc e581               	sbc window_start_row + 1
   580  37fe e902               	sbc #2
   581  3800 cd0704             	cmp num_rows
   582  3803 b001               	bcs +
   583                              ; SF: Note that we only allow 39 characters on the last line of the screen;
   584                              ; this may be useful information if I ever want to implement a "more" prompt
   585                              ; character. However, I note the C64 "more" code saves and restores the
   586                              ; contents of the bottom right character and I suspect a game could output
   587                              ; text in other ways which would use the rightmost column on the bottom
   588                              ; line.
   589  3805 ca                 	dex ; Max 39 chars on last line on screen.
   590  3806 868b               +	stx max_chars_on_line
   591                          	; Check if we have a "perfect space" - a space after 40 characters
   592  3808 bd0001             	lda print_buffer,x
   593  380b c920               	cmp #$20
   594  380d f013               	beq .print_40_2 ; Print all in buffer, regardless of which column buffering started in
   595                          	; Now find the character to break on
   596  380f a48d               	ldy last_break_char_buffer_pos
   597  3811 f00a               	beq .print_40 ; If there are no break characters on the line, print all 40 characters
   598                          	; Check if the break character is a space
   599  3813 b90001             	lda print_buffer,y
   600  3816 c920               	cmp #$20
   601  3818 f00c               	beq .print_buffer
   602  381a c8                 	iny
   603  381b d007               	bne .store_break_pos ; Always branch
   604                          .print_40
   605                          	; If we can't find a place to break, and buffered output started in column > 0, print a line break and move the text in the buffer to the next line.
   606  381d ae8838             	ldx first_buffered_column
   607  3820 d023               	bne .move_remaining_chars_to_buffer_start
   608                          .print_40_2	
   609  3822 a48b               	ldy max_chars_on_line
   610                          .store_break_pos
   611  3824 848d               	sty last_break_char_buffer_pos
   612                          .print_buffer
   613  3826 ae8838             	ldx first_buffered_column
   614  3829 a587                   lda s_reverse
   615  382b 48                     pha
   616  382c e48d               -   cpx last_break_char_buffer_pos
   617  382e f012                   beq +
   618  3830 8a                     txa ; kernal_printchar destroys x,y
   619  3831 48                     pha
   620  3832 bd5101                 lda print_buffer2,x
   621  3835 8587                   sta s_reverse
   622  3837 bd0001                 lda print_buffer,x
   623  383a 20e823                 jsr s_printchar
   624  383d 68                     pla
   625  383e aa                     tax
   626  383f e8                     inx
   627  3840 d0ea                   bne - ; Always branch
   628  3842 68                 +   pla
   629  3843 8587                   sta s_reverse
   630                          
   631                          .move_remaining_chars_to_buffer_start
   632                              ; Skip initial spaces, move the rest of the line back to the beginning and update indices
   633  3845 a000               	ldy #0
   634  3847 e48c               	cpx buffer_index
   635  3849 f01c               	beq .after_copy_loop
   636  384b bd0001                 lda print_buffer,x
   637  384e c920               	cmp #$20
   638  3850 d001               	bne .copy_loop
   639  3852 e8                 	inx
   640                          .copy_loop
   641  3853 e48c               	cpx buffer_index
   642  3855 f010                   beq .after_copy_loop
   643  3857 bd0001                 lda print_buffer,x
   644  385a 990001                 sta print_buffer,y
   645  385d bd5101                 lda print_buffer2,x
   646  3860 995101                 sta print_buffer2,y
   647  3863 c8                     iny
   648  3864 e8                     inx
   649  3865 d0ec                   bne .copy_loop ; Always branch
   650                          .after_copy_loop
   651                              +make_acorn_screen_hole_jmp
   652  3867 848c               	sty buffer_index
   653  3869 a900               	lda #0
   654  386b 8d8838             	sta first_buffered_column
   655                              ; more on the same line
   656  386e 204437                 jsr increase_num_rows
   657  3871 a58d               	lda last_break_char_buffer_pos
   658  3873 c928                   +cmp_screen_width
   659  3875 b005               	bcs +
   660  3877 a90d                   lda #$0d
   661  3879 20e823                 jsr s_printchar
   662  387c a000               +   ldy #0
   663  387e 848d                   sty last_break_char_buffer_pos
   664                          .printchar_done
   665  3880 68                     pla
   666  3881 a8                     tay
   667  3882 68                     pla
   668  3883 aa                     tax
   669  3884 60                     rts
   670  3885 00                 .buffer_char       !byte 0
   671                          ; print_buffer            !fill 41, 0
   672  3886 00                 .save_x			   !byte 0
   673  3887 00                 .save_y			   !byte 0
   674  3888 00                 first_buffered_column !byte 0
   675                          
   676                          !ifndef ACORN {
   677                          clear_screen_raw
   678                          	lda #147
   679                          	jsr s_printchar
   680                          	rts
   681                          }
   682                          
   683                          printchar_raw
   684  3889 08                 	php
   685  388a 8e8638             	stx .save_x
   686  388d 8c8738             	sty .save_y
   687  3890 20e823             	jsr s_printchar
   688  3893 ac8738             	ldy .save_y
   689  3896 ae8638             	ldx .save_x
   690  3899 28                 	plp
   691  389a 60                 	rts
   692                          
   693                          printstring_raw
   694                          ; Parameters: Address in a,x to 0-terminated string
   695  389b 8ea438             	stx .read_byte + 1
   696  389e 8da538             	sta .read_byte + 2
   697  38a1 a200               	ldx #0
   698                          .read_byte
   699  38a3 bd0080             	lda $8000,x
   700  38a6 f006               	beq +
   701  38a8 208938             	jsr printchar_raw
   702  38ab e8                 	inx
   703  38ac d0f5               	bne .read_byte
   704  38ae 60                 +	rts
   705                          	
   706                          set_cursor
   707                              ; input: y=column (0-39)
   708                              ;        x=row (0-24)
   709  38af 18                     clc
   710  38b0 4c5123                 jmp s_plot
   711                          
   712                          get_cursor
   713                              ; output: y=column (0-39)
   714                              ;         x=row (0-24)
   715  38b3 38                     sec
   716  38b4 4c5123                 jmp s_plot
   717                          
   718                          save_cursor
   719  38b7 20b338                 jsr get_cursor
   720  38ba 98                 	tya
   721  38bb a474               	ldy current_window
   722  38bd 967a                   stx cursor_row,y
   723  38bf 997c00                 sta cursor_column,y
   724  38c2 60                     rts
   725                          
   726                          restore_cursor
   727  38c3 a474               	ldy current_window
   728  38c5 b67a                   ldx cursor_row,y
   729  38c7 b97c00                 lda cursor_column,y
   730  38ca a8                 	tay
   731  38cb 4caf38                 jmp set_cursor
   732                          
   733                          !ifdef Z3 {
   734                          
   735                          +make_acorn_screen_hole
   736                          z_ins_show_status
   737                              ; show_status (hardcoded size)
   738                          ;    jmp draw_status_line
   739                          
   740                          draw_status_line
   741                          	lda current_window
   742                          	pha
   743                              jsr save_cursor
   744                          	lda #2
   745                          	sta current_window
   746                              ldx #0
   747                              ldy #0
   748                              jsr set_cursor
   749                          !ifndef ACORN {
   750                              lda #18 ; reverse on
   751                              jsr s_printchar
   752                          	ldx darkmode
   753                          	ldy statuslinecol,x 
   754                          	lda zcolours,y
   755                          	jsr s_set_text_colour
   756                          } else {
   757                              lda #$80
   758                              sta s_reverse
   759                          !ifdef MODE_7_STATUS {
   760                              lda screen_mode
   761                              cmp #7
   762                              bne +
   763                              ; SF: This used to output the colour code via s_printchar, but a recent
   764                              ; change (to stop Beyond Zork - probably any other game using function keys
   765                              ; as terminating characters as well - printing the function key codes)
   766                              ; stopped that working. I can't help thinking the right fix would be to not
   767                              ; send these valid-for-input-only codes to s_printchar at the end of
   768                              ; .char_is_ok when they occur as terminating characters and then allow
   769                              ; s_printchar to print these colour codes, but I may be missing something
   770                              ; and I don't want to risk causing subtle breakage. As a not-too-bad
   771                              ; workaround, output using oswrch instead.
   772                              lda #vdu_home
   773                              sta s_cursors_inconsistent
   774                              jsr oswrch
   775                              clc
   776                              lda fg_colour
   777                              adc #mode_7_text_colour_base
   778                              jsr oswrch
   779                              inc zp_screencolumn
   780                          +
   781                          }
   782                          }
   783                              ;
   784                              ; Room name
   785                              ; 
   786                              ; name of the object whose number is in the first global variable
   787                              lda #16
   788                              jsr z_get_low_global_variable_value
   789                              jsr print_obj
   790                              ;
   791                              ; fill the rest of the line with spaces
   792                              ;
   793                          -   lda zp_screencolumn
   794                              +cmp_screen_width
   795                          	bcs +
   796                              lda #$20
   797                              jsr s_printchar
   798                              jmp -
   799                              ;
   800                              ; score or time game?
   801                              ;
   802                          +   lda story_start + header_flags_1
   803                              and #$02
   804                              bne .timegame
   805                              ; score game
   806                          	lda z_operand_value_low_arr
   807                          	pha
   808                          	lda z_operand_value_high_arr
   809                          	pha
   810                          	lda z_operand_value_low_arr + 1
   811                          	pha
   812                          	lda z_operand_value_high_arr + 1
   813                          	pha
   814                              ldx #0
   815                          !ifndef ACORN {
   816                              ldy #25
   817                          } else {
   818                              sec
   819                              +lda_screen_width
   820                              sbc #(40-25)
   821                              tay
   822                          }
   823                              jsr set_cursor
   824                              ldy #0
   825                          -   lda .score_str,y
   826                              beq +
   827                              jsr s_printchar
   828                              iny
   829                              bne -
   830                          +   lda #17
   831                              jsr z_get_low_global_variable_value
   832                              stx z_operand_value_low_arr
   833                              sta z_operand_value_high_arr
   834                              jsr z_ins_print_num
   835                              lda #47
   836                              jsr s_printchar
   837                              lda #18
   838                              jsr z_get_low_global_variable_value
   839                              stx z_operand_value_low_arr
   840                              sta z_operand_value_high_arr
   841                              jsr z_ins_print_num
   842                          	pla
   843                          	sta z_operand_value_high_arr + 1
   844                          	pla
   845                          	sta z_operand_value_low_arr + 1
   846                          	pla
   847                          	sta z_operand_value_high_arr
   848                          	pla
   849                          	sta z_operand_value_low_arr
   850                              jmp .statusline_done
   851                          .timegame
   852                              ; time game
   853                              ldx #0
   854                          !ifndef ACORN {
   855                              ldy #25
   856                          } else {
   857                              sec
   858                              +lda_screen_width
   859                              sbc #(40-25)
   860                              tay
   861                          }
   862                              jsr set_cursor
   863                          	lda #>.time_str
   864                          	ldx #<.time_str
   865                          	jsr printstring_raw
   866                          ; Print hours
   867                          	lda #65 + 32
   868                          	sta .ampm_str + 1
   869                          	lda #17 ; hour
   870                              jsr z_get_low_global_variable_value
   871                          ; Change AM to PM if hour >= 12
   872                          	cpx #12
   873                          	bcc +
   874                          	lda #80 + 32
   875                          	sta .ampm_str + 1
   876                          +	cpx #0
   877                          	bne +
   878                          	ldx #12
   879                          ; Subtract 12 from hours if hours >= 13, so 15 becomes 3 etc
   880                          +	cpx #13
   881                          	bcc +
   882                          	txa
   883                          	sbc #12
   884                          	tax
   885                          +	ldy #$20 ; " " before if < 10
   886                          	jsr .print_clock_number
   887                              lda #58 ; :
   888                              jsr s_printchar
   889                          ; Print minutes
   890                              lda #18 ; minute
   891                              jsr z_get_low_global_variable_value
   892                          	ldy #$30 ; "0" before if < 10
   893                          	jsr .print_clock_number
   894                          ; Print AM/PM
   895                          	lda #>.ampm_str
   896                          	ldx #<.ampm_str
   897                          	jsr printstring_raw
   898                          .statusline_done
   899                          !ifndef ACORN {
   900                          	ldx darkmode
   901                          	ldy fgcol,x 
   902                          	lda zcolours,y
   903                          	jsr s_set_text_colour
   904                              lda #146 ; reverse off
   905                              jsr s_printchar
   906                          } else {
   907                              lda #0
   908                              sta s_reverse
   909                          }
   910                          	pla
   911                          	sta current_window
   912                              jmp restore_cursor
   913                          .print_clock_number
   914                          	sty z_temp + 11
   915                          	txa
   916                          	ldy #0
   917                          -	cmp #10
   918                          	bcc .print_tens
   919                          	sbc #10 ; C is already set
   920                          	iny
   921                          	bne - ; Always branch
   922                          .print_tens
   923                          	tax
   924                          	tya
   925                          	bne +
   926                          	lda z_temp + 11
   927                          	bne ++
   928                          +	ora #$30
   929                          ++	jsr s_printchar
   930                          	txa
   931                          	ora #$30
   932                          	jmp s_printchar
   933                          
   934                          +make_acorn_screen_hole
   935                          !ifndef ACORN {
   936                          .score_str !pet "Score: ",0
   937                          .time_str !pet "Time: ",0
   938                          .ampm_str !pet " AM",0
   939                          } else {
   940                          .score_str !text "Score: ",0
   941                          .time_str !text "Time: ",0
   942                          .ampm_str !text " AM",0
   943                          }
   944                          }
   945                          
   946                          !ifdef ACORN {
   947                              ; We keep the hardware cursor off most of the time; this way the user can't
   948                              ; see it flitting round the screen doing various updates. (The C64 doesn't
   949                              ; have this issue, as it uses direct screen writes and in fact its cursor
   950                              ; is a software creation.) We allow it to remain in "illogical" positions
   951                              ; while it's invisible and only position it where it belongs when it's turned
   952                              ; on, as it is during user input.
   953                          init_cursor_control
   954  38ce a9ff                   lda #$ff
   955  38d0 8d0f04                 sta cursor_status
   956  38d3 d026                   bne .cursor_control ; Always branch
   957                          
   958                              ; turn_off_cursor and turn_on_cursor adjust the value in cursor_status
   959                              ; rather than setting a flag so they can be nested safely; the cursor should
   960                              ; be turned on iff cursor_status is non-negative. Because we wait for VSYNC
   961                              ; when telling the OS to turn the cursor on or off to try to avoid visual
   962                              ; artefacts from doing so, we want to avoid this unless cursor_status has
   963                              ; just transitioned from negative to non-negative or vice versa.
   964                          turn_on_cursor
   965  38d5 ee0f04                 inc cursor_status
   966  38d8 f01e                   beq .really_turn_on_cursor
   967                          .cursor_control_rts
   968  38da 60                     rts
   969                          turn_off_cursor
   970  38db ad0f04                 lda cursor_status
   971  38de ce0f04                 dec cursor_status
   972  38e1 aa                     tax
   973  38e2 d0f6                   bne .cursor_control_rts
   974                              ; We're turning the OS cursor off.
   975  38e4 a975                   lda #osbyte_read_vdu_status
   976  38e6 20f4ff                 jsr osbyte
   977  38e9 8a                     txa
   978  38ea 2940                   and #vdu_status_cursor_editing
   979  38ec f00d                   beq .cursor_control
   980                              ; We're in cursor editing mode, so we need to output a carriage return to
   981                              ; turn it off. This will turn the cursor back on, so we must output it
   982                              ; before we turn the cursor off. (We could turn the cursor off before
   983                              ; outputting the carriage return as well, in order to try to minimise the
   984                              ; chances of the user seeing it flick briefly into the leftmost column, but
   985                              ; in practice this doesn't seem to help much.)
   986  38ee a90d                   lda #vdu_cr
   987  38f0 8534                   sta s_cursors_inconsistent
   988  38f2 20eeff                 jsr oswrch
   989  38f5 4cfb38                 jmp .cursor_control
   990                          .really_turn_on_cursor
   991                              ; Just before we turn the OS cursor on, it's forced into the location
   992                              ; corresponding to zp_screen{column,row}, which is where it "should" have
   993                              ; been all along.
   994  38f8 208b23                 jsr s_cursor_to_screenrowcolumn
   995                          .cursor_control
   996  38fb a917                   lda #vdu_miscellaneous
   997  38fd 20eeff                 jsr oswrch
   998  3900 a901                   lda #1
   999  3902 20eeff                 jsr oswrch
  1000  3905 18                     clc
  1001  3906 6d0f04                 adc cursor_status ; we know A=1 and cursor_status=-1 for off or 0 for on
  1002  3909 20eeff                 jsr oswrch
  1003  390c a206                   ldx #6
  1004  390e a900                   lda #0
  1005  3910 20eeff             -   jsr oswrch
  1006  3913 ca                     dex
  1007  3914 d0fa                   bne -
  1008                              ; The VDU 23 command now lacks one byte to be complete, so let's wait for
  1009                              ; VSYNC now at the last possible minute before outputting that last byte
  1010                              ; and actioning the VDU 23 command.
  1011                              ; SFTODO: This VSYNC hits the benchmark quite hard but will be imperceptible
  1012                              ; normally, it might be worth conditionally omitting the next two lines in
  1013                              ; a benchmark build.
  1014  3916 a913                   lda #osbyte_wait_for_vsync
  1015  3918 20f4ff                 jsr osbyte
  1016  391b a900                   lda #0
  1017  391d 4ceeff                 jmp oswrch
  1018                          }

; ******** Source: ozmoo.asm
   234                          

; ******** Source: memory.asm
     1                          ; Routines to handle memory
     2                          
     3                          ; !ifndef VMEM {
     4                          ; !zone {
     5                          ; read_byte_at_z_address
     6                          	; ; Subroutine: Read the contents of a byte address in the Z-machine
     7                          	; ; a,x,y (high, mid, low) contains address.
     8                          	; ; Returns: value in a
     9                          	; sty mempointer
    10                          	; txa
    11                          	; clc
    12                          	; adc #>story_start
    13                          	; sta mempointer + 1
    14                          	; ldy #0
    15                          	; lda (mempointer),y
    16                          	; rts
    17                          ; .too_high
    18                              ; lda #ERROR_MEMORY_OVER_64KB
    19                          	; jsr fatalerror
    20                          
    21                          ; }
    22                          ; }
    23                          
    24                          !ifdef ACORN_SWR_BIG_DYNMEM {
    25                          inc_z_pc_page_acorn_unsafe
    26                              jsr inc_z_pc_page
    27                              +acorn_page_in_bank_using_y z_pc_mempointer_ram_bank
    28                              rts
    29                          }
    30                          
    31                          ; SF: On Acorn non-VMEM (and, I believe, C64 non-ALLMEM) this just needs to do
    32                          ; the two inc statements and rts, no need for anything else. Conditionally
    33                          ; assembling this is a real faff so we just accept the small inefficiency.
    34                          inc_z_pc_page
    35                          !zone {
    36  3920 48                 	pha
    37  3921 e633               	inc z_pc_mempointer + 1
    38  3923 e631               	inc z_pc + 1
    39                          !ifdef VMEM {
    40  3925 d002               	bne +
    41  3927 e630               	inc z_pc
    42  3929 a531               +	lda z_pc + 1
    43  392b 2901               	and #255-vmem_blockmask
    44  392d f023               	beq get_page_at_z_pc_did_pha
    45  392f a533               	lda z_pc_mempointer + 1
    46                          !ifndef ACORN {
    47                          	cmp #>story_start
    48                          	bcc get_page_at_z_pc_did_pha
    49                          }
    50                          } else {
    51                          ; No vmem
    52                          !ifndef ACORN {
    53                          	lda z_pc + 1
    54                          	cmp #(first_banked_memory_page - (>story_start))
    55                          	bcs get_page_at_z_pc_did_pha
    56                          }
    57                          }
    58                          ; safe
    59  3931 68                 	pla
    60                          inc_z_pc_page_rts
    61  3932 60                 	rts
    62                          
    63                          }
    64                          
    65                          
    66                          set_z_pc
    67                          ; Sets new value of z_pc, and makes sure z_pc_mempointer points to the right memory
    68                          ; Parameters: New value of z_pc in a,x,y
    69                          !zone {
    70  3933 8432               	sty z_pc + 2
    71                          !ifdef VMEM {
    72  3935 c530               	cmp z_pc
    73  3937 d014               	bne .unsafe_1
    74                          }
    75  3939 e431               	cpx z_pc + 1
    76  393b f00f               	beq .same_page 
    77                          	; Different page.
    78                          !ifdef VMEM {	
    79                          	; Let's find out if it's the same vmem block.
    80  393d 8a                 	txa
    81  393e 4531               	eor z_pc + 1
    82  3940 29fe               	and #vmem_blockmask
    83  3942 d00b               	bne .unsafe_2
    84                          !ifndef ACORN {
    85                          	; z_pc is in same vmem_block unless it's in vmem_cache
    86                          	lda z_pc_mempointer + 1
    87                          	cmp #>story_start
    88                          	bcc .unsafe_2
    89                          }
    90                          	; z_pc is in same vmem_block, but different page.
    91  3944 8631               	stx z_pc + 1
    92                          !ifdef SMALLBLOCK {
    93  3946 a533               	lda z_pc_mempointer + 1
    94  3948 4901               	eor #1
    95  394a 8533               	sta z_pc_mempointer + 1
    96                          } else {
    97                          	txa
    98                          	and #255-vmem_blockmask
    99                          	sta mem_temp
   100                          	lda z_pc_mempointer + 1
   101                          	and #vmem_blockmask
   102                          	clc
   103                          	adc mem_temp
   104                          	sta z_pc_mempointer + 1
   105                          }
   106                          } else {
   107                          ; No vmem 
   108                          !ifndef ACORN {
   109                          	cpx #(first_banked_memory_page - (>story_start))
   110                          	bcs .unsafe_2
   111                          }
   112                          	stx z_pc + 1
   113                          	txa
   114                          	clc
   115                          	adc #>story_start
   116                          	sta z_pc_mempointer + 1
   117                          }
   118                          .same_page
   119  394c 60                 	rts
   120                          .unsafe_1
   121  394d 8530               	sta z_pc
   122                          .unsafe_2
   123  394f 8631               	stx z_pc + 1
   124                          	; jsr get_page_at_z_pc
   125                          	; rts
   126                          }
   127                          
   128                          ; Must follow set_z_pc
   129                          get_page_at_z_pc
   130                          !zone {
   131  3951 48                 	pha
   132                          get_page_at_z_pc_did_pha
   133  3952 8605               	stx mem_temp
   134                          !ifdef ALLRAM {
   135  3954 a530               	lda z_pc
   136                          }
   137  3956 a631               	ldx z_pc + 1
   138  3958 a432               	ldy z_pc + 2
   139  395a 20f540             	jsr read_byte_at_z_address
   140                          !ifdef ACORN_SWR {
   141                          !ifdef ACORN_SWR_SMALL_DYNMEM {
   142                              ; read_byte_at_z_address_for_z_pc will have left the then-current value of
   143                              ; z_pc_mempointer_ram_bank paged in, so we need to explicitly page in the
   144                              ; newly set z_pc_mempointer_ram_bank. This is mildly inefficient, but it
   145                              ; only happens when the Z-machine PC crosses a page boundary and the
   146                              ; contortions required to avoid it are not worth it.
   147  395d ac1c0484f48c30fe       +acorn_page_in_bank_using_y mempointer_ram_bank ; leaves bank in Y
   148                          } else {
   149                              ldy mempointer_ram_bank
   150                          }
   151  3965 8c1f04                 sty z_pc_mempointer_ram_bank
   152                          } else {
   153                          !ifdef ACORN_TURBO_SUPPORTED {
   154                          	; This isn't necessary on a normal second processor, but it's harmless and
   155                          	; it's only one cycle slower to just do it instead of checking the second
   156                          	; processor type before doing it.
   157                          	ldy mempointer_turbo_bank
   158                          	sty z_pc_mempointer_turbo_bank
   159                          }
   160                          }
   161  3968 a404               	ldy mempointer + 1
   162  396a 8433               	sty z_pc_mempointer + 1
   163                              ; SFTODO: I am struggling to see why it matters that Y is 0 on exit
   164  396c a0c9               	ldy #201 ; SFTODO TO SEE IF IT IS NECESSARY ldy #0 ; Important: y should always be 0 when exiting this routine! SF: I have analysed the code and I don't think this is true (maybe it was at one point) - SFTODO: HMM, I'M A BIT LESS SURE NOW - FWIW THIS IS *NOT* A HOT INSTRUCTION AT LEAST IN THE BENCHMARK - SEE ALSO THE LATEST ANALYSIS IN sf-notes.txt
   165  396e a605               	ldx mem_temp
   166  3970 68                 	pla
   167  3971 60                 	rts
   168                          }
   169                          
   170                          !zone {
   171                          ; !ifdef VMEM {
   172                          ; .reu_copy
   173                          	; ; a = source C64 page
   174                          	; ; y = destination C64 page
   175                          	; stx mem_temp
   176                          	; sty mem_temp + 1
   177                          	; ; Copy to REU
   178                          	; tay
   179                          	; lda #0
   180                          	; tax
   181                          	; jsr store_reu_transfer_params
   182                          	; lda #%10000000;  c64 -> REU with delayed execution
   183                          	; sta reu_command
   184                              ; sei
   185                              ; +set_memory_all_ram_unsafe
   186                          	; lda $ff00
   187                          	; sta $ff00
   188                          	; +set_memory_no_basic_unsafe
   189                          	; cli
   190                          	; ; Copy to C64
   191                          	; txa ; X is already 0, set a to 0 too
   192                          	; ldy mem_temp + 1
   193                          	; jsr store_reu_transfer_params
   194                          	; lda #%10000001;  REU -> c64 with delayed execution
   195                          	; sta reu_command
   196                          	; sei
   197                              ; +set_memory_all_ram_unsafe
   198                          	; lda $ff00
   199                          	; sta $ff00
   200                          	; +set_memory_no_basic_unsafe
   201                          	; cli
   202                          	; ldx mem_temp
   203                          	; ldy #0
   204                          	; rts
   205                          ; }	
   206                          
   207                          !ifndef ACORN {
   208                          copy_page
   209                          ; a = source
   210                          ; y = destination
   211                          
   212                          ; !ifdef VMEM {
   213                          	; bit use_reu
   214                          	; bmi .reu_copy
   215                          ; }
   216                          	sta .copy + 2
   217                          	sty .copy + 5
   218                              sei
   219                              +set_memory_all_ram_unsafe
   220                          -   ldy #0
   221                          .copy
   222                              lda $8000,y
   223                              sta $8000,y
   224                              iny
   225                              bne .copy
   226                              +set_memory_no_basic_unsafe
   227                              cli
   228                          	rts
   229                          }
   230                          }

; ******** Source: ozmoo.asm
   235                          

; ******** Source: stack.asm
     1                          ; Anatomy of a stack frame:
     2                          ; 
     3                          ; Number of pushed bytes (2*n)
     4                          ; Pushed word n-1
     5                          ; ...
     6                          ; Pushed word 0
     7                          ; ZZZZZZZZ ZZZZZZZZ
     8                          ; SPPPLLLL 0000EZZZ
     9                          ; Local variable k-1
    10                          ; ...
    11                          ; Local variable 0
    12                          ; 
    13                          ; S = Does return address point to a a variable where return value should be stored?
    14                          ; PPP = Number of parameters with which this routine was called
    15                          ; LLLL = Number of local variables in this routine
    16                          ; E = Execution mode (1 = interrupt, 0 = normal)
    17                          ; ZZZ ZZZZZZZZ ZZZZZZZZ = Z_PC to go to when returning from this routine 
    18                          ;
    19                          ; Stack pointer actually points to Pushed word 0.
    20                          
    21                          !zone {
    22                          
    23                          ; stack_tmp !byte 0, 0, 0, 0, 0
    24                          ; stack_pushed_bytes !byte 0, 0
    25                          !ifdef VIEW_STACK_RECORDS {
    26                          .stack_pushed_bytes_record 	!byte 0,0
    27                          .stack_size_record		!byte 0,0
    28                          .stack_size				!byte 0,0
    29                          }
    30                          
    31                          
    32                          stack_init
    33  3972 a900               	lda #<(stack_start)
    34  3974 852b               	sta stack_ptr
    35  3976 a94a               	lda #>(stack_start)
    36  3978 852c               	sta stack_ptr + 1
    37  397a a900               	lda #0
    38  397c 8529               	sta stack_pushed_bytes
    39  397e 852a               	sta stack_pushed_bytes + 1
    40  3980 852f               	sta stack_has_top_value
    41  3982 60                 	rts
    42                          
    43                          	
    44                          stack_push_top_value
    45                          	; prerequisites: Caller must check that stack_has_top_value > 0
    46                          	; uses: a,y
    47                          	; Note: Does not change stack_has_top_value! Caller must do this as needed.
    48  3983 a52b               +	lda stack_ptr
    49  3985 18                 	clc
    50  3986 652a               	adc stack_pushed_bytes + 1
    51  3988 8577               	sta zp_temp + 2
    52  398a a52c               	lda stack_ptr + 1
    53  398c 6529               	adc stack_pushed_bytes
    54  398e 8578               	sta zp_temp + 3
    55  3990 a000               	ldy #0
    56  3992 a52d               	lda stack_top_value
    57  3994 9177               	sta (zp_temp + 2),y
    58  3996 c8                 	iny
    59  3997 a52e               	lda stack_top_value + 1
    60  3999 9177               	sta (zp_temp + 2),y
    61  399b e62a               	inc stack_pushed_bytes + 1	
    62  399d e62a               	inc stack_pushed_bytes + 1
    63  399f d002               	bne .top_done
    64  39a1 e629               	inc stack_pushed_bytes
    65                          .top_done
    66                          +	
    67                          !ifdef VIEW_STACK_RECORDS {
    68                          	stx zp_temp + 4
    69                          	lda .stack_pushed_bytes_record + 1
    70                          	cmp stack_pushed_bytes + 1
    71                          	lda .stack_pushed_bytes_record
    72                          	sbc stack_pushed_bytes
    73                          	bcs .not_push_record
    74                          	jsr print_following_string
    75                          !pet 13,"=== Pushed bytes record: ",0 
    76                          	lda stack_pushed_bytes
    77                          	sta .stack_pushed_bytes_record
    78                          	ldx stack_pushed_bytes + 1
    79                          	stx .stack_pushed_bytes_record + 1
    80                          	jsr printinteger
    81                          	jsr newline
    82                          .not_push_record
    83                          	lda stack_ptr
    84                          	clc
    85                          	adc stack_pushed_bytes + 1
    86                          	sta .stack_size + 1
    87                          	lda stack_ptr + 1
    88                          	adc stack_pushed_bytes
    89                          	sec
    90                          	sbc #>stack_start
    91                          	sta .stack_size
    92                          	lda .stack_size_record + 1
    93                          	cmp .stack_size + 1
    94                          	lda .stack_size_record
    95                          	sbc .stack_size
    96                          	bcs .no_size_record
    97                          	jsr print_following_string
    98                          !pet 13,"### Stack size record: ",0 
    99                          	lda .stack_size
   100                          	sta .stack_size_record
   101                          	ldx .stack_size + 1
   102                          	stx .stack_size_record + 1
   103                          	jsr printinteger
   104                          	jsr newline
   105                          .no_size_record	
   106                          	ldx zp_temp + 4
   107                          }
   108                          
   109                          !ifndef UNSAFE {
   110                          ; push_check_room
   111  39a3 a52b               	lda stack_ptr
   112  39a5 18                 	clc
   113  39a6 652a               	adc stack_pushed_bytes + 1
   114  39a8 a52c               	lda stack_ptr + 1
   115  39aa 6529               	adc stack_pushed_bytes
   116  39ac c94e               	cmp #>(stack_start + stack_size)
   117  39ae 9003               	bcc .not_full
   118  39b0 4c963a             	jmp .stack_full
   119                          .not_full
   120                          }
   121  39b3 60                 	rts
   122                          
   123                          +make_acorn_screen_hole
   124                          ; This is used by stack_call_routine	
   125                          .many_pushed_bytes
   126  39b4 a52b               	lda stack_ptr
   127  39b6 18                 	clc
   128  39b7 652a               	adc stack_pushed_bytes + 1
   129  39b9 8577               	sta zp_temp + 2
   130  39bb a52c               	lda stack_ptr + 1
   131  39bd 6529               	adc stack_pushed_bytes
   132  39bf 8578               	sta zp_temp + 3
   133  39c1 a000               	ldy #0
   134  39c3 a529               	lda stack_pushed_bytes
   135  39c5 9177               	sta (zp_temp + 2),y
   136  39c7 c8                 	iny
   137  39c8 a52a               	lda stack_pushed_bytes + 1
   138  39ca 9177               	sta (zp_temp + 2),y
   139  39cc 4cec39             	jmp .move_stack_ptr_to_last_word_of_frame
   140                          
   141                          stack_call_routine
   142                          	; a = Mode ($80 = Call read interrupt routine, 0 = Normal)
   143                          	; x = Number of arguments to be passed to routine
   144                          	; y = Does Z_PC point to a variable where return value should be stored (0/1)
   145  39cf 8675               	stx zp_temp
   146  39d1 8476               	sty zp_temp + 1
   147  39d3 855a               	sta stack_tmp + 4
   148                          
   149                          	; TASK: Wrap up current stack frame
   150  39d5 a52f               	lda stack_has_top_value
   151  39d7 f003               	beq +
   152  39d9 208339             	jsr stack_push_top_value
   153                          +
   154  39dc a529               	lda stack_pushed_bytes
   155  39de d0d4               	bne .many_pushed_bytes
   156                          	; Frame has < 256 bytes pushed
   157  39e0 a42a               	ldy stack_pushed_bytes + 1
   158  39e2 912b               	sta (stack_ptr),y
   159  39e4 98                 	tya
   160  39e5 c8                 	iny
   161  39e6 912b               	sta (stack_ptr),y
   162  39e8 c001               	cpy #1
   163  39ea f00d               	beq .current_frame_done
   164                          .move_stack_ptr_to_last_word_of_frame
   165  39ec a52b               	lda stack_ptr
   166  39ee 18                 	clc
   167  39ef 652a               	adc stack_pushed_bytes + 1
   168  39f1 852b               	sta stack_ptr
   169  39f3 a52c               	lda stack_ptr + 1
   170  39f5 6529               	adc stack_pushed_bytes
   171  39f7 852c               	sta stack_ptr + 1
   172                          
   173                          .current_frame_done
   174                          	
   175                          	; TASK: Save PC. Set new PC. Setup new stack frame.
   176  39f9 a530               	lda z_pc
   177  39fb 8556               	sta stack_tmp
   178  39fd a531               	lda z_pc + 1
   179  39ff 8557               	sta stack_tmp + 1
   180  3a01 a532               	lda z_pc + 2
   181  3a03 8558               	sta stack_tmp + 2
   182                          
   183  3a05 a900               	lda #0
   184  3a07 061e               	asl z_operand_value_low_arr
   185  3a09 2616               	rol z_operand_value_high_arr
   186  3a0b 2a                 	rol
   187                          !ifdef Z4PLUS {
   188  3a0c 061e               	asl z_operand_value_low_arr
   189  3a0e 2616               	rol z_operand_value_high_arr
   190  3a10 2a                 	rol
   191                          !ifdef Z8 {
   192                          	asl z_operand_value_low_arr
   193                          	rol z_operand_value_high_arr
   194                          	rol
   195                          }
   196                          }
   197  3a11 a616               	ldx z_operand_value_high_arr
   198  3a13 a41e               	ldy z_operand_value_low_arr
   199                          	
   200  3a15 203339             	jsr set_z_pc
   201                          	
   202  3a18 a000b132e632d003...	+read_next_byte_at_z_pc
   203  3a25 8528               	sta z_local_var_count
   204                          	
   205  3a27 a52b               	lda stack_ptr
   206  3a29 8526               	sta z_local_vars_ptr
   207  3a2b a52c               	lda stack_ptr + 1
   208  3a2d 8527               	sta z_local_vars_ptr + 1
   209                          
   210                          	; TASK: Setup local vars
   211                          	
   212  3a2f a200               	ldx #0 ; Index of first argument to be passed to routine - 1
   213  3a31 a002               	ldy #2 ; Index of first byte to store local variables
   214                          
   215                          	; Copy parameter values to local vars
   216  3a33 e475               -	cpx zp_temp ; Number of args
   217  3a35 b011               	bcs .store_default_in_remaining_local_vars
   218  3a37 e428               	cpx z_local_var_count
   219  3a39 b00d               	bcs .store_default_in_remaining_local_vars
   220  3a3b b517               	lda z_operand_value_high_arr + 1,x
   221  3a3d 912b               	sta (stack_ptr),y
   222  3a3f c8                 	iny
   223  3a40 b51f               	lda z_operand_value_low_arr + 1,x
   224  3a42 912b               	sta (stack_ptr),y
   225  3a44 c8                 	iny
   226  3a45 e8                 	inx
   227  3a46 d0eb               	bne - ; Always branch
   228                          
   229                          .store_default_in_remaining_local_vars	
   230  3a48 8679               	stx zp_temp + 4
   231                          !ifndef Z5PLUS {
   232                          	; Make z_pc skip over default values
   233                          	txa
   234                          	beq +
   235                          	sty stack_tmp + 3
   236                          	asl
   237                          	adc z_pc + 2 ; Carry is already clear
   238                          	tay
   239                          	lda z_pc + 1
   240                          	adc #0
   241                          	tax
   242                          	lda z_pc
   243                          	adc #0
   244                          	jsr set_z_pc
   245                          	ldy stack_tmp + 3
   246                          +	
   247                          }
   248                          
   249                          ; Store default values in remaining vars
   250  3a4a a528               	lda z_local_var_count
   251  3a4c 38                 	sec
   252  3a4d e579               	sbc zp_temp + 4
   253  3a4f f00a               	beq .setup_of_local_vars_complete
   254  3a51 0a                 	asl
   255  3a52 aa                 	tax ; Number of bytes to init / copy is now in x
   256                          
   257                          !ifdef Z5PLUS {
   258  3a53 a900               	lda #0
   259                          }
   260                          -
   261                          !ifndef Z5PLUS {
   262                          	sty stack_tmp + 3
   263                          	+read_next_byte_at_z_pc ; Read first byte of initial var value
   264                          	ldy stack_tmp + 3
   265                          }
   266  3a55 912b               	sta (stack_ptr),y
   267  3a57 c8                 	iny
   268  3a58 ca                 	dex
   269  3a59 d0fa               	bne -
   270                          	
   271                          .setup_of_local_vars_complete
   272                          	
   273                          	; TASK: Store old Z_PC, number of local vars, number of arguments and store-result-bit on stack
   274                          
   275                          !ifdef Z5PLUS {
   276                          	; # of arguments is only stored for Z5+
   277  3a5b a575               	lda zp_temp ; Arg count
   278  3a5d 0a                 	asl
   279  3a5e 0a                 	asl
   280  3a5f 0a                 	asl
   281  3a60 0a                 	asl
   282  3a61 0528               	ora z_local_var_count
   283                          } else {
   284                          	lda z_local_var_count
   285                          }
   286  3a63 a676               	ldx zp_temp + 1 ; Store?
   287  3a65 f002               	beq +
   288  3a67 0980               	ora #%10000000
   289  3a69 912b               +	sta (stack_ptr),y
   290  3a6b c8                 	iny
   291  3a6c a55a               	lda stack_tmp + 4 ; Add call mode
   292  3a6e 0556               	ora stack_tmp
   293  3a70 912b               	sta (stack_ptr),y
   294  3a72 c8                 	iny 
   295  3a73 a557               	lda stack_tmp + 1
   296  3a75 912b               	sta (stack_ptr),y
   297  3a77 c8                 	iny
   298  3a78 a558               	lda stack_tmp + 2
   299  3a7a 912b               	sta (stack_ptr),y
   300                          
   301                          	; TASK: Set number of pushed bytes to 0
   302  3a7c a900               	lda #0
   303  3a7e 852f               	sta stack_has_top_value
   304  3a80 8529               	sta stack_pushed_bytes
   305  3a82 852a               	sta stack_pushed_bytes + 1
   306                          	
   307                          	; TASK: Set new (higher) value of stack pointer
   308  3a84 c8                 	iny
   309  3a85 98                 	tya
   310  3a86 18                 	clc
   311  3a87 652b               	adc stack_ptr
   312  3a89 852b               	sta stack_ptr
   313  3a8b a52c               	lda stack_ptr + 1
   314  3a8d 6900               	adc #0
   315  3a8f 852c               	sta stack_ptr + 1
   316                          !ifndef UNSAFE {
   317  3a91 c94e               	cmp #>(stack_start + stack_size)
   318  3a93 b001               	bcs .stack_full
   319                          }
   320                          
   321                          !ifdef VIEW_STACK_RECORDS {
   322                          	lda stack_ptr
   323                          	sta .stack_size + 1
   324                          	lda stack_ptr + 1
   325                          	sec
   326                          	sbc #>stack_start
   327                          	sta .stack_size
   328                          	lda .stack_size_record + 1
   329                          	cmp .stack_size + 1
   330                          	lda .stack_size_record
   331                          	sbc .stack_size
   332                          	bcs .no_size_record_2
   333                          	jsr print_following_string
   334                          !pet 13,"### Stack size record: ",0 
   335                          	lda .stack_size
   336                          	sta .stack_size_record
   337                          	ldx .stack_size + 1
   338                          	stx .stack_size_record + 1
   339                          	jsr printinteger
   340                          	jsr newline
   341                          .no_size_record_2
   342                          }
   343  3a95 60                 	rts
   344                          
   345                          !ifndef UNSAFE {
   346                          .stack_full
   347  3a96 a906                   lda #ERROR_STACK_FULL
   348  3a98 4c5322             	jmp fatalerror
   349                          }
   350                          	
   351                          !ifdef Z5PLUS {	
   352                          z_ins_check_arg_count
   353                          	; Read number of arguments provided to this routine
   354  3a9b a516               	lda z_operand_value_high_arr
   355  3a9d d015               	bne .branch_false
   356  3a9f a428               	ldy z_local_var_count
   357  3aa1 c8                 	iny
   358  3aa2 98                 	tya
   359  3aa3 0a                 	asl
   360  3aa4 a8                 	tay
   361  3aa5 b126               	lda (z_local_vars_ptr),y
   362  3aa7 4a                 	lsr
   363  3aa8 4a                 	lsr
   364  3aa9 4a                 	lsr
   365  3aaa 4a                 	lsr
   366  3aab 2907               	and #7
   367  3aad c51e               	cmp z_operand_value_low_arr
   368  3aaf 9003               	bcc .branch_false
   369  3ab1 4ca330             	jmp make_branch_true
   370                          .branch_false
   371  3ab4 4c7c30             	jmp make_branch_false
   372                          
   373                          +make_acorn_screen_hole
   374                          z_ins_catch
   375                          	; Store pointer to first byte where pushed values are stored in current frame.
   376  3ab7 a62b               	ldx stack_ptr
   377  3ab9 a52c               	lda stack_ptr + 1
   378  3abb 4c2e40             	jmp z_store_result
   379                          
   380                          +make_acorn_screen_hole
   381                          z_ins_throw
   382                          	; Restore pointer given. Return from routine (frame).
   383                          	
   384                          	; First, restore old stack_ptr, and calculate where # of local vars is stored.
   385  3abe a51f               	lda z_operand_value_low_arr + 1
   386  3ac0 38                 	sec
   387  3ac1 e906               	sbc #6
   388  3ac3 8575               	sta zp_temp
   389  3ac5 a517               	lda z_operand_value_high_arr + 1
   390  3ac7 e900               	sbc #0
   391  3ac9 8576               	sta zp_temp + 1
   392                          	
   393                          	; Retrieve # of local vars, and set z_local_vars_ptr to correct value
   394  3acb a002               	ldy #2
   395  3acd b175               	lda (zp_temp),y
   396  3acf 290f               	and #$0f
   397  3ad1 8528               	sta z_local_var_count
   398  3ad3 0a                 	asl
   399  3ad4 8577               	sta zp_temp + 2 ; # of bytes used by local vars
   400  3ad6 a575               	lda zp_temp
   401  3ad8 38                 	sec
   402  3ad9 e577               	sbc zp_temp + 2 ; # of bytes used by local vars
   403  3adb 8526               	sta z_local_vars_ptr
   404  3add a576               	lda zp_temp + 1
   405  3adf e900               	sbc #0
   406  3ae1 8527               	sta z_local_vars_ptr + 1
   407                          
   408                          	; Return from the routine that contained the catch instruction
   409  3ae3 a516               	lda z_operand_value_high_arr
   410  3ae5 a61e               	ldx z_operand_value_low_arr
   411                          ;	jmp stack_return_from_routine ; Placed z_ins_throw just before stack_return_from_routine, so no jmp needed
   412                          }	
   413                          
   414                          ; NOTE: Must follow z_ins_throw
   415                          stack_return_from_routine
   416                          
   417                          	; input: return value in a,x
   418                          
   419                          	; Save input values
   420  3ae7 8575               +	sta zp_temp
   421  3ae9 8676               	stx zp_temp + 1
   422                          	
   423                          	; Read pc to return to and whether to store return value in this frame
   424  3aeb a428               	ldy z_local_var_count
   425  3aed c8                 	iny
   426  3aee 98                 	tya
   427  3aef 0a                 	asl
   428  3af0 a8                 	tay
   429  3af1 b126               	lda (z_local_vars_ptr),y
   430  3af3 8556               	sta stack_tmp ; storebit, argcount, varcount
   431                          	
   432                          	; Copy PC from stack to z_pc
   433  3af5 c8                 	iny
   434  3af6 b126               	lda (z_local_vars_ptr),y
   435  3af8 aa                 	tax
   436  3af9 2907               	and #$07
   437  3afb 48                 	pha ; Top byte of z_pc
   438                          !ifdef Z4PLUS {
   439  3afc 8a                 	txa
   440  3afd 29f8               	and #$f8
   441  3aff 8555               	sta z_exe_mode
   442                          }
   443  3b01 c8                 	iny
   444  3b02 b126               	lda (z_local_vars_ptr),y
   445  3b04 aa                 	tax
   446  3b05 c8                 	iny
   447  3b06 b126               	lda (z_local_vars_ptr),y
   448  3b08 a8                 	tay
   449  3b09 68                 	pla
   450  3b0a 203339             	jsr set_z_pc
   451                          	
   452                          	; TASK: Set stack_pushed_bytes to new value
   453  3b0d a000               	ldy #0
   454  3b0f 842f               	sty stack_has_top_value
   455  3b11 b126               	lda (z_local_vars_ptr),y
   456  3b13 8529               	sta stack_pushed_bytes
   457  3b15 c8                 	iny
   458  3b16 b126               	lda (z_local_vars_ptr),y
   459  3b18 852a               	sta stack_pushed_bytes + 1
   460                          	
   461                          	; TASK: Find new locals pointer value
   462                          	; Skip past all items pushed onto stack in this frame
   463                          	
   464                          	; First, set stack_ptr correctly
   465  3b1a a526               	lda z_local_vars_ptr
   466  3b1c 38                 	sec
   467                          ;	ldy #1 ; Not needed, has right value already
   468  3b1d f126               	sbc (z_local_vars_ptr),y
   469  3b1f 852b               	sta stack_ptr
   470  3b21 a527               	lda z_local_vars_ptr + 1
   471  3b23 88                 	dey
   472  3b24 f126               	sbc (z_local_vars_ptr),y
   473  3b26 852c               	sta stack_ptr + 1
   474                          
   475                          	; txa
   476                          	; sbc #0 ; Carry should always be set after last operation
   477                          	; sta stack_ptr
   478                          	; tya
   479                          	; sbc #0
   480                          	; sta stack_ptr + 1
   481                          	
   482                          	; Find # of locals
   483  3b28 a52b               	lda stack_ptr
   484  3b2a e904               	sbc #4 ; Carry should always be set after last operation
   485  3b2c 8577               	sta zp_temp + 2
   486  3b2e a52c               	lda stack_ptr + 1
   487  3b30 e900               	sbc #0
   488  3b32 8578               	sta zp_temp + 3
   489  3b34 a000               	ldy #0
   490  3b36 b177               	lda (zp_temp + 2),y
   491                          	
   492  3b38 4c00405858585858...    +make_acorn_screen_hole_jmp
   493                          	; Skip past locals on stack
   494  4000 290f               	and #$0f
   495  4002 8528               	sta z_local_var_count
   496  4004 18                 	clc
   497  4005 6901               	adc #1
   498  4007 0a                 	asl
   499  4008 8558               	sta stack_tmp + 2
   500  400a a577               	lda zp_temp + 2
   501  400c 38                 	sec
   502  400d e558               	sbc stack_tmp + 2
   503  400f 8526               	sta z_local_vars_ptr
   504  4011 a578               	lda zp_temp + 3
   505  4013 e900               	sbc #0
   506  4015 8527               	sta z_local_vars_ptr + 1
   507                          
   508                          !ifdef Z4PLUS {	
   509                          	; Set interrupt return value, if this was a return from an interrupt
   510  4017 a555               	lda z_exe_mode
   511  4019 f00a               	beq +
   512  401b a575               	lda zp_temp
   513  401d 8d892b             	sta z_interrupt_return_value
   514  4020 a576               	lda zp_temp + 1
   515  4022 8d8a2b             	sta z_interrupt_return_value + 1
   516                          +
   517                          }
   518                          
   519                          	; Store return value if calling instruction asked for it
   520  4025 2456               	bit stack_tmp
   521  4027 3001               	bmi +
   522  4029 60                 	rts
   523                          +	
   524                          ;	+read_next_byte_at_z_pc
   525                          ;	tay
   526  402a a575               	lda zp_temp
   527  402c a676               	ldx zp_temp + 1
   528                          ;	jmp z_set_variable	; Code is followed by z_store_result which will set the variable
   529                          
   530                          !zone {
   531                          z_store_result
   532                          	; input: a,x hold result
   533                          	; affected: a,x,y
   534  402e 48                 	pha
   535  402f a000b132e632d003...	+read_next_byte_at_z_pc
   536  403c a8                 	tay
   537  403d 68                 	pla
   538  403e 4c4b2e             	jmp z_set_variable
   539                          }
   540                          
   541                          
   542                          
   543                          stack_push
   544                          	; Push a,x onto stack
   545  4041 a42f               	ldy stack_has_top_value
   546  4043 d007               	bne +
   547  4045 852d               	sta stack_top_value
   548  4047 862e               	stx stack_top_value + 1
   549  4049 e62f               	inc stack_has_top_value
   550  404b 60                 	rts
   551  404c 8575               +	sta zp_temp
   552  404e 208339             	jsr stack_push_top_value
   553  4051 a575               	lda zp_temp
   554  4053 852d               	sta stack_top_value
   555  4055 862e               	stx stack_top_value + 1
   556  4057 60                 	rts
   557                          	
   558                          stack_get_ref_to_top_value
   559  4058 a42f               	ldy stack_has_top_value
   560  405a f005               	beq +
   561  405c a900               	lda #>stack_top_value
   562  405e a22d               	ldx #<stack_top_value
   563  4060 60                 	rts
   564                          +
   565                          !ifdef DEBUG {	
   566                          	ldx stack_pushed_bytes + 1
   567                          	beq .stack_underflow
   568                          }
   569  4061 18                 	clc
   570  4062 a52a               	lda stack_pushed_bytes + 1
   571  4064 652b               	adc stack_ptr
   572  4066 aa                 	tax
   573  4067 a529               	lda stack_pushed_bytes
   574  4069 652c               	adc stack_ptr + 1
   575  406b a8                 	tay
   576  406c 8a                 	txa
   577  406d 38                 	sec
   578  406e e902               	sbc #2
   579  4070 aa                 	tax
   580  4071 98                 	tya
   581  4072 e900               	sbc #0
   582  4074 60                 	rts
   583                          
   584                          !ifdef DEBUG {	
   585                          .stack_underflow
   586                              lda #ERROR_STACK_EMPTY
   587                          	jmp fatalerror
   588                          }
   589                          
   590                          stack_pull
   591                          	; Pull top value from stack, return in a,x
   592  4075 a42f               	ldy stack_has_top_value
   593  4077 f007               	beq stack_pull_no_top_value
   594  4079 a52d               	lda stack_top_value
   595  407b a62e               	ldx stack_top_value + 1
   596  407d c62f               	dec stack_has_top_value
   597  407f 60                 	rts
   598                          stack_pull_no_top_value
   599  4080 a52a               	lda stack_pushed_bytes + 1
   600  4082 f021               	beq .stack_empty_return_0
   601                          	; Decrease # of bytes on stack
   602  4084 38                 	sec
   603  4085 e902               	sbc #2
   604  4087 852a               	sta stack_pushed_bytes + 1
   605  4089 aa                 	tax
   606  408a a529               	lda stack_pushed_bytes
   607  408c e900               	sbc #0
   608  408e 8529               	sta stack_pushed_bytes
   609  4090 a8                 	tay
   610                          	; Calculate address of top value
   611  4091 8a                 	txa
   612  4092 18                 	clc
   613  4093 652b               	adc stack_ptr
   614  4095 8575               	sta zp_temp
   615  4097 98                 	tya
   616  4098 652c               	adc stack_ptr + 1
   617  409a 8576               	sta zp_temp + 1
   618                          	; Load value and return
   619  409c a001               	ldy #1
   620  409e b175               	lda (zp_temp),y
   621  40a0 aa                 	tax
   622  40a1 88                 	dey
   623  40a2 b175               	lda (zp_temp),y
   624  40a4 60                 	rts
   625                          
   626                          .stack_empty_return_0
   627                          !ifdef DEBUG {
   628                          	jsr print_following_string
   629                          !ifndef ACORN {
   630                          	!pet "WARNING: pull from empty stack",13,0
   631                          } else {
   632                          	!text "WARNING: pull from empty stack",13,0
   633                          }
   634                          }
   635  40a5 a900               	lda #0
   636  40a7 aa                 	tax
   637  40a8 60                 	rts
   638                          
   639                          	
   640                          z_ins_push
   641  40a9 a516               	lda z_operand_value_high_arr
   642  40ab a61e               	ldx z_operand_value_low_arr
   643  40ad 4c4140             	jmp stack_push
   644                          
   645                          z_ins_pull
   646  40b0 207540             	jsr stack_pull
   647  40b3 48                 	pha
   648  40b4 8a                 	txa
   649  40b5 48                 	pha
   650  40b6 a61e               	ldx z_operand_value_low_arr
   651  40b8 20032e             	jsr z_get_variable_reference
   652  40bb 8675               	stx zp_temp
   653  40bd 8576               	sta zp_temp + 1
   654  40bf a001               	ldy #1
   655  40c1 68                 	pla
   656  40c2 9175               	sta (zp_temp),y
   657  40c4 68                 	pla
   658  40c5 88                 	dey
   659  40c6 9175               	sta (zp_temp),y
   660  40c8 60                 	rts
   661                          
   662                          	
   663                          }
   664                          

; ******** Source: ozmoo.asm
   236                          
   237                          ;##!ifdef VMEM {

; ******** Source: vmem.asm
     1                          
     2                          !ifndef ACORN {
     3                          !ifdef ALLRAM {
     4                          vmem_cache_cnt !byte 0         ; current execution cache
     5                          vmem_cache_index !fill cache_pages + 1, 0
     6                          }
     7                          }
     8                          
     9                          !ifndef VMEM {
    10                          ; Non-virtual memory
    11                          
    12                          !ifndef ALLRAM {
    13                          read_byte_at_z_address
    14                          read_byte_at_z_address_for_z_pc
    15                              ; Subroutine: Read the contents of a byte address in the Z-machine
    16                              ; x,y (high, low) contains address.
    17                              ; Returns: value in a
    18                              sty mempointer ; low byte unchanged
    19                              ; same page as before?
    20                              cpx zp_pc_l
    21                              bne .read_new_byte
    22                              ; same 256 byte segment, just return
    23                          -	ldy #0
    24                          	lda (mempointer),y
    25                          	rts
    26                          .read_new_byte
    27                          	txa
    28                              sta zp_pc_l
    29                          	clc
    30                          	adc #>story_start
    31                          	sta mempointer + 1
    32                          	jmp - ; Always branch
    33                          } else {
    34                          ; No vmem, but ALLRAM 
    35                          !ifdef ACORN {
    36                              !error "ALLRAM only supported/needed with VMEM on Acorn"
    37                          }
    38                          
    39                          read_byte_at_z_address
    40                          read_byte_at_z_address_for_z_pc
    41                              ; Subroutine: Read the contents of a byte address in the Z-machine
    42                              ; a,x,y (high, mid, low) contains address.
    43                              ; Returns: value in a
    44                              sty mempointer ; low byte unchanged
    45                              ; same page as before?
    46                              cpx zp_pc_l
    47                              bne .read_new_byte
    48                              ; same 256 byte segment, just return
    49                          .return_result
    50                          	ldy #0
    51                          	lda (mempointer),y
    52                          	rts
    53                          .read_new_byte
    54                          	txa
    55                              sta zp_pc_l
    56                          	clc
    57                          	adc #>story_start
    58                          	sta mempointer + 1
    59                          	cmp #first_banked_memory_page
    60                          	bcc .return_result ; Always branch
    61                          ; swapped memory
    62                          	; ; Carry is already clear
    63                          	; adc #>story_start
    64                          	; sta vmap_c64_offset
    65                          	; cmp #first_banked_memory_page
    66                              ; bcc .unswappable
    67                              ; this is swappable memory
    68                              ; update vmem_cache if needed
    69                          	; Check if this page is in cache
    70                              ldx #vmem_cache_count - 1
    71                          -   cmp vmem_cache_index,x
    72                              beq .cache_updated
    73                              dex
    74                              bpl -
    75                          	; The requested page was not found in the cache
    76                              ; copy vmem to vmem_cache (banking as needed)
    77                          	ldx vmem_cache_cnt
    78                          	; Protect page held in z_pc_mempointer + 1
    79                          	pha
    80                          	txa
    81                          	clc
    82                          	adc #>vmem_cache_start
    83                          	cmp z_pc_mempointer + 1
    84                          	bne +
    85                          	inx
    86                          	cpx #vmem_cache_count
    87                          	bcc ++
    88                          	ldx #0
    89                          ++	stx vmem_cache_cnt
    90                          
    91                          +	pla
    92                          	sta vmem_cache_index,x
    93                          	pha
    94                              lda #>vmem_cache_start ; start of cache
    95                              clc
    96                              adc vmem_cache_cnt
    97                          	tay
    98                          	pla
    99                          	jsr copy_page
   100                              ; set next cache to use when needed
   101                          	inx
   102                          	txa
   103                          	dex
   104                          	cmp #vmem_cache_count
   105                          	bcc ++
   106                          	lda #0
   107                          ++	sta vmem_cache_cnt
   108                          .cache_updated
   109                              ; x is now vmem_cache (0-4) where we want to read
   110                              txa
   111                              clc
   112                              adc #>vmem_cache_start
   113                              sta mempointer + 1
   114                          	jmp .return_result 
   115                          } ; End of block for ALLRAM=1
   116                          	
   117                          } else {
   118                          ; virtual memory
   119                          
   120                          ; virtual memory address space
   121                          ; Z1-Z3: 128 kB (0 - $1ffff)
   122                          ; Z4-Z5: 256 kB (0 - $3ffff)
   123                          ; Z6-Z8: 512 kB (0 - $7ffff)
   124                          ;
   125                          ; map structure: one entry for each block (512 bytes) of available virtual memory
   126                          ; each map entry is:
   127                          ; 1 byte: ZMachine offset high byte (1-3 lowest bits used for ZMachine offset, the rest used to store ticks since block was last used)
   128                          ; 1 byte: ZMachine offset low byte
   129                          ;
   130                          ; needs 102*2=204 bytes for $3400-$FFFF
   131                          ; will store in datasette_buffer
   132                          ;
   133                          
   134                          !ifdef SMALLBLOCK {
   135                          	vmem_blocksize = 512
   136                          } else {
   137                          	vmem_blocksize = 1024 ; This hasn't been used in a long time, and probably doesn't work anymore.
   138                          !ifdef ACORN {
   139                              ; Given the above comment I've not made any attempt to make this work on
   140                              ; Acorn.
   141                              !error "VMEM only supports SMALLBLOCK on Acorn"
   142                          }
   143                          }
   144                          
   145                          
   146                          vmem_blockmask = 255 - (>(vmem_blocksize - 1))
   147                          vmem_block_pagecount = vmem_blocksize / 256
   148                          ; vmap_max_length  = (vmem_end-vmem_start) / vmem_blocksize
   149                          ; vmap_max_size determines the memory allocated for the vmap; vmap_max_entries
   150                          ; is the actual run-time limit, which may be less than vmap_max_size but
   151                          ; obviously can't be larger.
   152                          ; SFTODO: For a Z3 game 255 is actually likely (not guaranteed) to be slightly
   153                          ; too large. Not necessarily a problem, but think about it - will there be a
   154                          ; problem? Are we wasting (a few bytes only) of RAM for no good reason?
   155                          !ifndef ACORN {
   156                          vmap_max_size = 102
   157                          } else {
   158                          !ifndef ACORN_SWR {
   159                          !ifndef ACORN_TUBE_CACHE {
   160                          !ifdef ACORN_TURBO_SUPPORTED {
   161                          ; A turbo second processor has enough RAM to hold 255 512-byte blocks.
   162                          vmap_max_size = 255
   163                          ACORN_LARGE_RUNTIME_VMAP = 1
   164                          } else {
   165                          ; If a game had no dynamic memory we'd have room for about 100 512-byte VM
   166                          ; blocks on the second processor. Let's say every game will have at least 6K of
   167                          ; dynamic memory, so we've got room for about 88 512-byte VM blocks.
   168                          vmap_max_size = 88
   169                          }
   170                          } else {
   171                          ; The host cache is initialised using "extra" entries in the vmap.
   172                          vmap_max_size = 255
   173                          !ifdef ACORN_TURBO_SUPPORTED {
   174                          ; A turbo second processor has enough RAM to hold 255 512-byte blocks.
   175                          ACORN_LARGE_RUNTIME_VMAP = 1
   176                          } else {
   177                          ; We *don't* set ACORN_LARGE_RUNTIME_VMAP; after the initial preload of the host
   178                          ; cache, vmap_max_entries will be approximately 88 because the vmap is only
   179                          ; concerned with the second processor's own 64K.
   180                          }
   181                          }
   182                          } else {
   183                          ; We might have enough main+sideways RAM to hold 255 512-byte blocks.
   184                          vmap_max_size = 255
   185                          ACORN_LARGE_RUNTIME_VMAP = 1
   186                          }
   187                          }
   188                          ; vmap_max_entries	!byte 0 ; Moved to ZP
   189                          ; vmap_used_entries	!byte 0 ; Moved to ZP
   190                          !ifndef ACORN {
   191                          vmap_blocks_preloaded !byte 0
   192                          }
   193                          vmap_z_h = datasette_buffer_start
   194                          vmap_z_l = vmap_z_h + vmap_max_size
   195                          
   196                          ;SFTODODATA 1
   197  40c9 00                 vmap_clock_index !byte 0        ; index where we will attempt to load a block next time
   198                          
   199                          !ifndef ACORN {
   200                          vmap_first_ram_page		!byte 0
   201                          vmap_c64_offset !byte 0
   202                          } else {
   203                          !ifndef ACORN_SWR {
   204                          vmap_first_ram_page		!byte ACORN_INITIAL_NONSTORED_BLOCKS + >story_start
   205                          vmap_c64_offset !byte 0
   206                          }
   207                          }
   208  40ca 00                 vmap_index !byte 0              ; current vmap index matching the z pointer
   209  40cb 00                 vmem_offset_in_block !byte 0         ; 256 byte offset in 512 byte block (0-1)
   210                          ; vmem_temp !byte 0
   211                          
   212  40cc e0                 vmem_tick 			!byte $e0
   213  40cd 00                 vmem_oldest_age		!byte 0
   214  40ce 00                 vmem_oldest_index	!byte 0
   215                          
   216                          !ifdef Z8 {
   217                          	vmem_tick_increment = 8
   218                          	vmem_highbyte_mask = $07
   219                          } else {
   220                          !ifdef Z3 {
   221                          	vmem_tick_increment = 2
   222                          	vmem_highbyte_mask = $01
   223                          } else {
   224                          	vmem_tick_increment = 4
   225                          	vmem_highbyte_mask = $03
   226                          }
   227                          }
   228                          
   229                          !ifdef COUNT_SWAPS {
   230                          vmem_swap_count !byte 0,0
   231                          }
   232                          
   233                          !ifdef ACORN_TURBO_SUPPORTED {
   234                          !macro acorn_adc_vmap_first_ram_page_or_set_mempointer_turbo_bank_from_c {
   235                              ; If we're running on a normal second processor, carry will be clear and we
   236                              ; need to do "adc vmap_first_ram_page". Note that we can't treat this as a
   237                              ; no-op on a turbo second processor simply by setting vmap_first_ram_page to
   238                              ; 0, because on a turbo second processor carry may be set.
   239                              ;
   240                              ; If we're running on a turbo second processor, set mempointer_turbo_bank to
   241                              ; select virtual memory cache bank C, i.e. bank 1+C (bank 0 is used for code
   242                              ; and dynamic memory). This must preserve A, X and Y.
   243                              bit is_turbo
   244                              bpl .is_normal_second_processor
   245                              stz mempointer_turbo_bank
   246                              rol mempointer_turbo_bank
   247                              inc mempointer_turbo_bank
   248                              bra .done
   249                          .is_normal_second_processor
   250                          	; Carry is already clear
   251                          	adc vmap_first_ram_page
   252                          .done
   253                          }
   254                          }
   255                          
   256                          +make_acorn_screen_hole
   257                          !ifdef DEBUG {
   258                          !ifdef PREOPT {
   259                          print_optimized_vm_map
   260                          	stx zp_temp ; Nonzero means premature exit
   261                          !ifdef ACORN {
   262                          .handle = zp_temp + 1
   263                              lda #0
   264                              sta .handle
   265                              ldx #2
   266                              ldy #error_print_s_printchar
   267                              jsr setjmp
   268                              beq .print_optimized_vm_map_no_error
   269                              ldy .handle
   270                              beq .not_open
   271                              lda #osfind_close ; 0
   272                              sta .handle
   273                              jsr osfind
   274                          .not_open
   275                              jsr error_print_following_string
   276                              !text 13, "Press SPACE to retry...", 0
   277                              jsr wait_for_space
   278                          .print_optimized_vm_map_no_error
   279                              lda #osfind_open_output
   280                              ldx #<.preopt_filename
   281                              ldy #>.preopt_filename
   282                              jsr osfind
   283                              sta .handle
   284                          }
   285                          	jsr printchar_flush
   286                          	lda #0
   287                          	sta streams_output_selected + 2
   288                          	sta is_buffered_window
   289                          	jsr newline
   290                          	jsr dollar
   291                          	jsr dollar
   292                          	jsr dollar
   293                          	jsr print_following_string
   294                          	!pet "clock",13,0
   295                          	ldx #0
   296                          -	lda vmap_z_h,x
   297                          !ifdef ACORN {
   298                              ldy .handle
   299                              jsr osbput
   300                          }
   301                          	jsr print_byte_as_hex
   302                          	lda vmap_z_l,x
   303                          !ifdef ACORN {
   304                              ldy .handle
   305                              jsr osbput
   306                          }
   307                          	jsr print_byte_as_hex
   308                          	jsr colon
   309                          	inx
   310                          	cpx vmap_used_entries
   311                          	bcc -
   312                          
   313                          	lda zp_temp
   314                          	bne +++
   315                          	; Print block that was just to be read
   316                          	lda zp_pc_h
   317                          !ifdef ACORN {
   318                              ldy .handle
   319                              jsr osbput
   320                          }
   321                          	jsr print_byte_as_hex
   322                          	lda zp_pc_l
   323                          	and #vmem_blockmask
   324                          !ifdef ACORN {
   325                              ldy .handle
   326                              jsr osbput
   327                          }
   328                          	jsr print_byte_as_hex
   329                          	jsr colon
   330                          	
   331                          +++	jsr newline
   332                          	jsr dollar
   333                          	jsr dollar
   334                          	jsr dollar
   335                          	jsr newline
   336                          !ifndef ACORN {
   337                              jsr kernal_readchar   ; read keyboard
   338                              jmp kernal_reset      ; reset
   339                          } else {
   340                              lda #osfind_close
   341                              ldy .handle
   342                              jsr osfind
   343                          	jsr print_following_string
   344                              !text "Saved PREOPT - press BREAK", 0
   345                          -   jmp -
   346                          
   347                          .preopt_filename
   348                              !text "PREOPT", 13
   349                          }
   350                          }
   351                          
   352                          !ifdef TRACE_VM {
   353                          print_vm_map
   354                          !zone {
   355                          !ifndef ACORN {
   356                              ; print caches
   357                              jsr space
   358                              lda #66
   359                              jsr streams_print_output
   360                              jsr space
   361                              lda vmem_cache_cnt
   362                              jsr printa
   363                              jsr space
   364                              jsr dollar
   365                              lda vmem_cache_index
   366                              jsr print_byte_as_hex
   367                              jsr space
   368                              jsr dollar
   369                              lda vmem_cache_index + 1
   370                              jsr print_byte_as_hex
   371                              jsr space
   372                              jsr dollar
   373                              lda vmem_cache_index + 2
   374                              jsr print_byte_as_hex
   375                              jsr space
   376                              jsr dollar
   377                              lda vmem_cache_index + 3
   378                              jsr print_byte_as_hex
   379                          }
   380                              jsr newline
   381                              ldy #0
   382                          -	; print
   383                          !ifdef ACORN_SWR {
   384                              cpy #100
   385                              bcs +
   386                              jsr space ; alignment when <100
   387                          }
   388                              cpy #10
   389                              bcs +
   390                              jsr space ; alignment when <10
   391                          +   jsr printy
   392                              jsr space
   393                              lda vmap_z_h,y ; zmachine mem offset ($0 - 
   394                              ; SF: I changed the masks here, I think this is correct but it is a
   395                              ; divergence from upstream.
   396                              and #($ff xor vmem_highbyte_mask)
   397                              jsr print_byte_as_hex
   398                              jsr space
   399                              jsr dollar
   400                              lda vmap_z_h,y ; zmachine mem offset ($0 - 
   401                              and #vmem_highbyte_mask
   402                              jsr printa
   403                              lda vmap_z_l,y ; zmachine mem offset ($0 - 
   404                              jsr print_byte_as_hex
   405                              lda #0 ; add 00
   406                              jsr print_byte_as_hex
   407                              ; SF: For ACORN_SWR we don't try to calculate the physical address of the
   408                              ; VM block as it's moderately involved.
   409                          !ifndef ACORN_SWR {
   410                              jsr space
   411                          	tya
   412                          	asl
   413                          !ifndef SMALLBLOCK {
   414                          	asl
   415                          }
   416                          !ifdef ACORN_TURBO_SUPPORTED {
   417                              bit is_turbo
   418                              bpl +
   419                              pha
   420                              lda #1
   421                              adc #0
   422                              jsr print_byte_as_hex
   423                              pla
   424                              bra .skip_adc_vmap_first_ram_page
   425                          +
   426                          }
   427                          	adc vmap_first_ram_page
   428                          .skip_adc_vmap_first_ram_page
   429                              jsr print_byte_as_hex
   430                              lda #$30
   431                              jsr streams_print_output
   432                              lda #$30
   433                              jsr streams_print_output
   434                          }
   435                              jsr newline
   436                          .next_entry
   437                              iny 
   438                              cpy vmap_used_entries
   439                              bcc -
   440                              rts
   441                          }
   442                          }
   443                          }
   444                          
   445                          load_blocks_from_index
   446                              ; vmap_index = index to load
   447                              ; side effects: a,y,x,status destroyed
   448                          !ifdef TRACE_FLOPPY {
   449                          	jsr dollar
   450                          	jsr dollar
   451                          	lda vmap_index
   452                          	jsr print_byte_as_hex
   453                          	jsr comma
   454                          	tax
   455                          	lda vmap_z_h,x
   456                          	jsr print_byte_as_hex
   457                          	lda vmap_z_l,x
   458                          	jsr print_byte_as_hex
   459                          }
   460                          
   461                          !ifndef ACORN_SWR {
   462                          	lda vmap_index
   463                          	tax
   464                          	asl
   465                          !ifndef SMALLBLOCK {
   466                          	asl
   467                          }
   468                          !ifndef ACORN_TURBO_SUPPORTED {
   469                          	; Carry is already clear
   470                          	adc vmap_first_ram_page
   471                          } else {
   472                              +acorn_adc_vmap_first_ram_page_or_set_mempointer_turbo_bank_from_c
   473                          }
   474                          
   475                          ; SFTODO: Maybe add some tracing for this
   476                          !ifdef ACORN_TUBE_CACHE {
   477                              ; Offer the cache on the host a chance to save the block we're about to
   478                              ; evict from our cache, and ask it if it has the block we want before we
   479                              ; go to disk for it.
   480                              sta osword_cache_data_ptr + 1
   481                          !ifdef ACORN_TURBO_SUPPORTED {
   482                              ; If we're on a normal second processor this is redundant but harmless, and
   483                              ; it's only one cycle slower to just do it rather than check if we need to
   484                              ; do it first.
   485                              lda mempointer_turbo_bank
   486                              sta osword_cache_data_ptr + 2
   487                          }
   488                              ; Other bytes at osword_cache_data_ptr always stay 0 and don't need setting.
   489                              lda vmap_z_l,x
   490                              sta osword_cache_index_requested
   491                              lda vmap_z_h,x
   492                              and #vmem_highbyte_mask
   493                              sta osword_cache_index_requested + 1
   494                              lda #osword_cache_op
   495                              ldx #<osword_cache_block
   496                              ldy #>osword_cache_block
   497                              jsr osword
   498                              lda osword_cache_result
   499                              beq load_blocks_from_index_done ; Host cache has provided the block
   500                              ; The host cache didn't have the block we want. Restore A and X and fall
   501                              ; through to the following code to get it from disk.
   502                              lda osword_cache_data_ptr + 1
   503                              ldx vmap_index
   504                          }
   505                          } else { ; ACORN_SWR
   506  40cf aeca40                 ldx vmap_index
   507  40d2 204942                 jsr convert_index_x_to_ram_bank_and_address
   508                          }
   509                          
   510                          !ifdef TRACE_FLOPPY {
   511                          	jsr comma
   512                          	jsr print_byte_as_hex
   513                          }
   514  40d5 a8                 	tay ; Store in y so we can use it later.
   515                          ;	cmp #$e0
   516                          ;	bcs +
   517                          !ifndef ACORN {
   518                              cmp #first_banked_memory_page
   519                              bcs load_blocks_from_index_using_cache
   520                          }
   521  40d6 a902               +	lda #vmem_block_pagecount ; number of blocks
   522  40d8 8d3427             	sta readblocks_numblocks
   523  40db a900                   lda #0
   524  40dd 8d3c28                 sta readblocks_mempos
   525  40e0 8c3d28             	sty readblocks_mempos + 1
   526                          !ifdef ACORN_TURBO_SUPPORTED {
   527                              ; If we're on a normal second processor this is redundant but harmless, and
   528                              ; it's only one cycle slower to just do it rather than check if we need to
   529                              ; do it first.
   530                              lda mempointer_turbo_bank
   531                              sta readblocks_mempos + 2
   532                          }
   533  40e3 bd7043             	lda vmap_z_l,x ; start block
   534  40e6 8d3527             	sta readblocks_currentblock
   535  40e9 bd7142             	lda vmap_z_h,x ; start block
   536  40ec 2903               	and #vmem_highbyte_mask
   537  40ee 8d3627             	sta readblocks_currentblock + 1
   538  40f1 203927             	jsr readblocks
   539                          load_blocks_from_index_done ; except for any tracing
   540                          !ifdef TRACE_VM {
   541                              jsr print_following_string
   542                          !ifndef ACORN {
   543                              !pet "load_blocks (normal) ",0
   544                          } else {
   545                              !text "load_blocks (normal) ",0
   546                          }
   547                              jsr print_vm_map
   548                          }
   549  40f4 60                     rts
   550                          
   551                          !ifdef ACORN_TUBE_CACHE {
   552                          osword_cache_block
   553                              !byte 12 ; send block length
   554                              !byte 12 ; receive block length
   555                          osword_cache_data_ptr
   556                              !word 0  ; data address low
   557                              !word 0  ; data address high
   558                          osword_cache_index_offered
   559                              !word 0  ; block index offered
   560                          osword_cache_index_offered_timestamp_hint
   561                              !byte 0  ; block offered timestamp hint
   562                          osword_cache_index_requested
   563                              !word 0  ; block index requested
   564                          osword_cache_result
   565                              !byte 0  ; result
   566                          }
   567                          
   568                          !ifndef ACORN {
   569                          load_blocks_from_index_using_cache
   570                              ; vmap_index = index to load
   571                              ; vmem_cache_cnt = which 256 byte cache use as transfer buffer
   572                          	; y = first c64 memory page where it should be loaded
   573                              ; side effects: a,y,x,status destroyed
   574                              ; initialise block copy function (see below)
   575                          
   576                          	; Protect buffer which z_pc points to
   577                          	lda vmem_cache_cnt
   578                          	tax
   579                          	clc
   580                          	adc #>vmem_cache_start
   581                          	cmp z_pc_mempointer + 1
   582                          	bne +
   583                          	inx
   584                          	cpx #vmem_cache_count
   585                          	bcc ++
   586                          	ldx #0
   587                          ++	stx vmem_cache_cnt
   588                          +
   589                              ldx vmap_index
   590                              lda #>vmem_cache_start ; start of cache
   591                              clc
   592                              adc vmem_cache_cnt
   593                          	sta vmem_temp
   594                          	sty vmem_temp + 1
   595                              ldx #0 ; Start with page 0 in this 1KB-block
   596                              ; read next into vmem_cache
   597                          -   lda #>vmem_cache_start ; start of cache
   598                              clc
   599                              adc vmem_cache_cnt
   600                              sta readblocks_mempos + 1
   601                              txa
   602                              pha
   603                              ldx vmap_index
   604                              ora vmap_z_l,x ; start block
   605                              sta readblocks_currentblock
   606                              lda vmap_z_h,x ; start block
   607                              and #vmem_highbyte_mask
   608                              sta readblocks_currentblock + 1
   609                              jsr readblock
   610                              ; copy vmem_cache to block (banking as needed)
   611                          	lda vmem_temp
   612                          	ldy vmem_temp + 1
   613                          	jsr copy_page
   614                          	inc vmem_temp + 1
   615                              pla
   616                              tax
   617                              inx
   618                          	cpx #vmem_block_pagecount ; read 2 or 4 blocks (512 or 1024 bytes) in total
   619                              bcc -
   620                          
   621                          	ldx vmem_temp + 1
   622                          	dex
   623                          	txa
   624                          	ldx vmem_cache_cnt
   625                              sta vmem_cache_index,x
   626                              rts
   627                          }
   628                          
   629                          +make_acorn_screen_hole
   630                          ; SF: Note that this is allowed to corrupt X and Y.
   631                          read_byte_at_z_address
   632                              ; Subroutine: Read the contents of a byte address in the Z-machine
   633                              ; a,x,y (high, mid, low) contains address.
   634                              ; Returns: value in a
   635  40f5 8403                   sty mempointer ; low byte unchanged
   636                              ; same page as before?
   637  40f7 e40b                   cpx zp_pc_l
   638  40f9 d01d                   bne .read_new_byte
   639  40fb c50a                   cmp zp_pc_h
   640  40fd d019                   bne .read_new_byte
   641                              ; same 256 byte segment, just return
   642                          !ifdef ACORN_SWR {
   643  40ff ad1c0485f48d30fe       +acorn_page_in_bank_using_a mempointer_ram_bank
   644                          }
   645  4107 a000               -   ldy #0
   646  4109 b103               	lda (mempointer),y
   647                          !ifdef ACORN_SWR {
   648  410b ac1f0484f48c30fe       +acorn_swr_page_in_default_bank_using_y
   649                          }
   650                          !if 1 { ; SFTODO: JUST TO PROVE IT'S OK
   651  4113 a22a                   ldx #42
   652  4115 a056                   ldy #86
   653                          }
   654  4117 60                 	rts
   655                          .read_new_byte
   656  4118 c900               	cmp #0
   657  411a d010               	bne .non_dynmem
   658  411c ec3327             	cpx nonstored_blocks
   659  411f b00b               	bcs .non_dynmem
   660                          	; Dynmem access
   661  4121 850a               	sta zp_pc_h
   662  4123 8a                 	txa
   663  4124 850b                   sta zp_pc_l
   664  4126 694e               	adc #>story_start
   665  4128 8504               	sta mempointer + 1
   666                          !ifdef ACORN_TURBO_SUPPORTED {
   667                              ; We need to ensure bank 0 is accessed for dynamic memory on a turbo second
   668                              ; processor. This isn't necessary on an ordinary second processor, but it's
   669                              ; harmless and it's faster to just do it rather than check if it's
   670                              ; necessary.
   671                              stz mempointer_turbo_bank
   672                              bra -
   673                          } else {
   674                          !ifndef ACORN_SWR_BIG_DYNMEM {
   675                              ; SF: On an ACORN_SWR_SMALL_DYNMEM build, all dynamic memory is in main
   676                              ; RAM so it doesn't matter what the value of mempointer_ram_bank is or which
   677                              ; bank is currently paged in.
   678  412a d0db               	bne - ; Always branch
   679                          } else {
   680                              ; We have to set mempointer_ram_bank correctly so subsequent calls to
   681                              ; read_byte_at_z_address don't page in the wrong bank. We keep the first
   682                              ; bank paged in by default, so we don't need to page it in now and therefore
   683                              ; the '-' label can be after the page in code, to save a few cycles.
   684                              lda ram_bank_list
   685                              sta mempointer_ram_bank
   686                              bpl - ; Always branch SFTODO THIS WON'T WORK IF WE START SUPPORT 12K PRIVATE RAM ON B+
   687                          }
   688                          }
   689                          .non_dynmem
   690  412c 850a               	sta zp_pc_h
   691  412e 8501               	sta vmem_temp + 1
   692  4130 a900               	lda #0
   693  4132 8560               	sta vmap_quick_index_match
   694  4134 8a                     txa
   695  4135 850b                   sta zp_pc_l
   696  4137 2901                   and #255 - vmem_blockmask ; keep index into kB chunk
   697  4139 8dcb40                 sta vmem_offset_in_block
   698  413c 8a                 	txa
   699  413d 29fe               	and #vmem_blockmask
   700                              ; SFTODO: The fact vmem_temp will always be even means it may be possible
   701                              ; to block out unusable areas of memory above vmem_start by giving them
   702                              ; vmap_z_[hl] entries with odd addresses which could never be matched. This
   703                              ; just might be helpful on an Electron port where dynamic memory starts at
   704                              ; $8000 to avoid contiguous-dynmem problems with the 8K screen at the top of
   705                              ; main RAM; we could use the ~4K of main RAM below the screen as virtual
   706                              ; memory cache by putting vmem_start down there and blocking out the screen
   707                              ; and the actual dynamic memory with unmatchable vmap_z_[h] entries. I
   708                              ; suppose it's not actually quite that good, as we'd need to prevent those
   709                              ; unmatched entries aging out, but it might not be too hard/inefficient to
   710                              ; tweak the code to leave them alone.
   711  413f 8500               	sta vmem_temp
   712                          	; Check quick index first
   713  4141 a205               	ldx #vmap_quick_index_length - 1
   714  4143 b462               -	ldy vmap_quick_index,x
   715  4145 d97043                 cmp vmap_z_l,y ; zmachine mem offset ($0 -
   716  4148 f005               	beq .quick_index_candidate
   717  414a ca                 --	dex
   718  414b 10f6               	bpl -
   719  414d 3015               	bmi .no_quick_index_match ; Always branch
   720                          .quick_index_candidate
   721  414f b97142             	lda vmap_z_h,y
   722  4152 2903               	and #vmem_highbyte_mask
   723  4154 c501               	cmp vmem_temp + 1
   724  4156 f005               	beq .quick_index_match
   725  4158 a500               	lda vmem_temp
   726  415a 4c4a41             	jmp --
   727                          .quick_index_match
   728  415d e660               	inc vmap_quick_index_match
   729  415f 98                 	tya
   730  4160 aa                 	tax
   731  4161 4c8341             	jmp .correct_vmap_index_found ; Always branch
   732                          	
   733                          .no_quick_index_match
   734                              +make_acorn_screen_hole_jmp
   735  4164 a500               	lda vmem_temp
   736                          
   737                              ; is there a block with this address in map?
   738  4166 a64f                   ldx vmap_used_entries
   739  4168 ca                 	dex
   740                          -   ; compare with low byte
   741  4169 dd7043                 cmp vmap_z_l,x ; zmachine mem offset ($0 - 
   742  416c f007                   beq +
   743                          .check_next_block
   744  416e ca                 	dex
   745                          !ifndef ACORN_LARGE_RUNTIME_VMAP {
   746                          	bpl -
   747                          	bmi .no_such_block ; Always branch
   748                          } else {
   749                              ; SFTODO: This next cpx # is a pretty heavily executed instruction; if we
   750                              ; can avoid having to do it somehow that would be a small but worthwhile
   751                              ; saving. Maybe it's essential, but I put it in because it was an "obviously"
   752                              ; correct way to do the right thing, without too much analysis.
   753  416f e0ff                   cpx #255
   754  4171 d0f6               	bne -
   755  4173 f026               	beq .no_such_block ; Always branch
   756                          }
   757                          	; is the highbyte correct?
   758  4175 bd7142             +   lda vmap_z_h,x
   759  4178 2903               	and #vmem_highbyte_mask
   760  417a c501               	cmp vmem_temp + 1
   761  417c f005               	beq .correct_vmap_index_found
   762  417e a500                   lda vmem_temp
   763  4180 4c6e41                 jmp .check_next_block
   764                          .correct_vmap_index_found
   765                              ; vm index for this block found
   766  4183 8eca40                 stx vmap_index
   767                          
   768  4186 a460               	ldy vmap_quick_index_match
   769  4188 d00e               	bne ++ ; This is already in the quick index, don't store it again
   770  418a 8a                 	txa
   771  418b a661               	ldx vmap_next_quick_index
   772  418d 9562               	sta vmap_quick_index,x
   773  418f e8                 	inx
   774  4190 e006               	cpx #vmap_quick_index_length
   775  4192 9002               	bcc +
   776  4194 a200               	ldx #0
   777  4196 8661               +	stx vmap_next_quick_index
   778  4198 4c2542             ++	jmp .index_found
   779                          
   780                          ; no index found, add last
   781                          .no_such_block
   782                          
   783                          	; Load 512 byte block into RAM
   784                          !ifndef ACORN {
   785                          	; First, check if this is initial REU loading
   786                          	ldx use_reu
   787                          	cpx #$80
   788                          	bne +
   789                          	ldx #0
   790                          	ldy vmap_z_l ; ,x is not needed here, since x is always 0
   791                          	cpy z_pc + 1
   792                          	bne .block_chosen
   793                          	inx ; Set x to 1
   794                          	bne .block_chosen ; Always branch
   795                          }
   796                          
   797                          ; SFTODO: I am not sure the bcs case can ever occur on Acorn, since we always
   798                          ; pre-populate vmap. If this is true we can probably ifdef this out for both SWR
   799                          ; and 2P builds. (But it's only one instruction, so hardly worth it?) (OK, it
   800                          ; *can* occur with PREOPT, but it still can't occur "normally" on Acorn. But it
   801                          ; is still just one byte and I should probably just get rid of this comment...)
   802                              +make_acorn_screen_hole_jmp
   803  419b aec940             +	ldx vmap_clock_index
   804  419e e44f               -	cpx vmap_used_entries
   805  41a0 b038               	bcs .block_chosen
   806                          !ifdef DEBUG {
   807                          !ifdef PREOPT {
   808                          	ldx #0
   809                          	jmp print_optimized_vm_map
   810                          }	
   811                          }
   812                                  ; Store very recent oldest_age so the first valid index in the following
   813                                  ; loop will be picked as the first candidate.
   814  41a2 a9ff                       lda #$ff
   815                          !ifdef DEBUG {
   816                                  sta vmem_oldest_index
   817                          }
   818  41a4 8dcd40             	sta vmem_oldest_age
   819  41a7 d008                       bne ++ ; Always branch
   820                          	
   821                          	; Check all other indexes to find something older
   822  41a9 bd7142             -	lda vmap_z_h,x
   823  41ac cdcd40             	cmp vmem_oldest_age
   824  41af b01a               	bcs +
   825                          ++
   826                          	; Found older
   827                          	; Skip if z_pc points here; it could be in either page of the block.
   828                          !ifndef SMALLBLOCK {
   829                          	!error "Only SMALLBLOCK supported"
   830                          }
   831  41b1 bc7043             	ldy vmap_z_l,x
   832  41b4 c431               	cpy z_pc + 1
   833  41b6 f005               	beq +++
   834  41b8 c8                         iny
   835  41b9 c431                       cpy z_pc + 1
   836  41bb d008                       bne ++
   837  41bd a8                 +++	tay
   838  41be 2903               	and #vmem_highbyte_mask
   839  41c0 c530               	cmp z_pc
   840  41c2 f007               	beq +
   841  41c4 98                 	tya
   842  41c5 8dcd40             ++	sta vmem_oldest_age
   843  41c8 8ece40             	stx vmem_oldest_index
   844  41cb e8                 +	inx
   845  41cc e44f               	cpx vmap_used_entries
   846  41ce 9002               	bcc +
   847  41d0 a200               	ldx #0
   848  41d2 ecc940             +	cpx vmap_clock_index
   849  41d5 d0d2               	bne -
   850                          
   851                          	; Load chosen index
   852  41d7 aece40             	ldx vmem_oldest_index
   853                          	
   854                          .block_chosen
   855                          !ifdef COUNT_SWAPS {
   856                          	inc vmem_swap_count + 1
   857                          	bne ++
   858                          	inc vmem_swap_count
   859                          ++
   860                          }
   861                          	
   862  41da e44f               	cpx vmap_used_entries
   863  41dc 9002               	bcc +
   864  41de e64f               	inc vmap_used_entries
   865  41e0 8a                 +	txa
   866  41e1 a8                 	tay
   867                          !ifndef ACORN_SWR {
   868                          	asl
   869                          !ifndef SMALLBLOCK {
   870                          	asl
   871                          }
   872                          !ifndef ACORN_TURBO_SUPPORTED {
   873                          	; Carry is already clear
   874                          	adc vmap_first_ram_page
   875                          } else {
   876                              +acorn_adc_vmap_first_ram_page_or_set_mempointer_turbo_bank_from_c
   877                          }
   878                          	sta vmap_c64_offset
   879                          }
   880                          	; Pick next index to use
   881  41e2 c8                 	iny
   882  41e3 cc0c04             	cpy vmap_max_entries
   883  41e6 9002               	bcc .not_max_index
   884  41e8 a000               	ldy #0
   885                          .not_max_index
   886  41ea 8cc940             	sty vmap_clock_index
   887                          
   888                          !ifdef DEBUG {
   889                                  lda vmem_oldest_index
   890                                  cmp #$ff
   891                                  bne +
   892                                  lda #ERROR_NO_VMEM_INDEX
   893                                  jsr fatalerror
   894                          +
   895                          }
   896                          
   897                          	; We have now decided on a map position where we will store the requested block. Position is held in x.
   898                          !ifdef DEBUG {
   899                          !ifdef PRINT_SWAPS {
   900                          	lda streams_output_selected + 2
   901                          	beq +
   902                          	lda #20
   903                          	jsr s_printchar
   904                          	lda #64
   905                          	jsr s_printchar
   906                          	lda #20
   907                          	jsr s_printchar
   908                          	jmp ++
   909                          +	jsr space
   910                          	jsr dollar
   911                          	txa
   912                          	jsr print_byte_as_hex
   913                          	jsr colon
   914                              ; SF: For ACORN_SWR we don't try to calculate the physical address of the
   915                              ; VM block as it's moderately involved.
   916                          !ifndef ACORN_SWR {
   917                          	jsr dollar
   918                          !ifdef ACORN_TURBO_SUPPORTED {
   919                              bit is_turbo
   920                              bpl +
   921                              lda mempointer_turbo_bank
   922                              jsr print_byte_as_hex
   923                          +
   924                          }
   925                          	lda vmap_c64_offset
   926                          	jsr print_byte_as_hex
   927                          	jsr colon
   928                          }
   929                          	cpx vmap_used_entries
   930                          	bcs .printswaps_part_2
   931                              lda vmap_z_h,x
   932                              ; SF: I altered the mask here, I think it's correct but it's a divergence
   933                              ; from upstream.
   934                          	and #vmem_highbyte_mask
   935                          	jsr dollar
   936                          	jsr print_byte_as_hex
   937                              lda vmap_z_l,x
   938                          	jsr print_byte_as_hex
   939                          .printswaps_part_2
   940                          	jsr arrow
   941                          	jsr dollar
   942                          	lda zp_pc_h
   943                          	jsr print_byte_as_hex
   944                              lda zp_pc_l
   945                          	and #vmem_blockmask
   946                          	jsr print_byte_as_hex
   947                          	jsr space
   948                          ++	
   949                          }
   950                          }
   951                          	
   952                          !ifndef ACORN {
   953                          	; Forget any cache pages belonging to the old block at this position.
   954                          	lda vmap_c64_offset
   955                          	cmp #first_banked_memory_page
   956                          	bcc .cant_be_in_cache
   957                          	ldy #vmem_cache_count - 1
   958                          -	lda vmem_cache_index,y
   959                          	and #vmem_blockmask
   960                          	cmp vmap_c64_offset
   961                          	bne +
   962                          	lda #0
   963                          	sta vmem_cache_index,y
   964                          +	dey
   965                          	bpl -
   966                          .cant_be_in_cache	
   967                          }
   968                          
   969                          	; Update tick
   970  41ed adcc40             	lda vmem_tick
   971  41f0 18                 	clc
   972  41f1 6904               	adc #vmem_tick_increment
   973  41f3 901b               	bcc +
   974                          
   975                          	; Tick counter has passed max value. Decrease tick value for all pages. Set tick counter back.
   976  41f5 8a                 	txa
   977  41f6 48                 	pha
   978                          	
   979  41f7 a64f               	ldx vmap_used_entries
   980  41f9 ca                 	dex
   981  41fa bd7142             -	lda vmap_z_h,x
   982  41fd 38                 	sec
   983  41fe e980               	sbc #$80
   984  4200 1002               	bpl ++
   985  4202 2903               	and #vmem_highbyte_mask
   986  4204 9d7142             ++	sta vmap_z_h,x
   987  4207 ca                 	dex
   988                          !ifndef ACORN_LARGE_RUNTIME_VMAP {
   989                          	bpl -
   990                          } else {
   991  4208 e0ff                   cpx #255
   992  420a d0ee                   bne -
   993                          }
   994                          	
   995  420c 68                 	pla
   996  420d aa                 	tax
   997  420e a980               	lda #$80
   998  4210 8dcc40             +	sta vmem_tick
   999                          
  1000                          !ifdef ACORN_TUBE_CACHE {
  1001                              ; Save the Z-address of the block we're about to evict before we overwrite it.
  1002                              lda vmap_z_l,x
  1003                              sta osword_cache_index_offered
  1004                              lda vmap_z_h,x
  1005                              and #vmem_highbyte_mask
  1006                              sta osword_cache_index_offered + 1
  1007                          }
  1008                          
  1009                          	; Store address of 512 byte block to load, then load it
  1010  4213 a50a               	lda zp_pc_h
  1011  4215 9d7142                 sta vmap_z_h,x
  1012  4218 a50b                   lda zp_pc_l
  1013  421a 29fe                   and #vmem_blockmask ; skip bit 0 since 512 byte blocks
  1014  421c 9d7043                 sta vmap_z_l,x
  1015  421f 8eca40                 stx vmap_index
  1016                              ; SF: Be aware that if tracing is on here, the newly loaded block will
  1017                              ; show with its pre-adjustment tick.
  1018  4222 20cf40                 jsr load_blocks_from_index
  1019                          .index_found
  1020                              ; index found
  1021                          	; Update tick for last access 
  1022  4225 aeca40                 ldx vmap_index
  1023  4228 bd7142             	lda vmap_z_h,x
  1024  422b 2903               	and #vmem_highbyte_mask
  1025  422d 0dcc40             	ora vmem_tick
  1026  4230 9d7142             	sta vmap_z_h,x
  1027                          !ifndef ACORN_SWR {
  1028                          	txa
  1029                          	
  1030                          	asl
  1031                          !ifndef SMALLBLOCK {
  1032                          	asl
  1033                          }
  1034                          !ifndef ACORN_TURBO_SUPPORTED {
  1035                          	; Carry is already clear
  1036                          	adc vmap_first_ram_page
  1037                          } else {
  1038                              +acorn_adc_vmap_first_ram_page_or_set_mempointer_turbo_bank_from_c
  1039                          }
  1040                          	sta vmap_c64_offset
  1041                          !ifndef ACORN {
  1042                          	cmp #first_banked_memory_page
  1043                              bcc .unswappable
  1044                              ; this is swappable memory
  1045                              ; update vmem_cache if needed
  1046                              clc
  1047                              adc vmem_offset_in_block
  1048                          	; Check if this page is in cache
  1049                              ldx #vmem_cache_count - 1
  1050                          -   cmp vmem_cache_index,x
  1051                              beq .cache_updated
  1052                              dex
  1053                              bpl -
  1054                          	; The requested page was not found in the cache
  1055                              ; copy vmem to vmem_cache (banking as needed)
  1056                          	sta vmem_temp
  1057                          	ldx vmem_cache_cnt
  1058                          	; Protect page held in z_pc_mempointer + 1
  1059                          	pha
  1060                          	txa
  1061                          	clc
  1062                          	adc #>vmem_cache_start
  1063                          	cmp z_pc_mempointer + 1
  1064                          	bne +
  1065                          	inx
  1066                          	cpx #vmem_cache_count
  1067                          	bcc ++
  1068                          	ldx #0
  1069                          ++	stx vmem_cache_cnt
  1070                          
  1071                          +	pla
  1072                          	sta vmem_cache_index,x
  1073                              lda #>vmem_cache_start ; start of cache
  1074                              clc
  1075                              adc vmem_cache_cnt
  1076                          	tay
  1077                          	lda vmem_temp
  1078                          	jsr copy_page
  1079                              ; set next cache to use when needed
  1080                          	inx
  1081                          	txa
  1082                          	dex
  1083                          	cmp #vmem_cache_count
  1084                          	bcc ++
  1085                          	lda #0
  1086                          ++	sta vmem_cache_cnt
  1087                          .cache_updated
  1088                              ; x is now vmem_cache (0-3) where current z_pc is
  1089                              txa
  1090                              clc
  1091                              adc #>vmem_cache_start
  1092                              sta mempointer + 1
  1093                              ldx vmap_index
  1094                              bne .return_result ; always true
  1095                          .unswappable
  1096                          }
  1097                              ; update memory pointer
  1098                              lda vmem_offset_in_block
  1099                              clc
  1100                              adc vmap_c64_offset
  1101                          } else {
  1102  4233 204942                 jsr convert_index_x_to_ram_bank_and_address
  1103  4236 18                     clc
  1104  4237 6dcb40                 adc vmem_offset_in_block
  1105                          }
  1106  423a 8504                   sta mempointer + 1
  1107                          .return_result
  1108  423c a000                   ldy #0
  1109  423e b103                   lda (mempointer),y
  1110                          !ifdef ACORN_SWR {
  1111  4240 ac1f0484f48c30fe       +acorn_swr_page_in_default_bank_using_y
  1112                          }
  1113  4248 60                     rts
  1114                          
  1115                          !ifdef ACORN_SWR {
  1116                          ; SFTODO: Not sure I will want this as a subroutine, but let's write it here
  1117                          ; like this to help me think about it. For the moment it returns page of physical
  1118                          ; memory in A and ram bank is selected and stored at mempointer_ram_bank.
  1119                          ; adjust_dynamic_memory_inline also relies on the RAM bank index being returned
  1120                          ; in Y.
  1121                          convert_index_x_to_ram_bank_and_address
  1122                              ; 0<=X<=254 is the index of the 512-byte virtual memory block we want to
  1123                              ; access. Index 0 may be in main RAM or sideways RAM, depending on the size
  1124                              ; of dynamic memory.
  1125  4249 8a                     txa
  1126  424a 38                     sec
  1127  424b ed1d04                 sbc vmem_blocks_in_main_ram
  1128  424e 901d                   bcc .in_main_ram
  1129  4250 18                     clc
  1130  4251 6d1e04                 adc vmem_blocks_stolen_in_first_bank
  1131                              ; CA is now the 9-bit block offset of the required data from the start of
  1132                              ; our first sideways RAM bank. Each 16K bank has 32 512-byte blocks, so
  1133                              ; we need to divide by 32=2^5 to get the bank index.
  1134  4254 48                     pha
  1135  4255 6a                     ror
  1136  4256 4a                     lsr
  1137  4257 4a                     lsr
  1138  4258 4a                     lsr
  1139  4259 4a                     lsr
  1140  425a a8                     tay
  1141  425b b9050985f48d30fe       +acorn_page_in_bank_using_a_comma_y ram_bank_list ; leaves bank in A
  1142  4263 8d1c04                 sta mempointer_ram_bank
  1143                              ; Now get the low 5 bits of the block offset, multiply by two to convert to
  1144                              ; 256 byte pages and that gives us the page offset within the bank.
  1145  4266 68                     pla
  1146  4267 291f                   and #31
  1147  4269 0a                     asl
  1148                              ; Carry is already clear
  1149  426a 6980                   adc #$80
  1150  426c 60                     rts
  1151                          .in_main_ram
  1152                              ; A contains a negative block offset from the top of main RAM (BBC sideways
  1153                              ; RAM version) or the bottom of screen RAM (Electron sideways RAM version).
  1154                              ; Multiply by two to get a page offset and add it to the base to get the
  1155                              ; actual start.
  1156  426d 0a                     asl
  1157                              ; Carry is set
  1158                          !ifndef ACORN_ELECTRON_SWR {
  1159  426e 697f                   adc #(>flat_ramtop)-1
  1160                          } else {
  1161                              adc screen_ram_start_minus_1
  1162                          }
  1163  4270 60                     rts
  1164                          }
  1165                          }
  1166                          
  1167                          ; SFTODO: Hack, let's just allocate a fake datasette buffer here
  1168                          ; SFTODO: For now I'm going to pre-fill this as part of the build
  1169                          ; SFTODODATA - THIS IS INITIALISED, BUT I AM HALF THINKING WE SHOULD JUST
  1170                          ; POPULATE IT IN THE DISCARDABLE INIT CODE - BUT MAYBE DON'T RUSH INTO THIS AS
  1171                          ; SWR AND 'SUGGESTED' PAGES AND PREOPT WILL AFFECT THIS DECISION
  1172                          ; SFTODO: Is there any value in page-aligning this? Although since the two halves
  1173                          ; are not exactly page-aligned we'd end up having to waste a couple of bytes so
  1174                          ; each half was page-aligned. Profile this before doing anything.
  1175                          !ifdef ACORN {
  1176                          !ifdef VMEM {
  1177                          datasette_buffer_start
  1178  4271 5656565656565656...    !FILL vmap_max_size * 2, 'V'
  1179                          datasette_buffer_end
  1180                          }
  1181                          }

; ******** Source: ozmoo.asm
   238                          
   239                          ;##}
   240                          !ifndef ACORN {
   241                          !source "zmachine.asm"
   242                          }

; ******** Source: zaddress.asm
     1                          ; z_address !byte 0,0,0
     2                          ; z_address_temp !byte 0
     3                          
     4                          set_z_address
     5  446f 8647                   stx z_address + 2
     6  4471 8546                   sta z_address + 1
     7  4473 a900                   lda #$0
     8  4475 8545                   sta z_address
     9  4477 60                     rts
    10                          
    11                          +make_acorn_screen_hole
    12                          dec_z_address
    13  4478 48                     pha
    14  4479 c647                   dec z_address + 2
    15  447b a547                   lda z_address + 2
    16  447d c9ff                   cmp #$ff
    17  447f d00a                   bne +
    18  4481 c646                   dec z_address + 1
    19  4483 a546                   lda z_address + 1
    20  4485 c9ff                   cmp #$ff
    21  4487 d002                   bne +
    22  4489 c645                   dec z_address
    23  448b 68                 +   pla
    24  448c 60                     rts
    25                          
    26                          +make_acorn_screen_hole
    27                          set_z_himem_address
    28  448d 8647                   stx z_address + 2
    29  448f 8546                   sta z_address + 1
    30  4491 8445                   sty z_address
    31  4493 60                     rts
    32                          
    33                          skip_bytes_z_address
    34                              ; skip <a> bytes
    35  4494 18                     clc
    36  4495 6547                   adc z_address + 2
    37  4497 8547                   sta z_address + 2
    38  4499 a546                   lda z_address + 1
    39  449b 6900                   adc #0
    40  449d 8546                   sta z_address + 1
    41  449f a545                   lda z_address
    42  44a1 6900                   adc #0
    43  44a3 8545                   sta z_address
    44  44a5 60                     rts
    45                          
    46                          !ifdef DEBUG {
    47                          print_z_address
    48                              jsr dollar
    49                              lda z_address + 1 ; low
    50                              jsr print_byte_as_hex
    51                              lda z_address + 2 ; high
    52                              jsr print_byte_as_hex
    53                              jmp newline
    54                          }
    55                          
    56                          get_z_address
    57                              ; input: 
    58                              ; output: a,x
    59                              ; side effects: 
    60                              ; used registers: a,x
    61  44a6 a647                   ldx z_address + 2 ; low
    62  44a8 a546                   lda z_address + 1 ; high
    63  44aa 60                     rts
    64                          
    65                          get_z_himem_address
    66  44ab a647                   ldx z_address + 2
    67  44ad a546                   lda z_address + 1
    68  44af a445                   ldy z_address
    69  44b1 60                     rts
    70                          
    71                          read_next_byte
    72                              ; input: 
    73                              ; output: a
    74                              ; side effects: z_address
    75                              ; used registers: a,x
    76  44b2 8448                   sty z_address_temp
    77  44b4 a545                   lda z_address
    78  44b6 a646                   ldx z_address + 1
    79  44b8 a447                   ldy z_address + 2
    80  44ba 20f540                 jsr read_byte_at_z_address
    81  44bd e647                   inc z_address + 2
    82  44bf d006                   bne +
    83  44c1 e646                   inc z_address + 1
    84  44c3 d002                   bne +
    85  44c5 e645                   inc z_address
    86  44c7 a448               +   ldy z_address_temp
    87  44c9 60                     rts
    88                          
    89                          set_z_paddress
    90                              ; convert a/x to paddr in z_address
    91                              ; input: a,x
    92                              ; output: 
    93                              ; side effects: z_address
    94                              ; used registers: a,x
    95                              ; example: $031b -> $00, $0c, $6c (Z5)
    96  44ca 8546                   sta z_address + 1
    97  44cc 8a                 	txa
    98  44cd 0a                 	asl
    99  44ce 8547                   sta z_address + 2
   100  44d0 2646                   rol z_address + 1
   101  44d2 a900                   lda #$0
   102  44d4 2a                     rol
   103                          !ifdef Z4PLUS {
   104  44d5 0647                   asl z_address + 2
   105  44d7 2646                   rol z_address + 1
   106  44d9 2a                     rol
   107                          }
   108                          !ifdef Z8 {
   109                              asl z_address + 2
   110                              rol z_address + 1
   111                              rol
   112                          }
   113  44da 8545               	sta z_address
   114  44dc 60                     rts
   115                          

; ******** Source: ozmoo.asm
   243                          
   244                          !ifndef ACORN {
   245                          !source "text.asm"
   246                          }

; ******** Source: dictionary.asm
     1                          !ifdef Z5PLUS {
     2  44dd 00                 dict_is_default	!byte 0
     3                          }
     4  44de 0000               dict_entries !byte 0, 0
     5  44e0 00                 dict_len_entries !byte 0
     6  44e1 0000               dict_num_entries !byte 0,0
     7  44e3 ff                 dict_ordered	!byte $ff ; Holds 0 for false or $ff for true
     8  44e4 00                 num_terminators !byte 0
     9  44e5 0000000000000000...terminators !byte 0,0,0,0,0,0,0,0,0,0
    10                          
    11                          !ifdef Z5PLUS {
    12                          parse_user_dictionary
    13  44ef 48                 	pha
    14  44f0 a900               	lda #0
    15  44f2 8ddd44             	sta dict_is_default
    16  44f5 68                 	pla
    17  44f6 4c0445             	jmp parse_dictionary
    18                          }
    19                          
    20                          parse_default_dictionary
    21                          !ifdef Z5PLUS {
    22  44f9 a901               	lda #1
    23  44fb 8ddd44             	sta dict_is_default
    24                          }
    25  44fe ad084e                 lda story_start + header_dictionary     ; 05
    26  4501 ae094e                 ldx story_start + header_dictionary + 1 ; f3
    27                          
    28                          parse_dictionary
    29                          	; parameters: dictionary address in (a,x)
    30  4504 206f44                 jsr set_z_address
    31                              ; read terminators
    32  4507 20b244                 jsr read_next_byte
    33                          !ifndef UNSAFE {
    34  450a c90a                   cmp #10 ; max num terminators
    35  450c 9005                   bcc .ok_term
    36  450e a90f                   lda #ERROR_TOO_MANY_TERMINATORS
    37  4510 205322                 jsr fatalerror
    38                          .ok_term
    39                          }
    40  4513 8de444                sta num_terminators
    41  4516 a000                   ldy #0
    42  4518 20b244             -   jsr read_next_byte
    43  451b 99e544                 sta terminators,y
    44  451e c8                     iny
    45  451f cce444                 cpy num_terminators
    46  4522 d0f4                   bne -
    47                              ; read entries
    48  4524 20b244                 jsr read_next_byte
    49  4527 8de044                 sta dict_len_entries
    50                          
    51                          !ifdef Z5PLUS {
    52  452a a9ff               	lda #$ff
    53  452c 8de344             	sta dict_ordered
    54                          }
    55  452f 20b244                 jsr read_next_byte
    56  4532 8de144                 sta dict_num_entries
    57  4535 a8                 	tay
    58  4536 20b244                 jsr read_next_byte
    59  4539 8de244                 sta dict_num_entries + 1
    60                          !ifdef Z5PLUS {
    61                          ; Check if ordered dictionary
    62  453c c080               	cpy #$80
    63  453e 9013               	bcc .ordered
    64  4540 eee344             	inc dict_ordered ; Set to 0
    65                          	; Invert dict_num_entries and add one
    66  4543 49ff               	eor #$ff
    67  4545 18                 	clc
    68  4546 6901               	adc #1
    69  4548 8de244             	sta dict_num_entries + 1
    70  454b 98                 	tya 
    71  454c 49ff               	eor #$ff
    72  454e 6900               	adc #0
    73  4550 8de144             	sta dict_num_entries
    74                          }
    75                          .ordered	
    76  4553 20a644                 jsr get_z_address
    77  4556 8ede44                 stx dict_entries
    78  4559 8ddf44                 sta dict_entries  + 1
    79  455c 60                     rts
    80                          
    81                          ;show_dictionary
    82                          ;    ; show all entries (assume at least one)
    83                          ;    lda #0
    84                          ;    sta .dict_x
    85                          ;    sta .dict_x + 1
    86                          ;    ldx dict_entries
    87                          ;    lda dict_entries + 1
    88                          ;    jsr set_z_address
    89                          ;-   ; show the dictonary word
    90                          ;    jsr print_addr
    91                          ;    jsr newline
    92                          ;    ; skip the extra data bytes
    93                          ;    lda dict_len_entries
    94                          ;    sec
    95                          ;!ifndef Z4PLUS {
    96                          ;    sbc #4
    97                          ;}
    98                          ;!ifdef Z4PLUS {
    99                          ;    sbc #6
   100                          ;}
   101                          ;    tay
   102                          ;--  jsr read_next_byte
   103                          ;    dey
   104                          ;    bne --
   105                          ;    ; increase the loop counter
   106                          ;    inc .dict_x + 1
   107                          ;    bne +
   108                          ;    inc .dict_x
   109                          ;    ; counter < dict_num_entries?
   110                          ;+   lda dict_num_entries + 1
   111                          ;    cmp .dict_x + 1
   112                          ;    bne -
   113                          ;    lda dict_num_entries
   114                          ;    cmp .dict_x 
   115                          ;    bne -
   116                          ;    rts
   117                          ;.dict_x: !byte 0,0

; ******** Source: ozmoo.asm
   247                          

; ******** Source: objecttable.asm
     1                          ; see: http://inform-fiction.org/zmachine/standards/z1point1/sect12.html
     2                          
     3                          ; globals
     4                          ; SFTODODATA 3 ? DON'T KNOW IF THESE NEED TO BE INITIALISED. NOT THAT BIG.
     5  455d 00                 num_default_properties !byte 0
     6  455e 0000               objects_start_ptr      !byte 0, 0
     7                          
     8                          ; object table opcodes
     9                          z_ins_get_sibling
    10                              ; get_sibling object -> (result) ?(label)
    11                          !ifndef Z4PLUS {
    12                              lda #5
    13                          } else {
    14  4560 a909                   lda #9
    15                          }
    16  4562 d002               	bne .get_sibling_child ; Always branch
    17                          
    18                          z_ins_get_child
    19                              ; get_child object -> (result) ?(label)
    20                          !ifndef Z4PLUS {
    21                              lda #6
    22                          } else  {
    23  4564 a90b                   lda #11
    24                          }
    25                          .get_sibling_child
    26                              ; check if object is 0
    27  4566 a61e                   ldx z_operand_value_low_arr
    28  4568 d00e                   bne +
    29  456a a616                   ldx z_operand_value_high_arr
    30  456c d00a                   bne +
    31                              ; object is 0, store 0 and return false
    32                          !ifdef DEBUG {
    33                              jsr print_following_string
    34                          !ifndef ACORN {
    35                              !pet "WARNING: get_child called with object 0",13,0
    36                          } else {
    37                              !text "WARNING: get_child called with object 0",13,0
    38                          }
    39                          }
    40  456e a200                   ldx #0
    41  4570 a900                   lda #0
    42  4572 202e40                 jsr z_store_result
    43  4575 4c7c30             	jmp make_branch_false
    44  4578 48                 +	pha
    45  4579 a61e                   ldx z_operand_value_low_arr
    46  457b a516                   lda z_operand_value_high_arr
    47  457d 20ce48                 jsr calculate_object_address
    48  4580 68                 	pla
    49  4581 a8                 	tay
    50                          !ifndef Z4PLUS {
    51                              lda (object_tree_ptr),y
    52                          	pha ; Value is zero if object is zero, non-zero if object is non-zero
    53                              tax
    54                              lda #0
    55                          } else  {
    56  4582 b149                   lda (object_tree_ptr),y
    57  4584 aa                     tax
    58  4585 88                 	dey
    59  4586 1149                   ora (object_tree_ptr),y
    60  4588 48                 	pha ; Value is zero if object is zero, non-zero if object is non-zero
    61  4589 b149                   lda (object_tree_ptr),y
    62                          }
    63  458b 202e40                 jsr z_store_result
    64  458e 68                 	pla ; Value is zero if object is zero, non-zero if object is non-zero
    65  458f d003               	bne .get_child_branch_true
    66  4591 4c7c30             	jmp make_branch_false
    67                          .get_child_branch_true
    68  4594 4ca330             	jmp make_branch_true
    69                          
    70                          z_ins_get_parent
    71                              ; get_parent object -> (result)
    72  4597 a61e                   ldx z_operand_value_low_arr
    73  4599 a516                   lda z_operand_value_high_arr
    74  459b 20ce48                 jsr calculate_object_address
    75                          !ifndef Z4PLUS {
    76                              ldy #4
    77                              ldx #0
    78                              lda (object_tree_ptr),y
    79                              tax
    80                              lda #0
    81                          } else  {
    82  459e a007                   ldy #7
    83  45a0 b149                   lda (object_tree_ptr),y
    84  45a2 aa                     tax
    85  45a3 88                     dey
    86  45a4 b149                   lda (object_tree_ptr),y
    87                          }
    88  45a6 4c2e40                 jmp z_store_result
    89                          
    90                          +make_acorn_screen_hole
    91                          z_ins_get_prop_len
    92                              ; get_prop_len property-address -> (result)
    93  45a9 a61e                   ldx z_operand_value_low_arr
    94  45ab a516                   lda z_operand_value_high_arr
    95  45ad e000                   cpx #0
    96  45af d007                   bne +
    97  45b1 c900                   cmp #0
    98  45b3 d003                   bne +
    99                              ; get_prop_len 0 must return 0
   100  45b5 4c2e40                 jmp z_store_result
   101  45b8 206f44             +   jsr set_z_address
   102                              ; z_address currently at start of prop data
   103                              ; need to back 1 step to the property length byte
   104  45bb 207844                 jsr dec_z_address
   105  45be 20b244                 jsr read_next_byte
   106                          !ifdef Z4PLUS {
   107  45c1 48                     pha
   108  45c2 2980                   and #$80
   109  45c4 d00f                   bne +
   110                              ; this is a 1-byte property block, check bit 6
   111  45c6 a901                   lda #1
   112  45c8 8dbe47                 sta .property_length
   113  45cb 68                     pla
   114  45cc 2940                   and #$40
   115  45ce f012                   beq ++
   116  45d0 eebe47                 inc .property_length
   117  45d3 d00d                   bne ++ ; always jump
   118                          +   ; this is byte 2 of a 2-byte property block
   119  45d5 68                     pla
   120  45d6 293f                   and #$3f
   121  45d8 8dbe47                 sta .property_length
   122  45db d005                   bne ++
   123  45dd a940                   lda #64
   124  45df 8dbe47                 sta .property_length
   125                          } else {
   126                              lsr
   127                              lsr
   128                              lsr
   129                              lsr
   130                              lsr
   131                              sta .property_length
   132                              inc .property_length
   133                          }
   134  45e2 aebe47             ++  ldx .property_length
   135  45e5 a900                   lda #0
   136  45e7 4c2e40                 jmp z_store_result
   137                          
   138                          .zp_object = zp_mempos
   139                          .zp_parent = object_tree_ptr  ; won't be used at the same time
   140                          .zp_sibling = object_tree_ptr ; won't be used at the same time
   141                          .zp_dest = object_tree_ptr    ; won't be used at the same time
   142                          ; SFTODODATA 6 - DON'T KNOW IF NEEDS TO BE INITIALISED, NOT THAT BIG
   143                          ; .object_num !byte 0,0
   144  45ea 0000               .parent_num !byte 0,0
   145  45ec 0000               .child_num !byte 0,0
   146  45ee 0000               .sibling_num !byte 0,0        ; won't be used at the same time
   147                          .dest_num = .sibling_num      ; won't be used at the same time
   148                          
   149                          +make_acorn_screen_hole
   150                          z_ins_remove_obj
   151                              ; remove_obj object
   152                          z_ins_remove_obj_body
   153                              ; get object number
   154  45f0 a61e                   ldx z_operand_value_low_arr
   155  45f2 a516                   lda z_operand_value_high_arr
   156  45f4 854b                   sta object_num
   157  45f6 864c                   stx object_num + 1
   158                              ; find object in dynmem
   159                              ;lda object_num
   160                              ;ldx object_num + 1
   161  45f8 20ce48                 jsr calculate_object_address
   162  45fb a549                   lda object_tree_ptr
   163  45fd 8514                   sta .zp_object
   164  45ff a54a                   lda object_tree_ptr + 1
   165  4601 8515                   sta .zp_object + 1
   166                              ; get parent number
   167                          !ifdef Z4PLUS {
   168  4603 a006                   ldy #6  ; parent
   169  4605 b114                   lda (.zp_object),y
   170  4607 8dea45                 sta .parent_num
   171  460a c8                     iny
   172  460b b114                   lda (.zp_object),y
   173  460d 8deb45                 sta .parent_num + 1
   174                          } else {
   175                              ldy #4  ; parent
   176                              lda #0
   177                              sta .parent_num
   178                              lda (.zp_object),y
   179                              sta .parent_num + 1
   180                          }
   181                              ; is there a parent?
   182  4610 adea45                 lda .parent_num
   183  4613 d008                   bne .has_parent
   184  4615 adeb45                 lda .parent_num + 1
   185  4618 d003                   bne .has_parent
   186                              ; no parent, nothing to do
   187  461a 4c8f46                 jmp .remove_obj_done
   188                          .has_parent
   189                              ; yes, there is a parent...
   190                              ; find parent in dynmen
   191  461d adea45                 lda .parent_num
   192  4620 aeeb45                 ldx .parent_num + 1
   193  4623 20ce48                 jsr calculate_object_address
   194                              ; get child number
   195                          !ifdef Z4PLUS {
   196  4626 a00a                   ldy #10  ; child
   197  4628 b149                   lda (.zp_parent),y
   198  462a 8dec45                 sta .child_num
   199  462d c8                     iny
   200  462e b149                   lda (.zp_parent),y
   201  4630 8ded45                 sta .child_num + 1
   202                          } else {
   203                              ldy #6  ; child
   204                              lda #0
   205                              sta .child_num
   206                              lda (.zp_parent),y
   207                              sta .child_num + 1
   208                          }
   209                              ; num_child == num_object?
   210  4633 adec45                 lda .child_num
   211  4636 c54b                   cmp object_num
   212  4638 d01a                   bne .not_child
   213  463a aded45                 lda .child_num + 1
   214  463d c54c                   cmp object_num + 1
   215  463f d013                   bne .not_child
   216                              ; object is the child of parent
   217                              ; set child of parent to object's sibling
   218                          !ifdef Z4PLUS {
   219  4641 a008                   ldy #8  ; sibling
   220  4643 b114                   lda (.zp_object),y
   221  4645 48                     pha
   222  4646 c8                     iny
   223  4647 b114                   lda (.zp_object),y
   224  4649 a00b                   ldy #11  ; child+1
   225  464b 9149                   sta (.zp_parent),y
   226  464d 88                     dey
   227  464e 68                     pla
   228  464f 9149                   sta (.zp_parent),y
   229                          } else {
   230                              ldy #5  ; sibling
   231                              lda (.zp_object),y
   232                              ldy #6  ; child
   233                              sta (.zp_parent),y
   234                          }
   235  4651 4c8f46                 jmp .remove_obj_done
   236                          .not_child
   237                              ; find sibling in dynmen
   238  4654 adec45                 lda .child_num
   239  4657 aeed45                 ldx .child_num + 1
   240  465a 8dee45                 sta .sibling_num
   241  465d 8eef45                 stx .sibling_num + 1
   242                          -
   243  4660 adee45                 lda .sibling_num
   244  4663 aeef45                 ldx .sibling_num + 1
   245  4666 20ce48                 jsr calculate_object_address
   246                              ; get next sibling number
   247                          !ifdef Z4PLUS {
   248  4669 a008                   ldy #8  ; sibling
   249  466b b149                   lda (.zp_sibling),y
   250  466d 8dee45                 sta .sibling_num
   251  4670 c8                     iny
   252  4671 b149                   lda (.zp_sibling),y
   253  4673 8def45                 sta .sibling_num + 1
   254                          } else {
   255                              ldy #5  ; sibling
   256                              lda #0
   257                              sta .sibling_num
   258                              lda (.zp_sibling),y
   259                              sta .sibling_num + 1
   260                          }
   261                              ; while sibling != object
   262  4676 adee45                 lda .sibling_num
   263  4679 c54b                   cmp object_num
   264  467b d0e3                   bne -
   265  467d adef45                 lda .sibling_num + 1
   266  4680 c54c                   cmp object_num + 1
   267  4682 d0dc                   bne -
   268                              ; .zp_sibling.sibling == object. set to object.sibling instead
   269                          !ifdef Z4PLUS {
   270  4684 a008                   ldy #8  ; sibling
   271  4686 b114                   lda (.zp_object),y
   272  4688 9149                   sta (.zp_sibling),y
   273  468a c8                     iny
   274  468b b114                   lda (.zp_object),y
   275  468d 9149                   sta (.zp_sibling),y
   276                          } else {
   277                              ldy #5  ; sibling
   278                              lda (.zp_object),y
   279                              sta (.zp_sibling),y
   280                          }
   281                          .remove_obj_done
   282                              ; always set obj.parent and obj.sibling to 0
   283  468f a900                   lda #0
   284                          !ifdef Z4PLUS {
   285  4691 a006                   ldy #6  ; parent
   286  4693 9114                   sta (.zp_object),y
   287  4695 c8                     iny
   288  4696 9114                   sta (.zp_object),y
   289  4698 c8                     iny ; sibling (8)
   290  4699 9114                   sta (.zp_object),y
   291  469b c8                     iny
   292  469c 9114                   sta (.zp_object),y
   293                          } else {
   294                              ldy #4  ; parent
   295                              sta (.zp_object),y
   296                              iny ; sibling (5)
   297                              sta (.zp_object),y
   298                          }
   299  469e 60                     rts
   300                          
   301                          find_attr
   302                              ; find attribute
   303                              ; output: 
   304                              ;   y = index to attribute byte relative object_tree_ptr
   305                              ;   x = bit to set/clear, use .bitmask)
   306                              ;   x and y also stored in .bitmask_index and .attribute_index
   307                              ; need to call evaluate_all_args before find_attr
   308  469f a61e                   ldx z_operand_value_low_arr
   309  46a1 a516                   lda z_operand_value_high_arr
   310  46a3 20ce48                 jsr calculate_object_address
   311  46a6 a51f                   lda z_operand_value_low_arr + 1
   312                              ; ignore high_arr. Max 48 attributes
   313  46a8 2907                   and #$07
   314  46aa 8dc046                 sta .bitmask_index
   315  46ad aa                     tax
   316  46ae a51f                   lda z_operand_value_low_arr + 1
   317  46b0 4a                     lsr
   318  46b1 4a                     lsr
   319  46b2 4a                     lsr
   320  46b3 a8                     tay
   321  46b4 8dc146                 sta .attribute_index
   322  46b7 60                     rts
   323  46b8 8040201008040201   .bitmask !byte 128,64,32,16,8,4,2,1
   324                          ; SFTODODATA 2 SMALL THO, DON'T KNOW IF IT NEEDS TO BE 0 INITED
   325  46c0 00                 .bitmask_index !byte 0
   326  46c1 00                 .attribute_index !byte 0
   327                          
   328                          ; SFTODO +make_acorn_screen_hole
   329                          z_ins_print_obj
   330                              ; print_obj object
   331  46c2 a61e                   ldx z_operand_value_low_arr
   332  46c4 a516                   lda z_operand_value_high_arr
   333  46c6 4cc946                 jmp print_obj
   334                          
   335                          print_obj
   336  46c9 20ce48                 jsr calculate_object_address
   337                          !ifndef Z4PLUS {
   338                              ldy #8
   339                          }
   340                          !ifdef Z4PLUS {
   341  46cc a00d                   ldy #13
   342                          }
   343  46ce b149                   lda (object_tree_ptr),y ; low byte
   344  46d0 aa                     tax
   345  46d1 88                     dey
   346  46d2 b149                   lda (object_tree_ptr),y ; high byte
   347  46d4 206f44                 jsr set_z_address
   348  46d7 20b244                 jsr read_next_byte ; length of object short name
   349  46da 4c3c1f                 jmp print_addr
   350                          
   351                          ; SFTODO +make_acorn_screen_hole
   352                          z_ins_jin
   353                              ; jin obj1 obj2 ?(label)
   354  46dd a61e                   ldx z_operand_value_low_arr
   355  46df a516                   lda z_operand_value_high_arr
   356  46e1 20ce48                 jsr calculate_object_address
   357                          !ifndef Z4PLUS {
   358                              ldy #4  ; parent
   359                              lda (object_tree_ptr),y
   360                              cmp z_operand_value_low_arr + 1
   361                              bne .branch_false
   362                              beq .branch_true
   363                          } else {
   364  46e4 a006                   ldy #6  ; parent
   365  46e6 b149                   lda (object_tree_ptr),y
   366  46e8 c517                   cmp z_operand_value_high_arr + 1
   367  46ea d016                   bne .branch_false
   368  46ec c8                     iny
   369  46ed b149                   lda (object_tree_ptr),y
   370  46ef c51f                   cmp z_operand_value_low_arr + 1
   371  46f1 d00f                   bne .branch_false
   372  46f3 f00a                   beq .branch_true
   373                          }
   374                          
   375                          z_ins_test_attr
   376                              ; test_attr object attribute ?(label)
   377  46f5 209f46                 jsr find_attr
   378  46f8 b149                   lda (object_tree_ptr),y
   379  46fa 3db846                 and .bitmask,x
   380  46fd f003                   beq .branch_false
   381                          .branch_true 
   382  46ff 4ca330                 jmp make_branch_true
   383                          .branch_false
   384  4702 4c7c30                jmp make_branch_false
   385                          
   386                          z_ins_set_attr
   387                              ; set_attr object attribute
   388  4705 209f46                 jsr find_attr
   389                              ; don't continue if object = 0
   390  4708 a61e                   ldx z_operand_value_low_arr
   391  470a d005                   bne .do_set_attr
   392  470c a616                   ldx z_operand_value_high_arr
   393  470e d001                   bne .do_set_attr
   394  4710 60                     rts
   395                          .do_set_attr
   396  4711 aec046                 ldx .bitmask_index
   397  4714 acc146                 ldy .attribute_index
   398  4717 b149                   lda (object_tree_ptr),y
   399  4719 1db846                 ora .bitmask,x
   400  471c 9149                   sta (object_tree_ptr),y
   401  471e 60                     rts
   402                          
   403                          z_ins_clear_attr
   404                              ; clear_attr object attribute
   405  471f 209f46                 jsr find_attr
   406                              ; don't continue if object = 0
   407  4722 a61e                   ldx z_operand_value_low_arr
   408  4724 d005                   bne .do_clear_attr
   409  4726 a616                   ldx z_operand_value_high_arr
   410  4728 d001                   bne .do_clear_attr
   411  472a 60                     rts
   412                          .do_clear_attr
   413  472b aec046                 ldx .bitmask_index
   414  472e acc146                 ldy .attribute_index
   415  4731 b149                   lda (object_tree_ptr),y
   416  4733 3db846                 and .bitmask,x
   417  4736 f007                   beq +
   418  4738 b149                   lda (object_tree_ptr),y
   419  473a 5db846                 eor .bitmask,x
   420  473d 9149                   sta (object_tree_ptr),y
   421                          +
   422  473f 60                     rts
   423                          
   424                          z_ins_insert_obj
   425                              ; insert_obj object destination
   426  4740 20f045                 jsr z_ins_remove_obj_body ; will set .zp_object and object_num
   427                              ; calculate destination address
   428  4743 a61f                   ldx z_operand_value_low_arr + 1
   429  4745 a517                   lda z_operand_value_high_arr + 1
   430  4747 20ce48                 jsr calculate_object_address
   431  474a a549                   lda object_tree_ptr
   432  474c 8549                   sta .zp_dest
   433  474e a54a                   lda object_tree_ptr + 1
   434  4750 854a                   sta .zp_dest + 1
   435                              ; get destination number
   436  4752 a61f                   ldx z_operand_value_low_arr + 1
   437  4754 a517                   lda z_operand_value_high_arr + 1
   438  4756 8dee45                 sta .dest_num
   439  4759 8eef45                 stx .dest_num + 1
   440                          !ifdef Z4PLUS {
   441                              ; object.parent = destination
   442  475c a006                   ldy #6 ; parent
   443  475e adee45                 lda .dest_num
   444  4761 9114                   sta (.zp_object),y
   445  4763 c8                     iny
   446  4764 adef45                 lda .dest_num + 1
   447  4767 9114                   sta (.zp_object),y
   448                              ; object.sibling = destination.child
   449  4769 a00a                   ldy #10 ; child
   450  476b b149                   lda (.zp_dest),y
   451  476d 48                     pha
   452  476e c8                     iny
   453  476f b149                   lda (.zp_dest),y
   454  4771 a009                   ldy #9 ; sibling + 1
   455  4773 9114                   sta (.zp_object),y
   456  4775 88                     dey
   457  4776 68                     pla
   458  4777 9114                   sta (.zp_object),y
   459                              ; destination.child = object
   460  4779 a00a                   ldy #10 ; child
   461  477b a54b                   lda object_num
   462  477d 9149                   sta (.zp_dest),y
   463  477f c8                     iny
   464  4780 a54c                   lda object_num + 1
   465  4782 9149                   sta (.zp_dest),y
   466                          } else {
   467                              ; object.parent = destination
   468                              ldy #4 ; parent
   469                              lda .dest_num + 1
   470                              sta (.zp_object),y
   471                              ; object.sibling = destination.child
   472                              ldy #6; child
   473                              lda (.zp_dest),y
   474                              dey ; sibling (4)
   475                              sta (.zp_object),y
   476                              ; destination.child = object
   477                              ldy #6 ; child
   478                              lda object_num + 1
   479                              sta (.zp_dest),y
   480                          }
   481  4784 60                     rts
   482                          
   483                          calculate_property_length_number
   484                              ; must call set_z_address before this subroutine
   485                              ; output: updates .property_number, .property_length
   486                              ; .property_length = 0 if end of property list
   487  4785 a900                   lda #0
   488  4787 8dbd47                 sta .property_number
   489  478a 8dbe47                 sta .property_length
   490  478d 20b244                 jsr read_next_byte ; size of property block (# data | property number)
   491  4790 f02a                   beq .end_pf_property_list
   492                          !ifdef Z4PLUS {
   493  4792 48                     pha
   494  4793 293f                   and #$3f ; property number
   495  4795 8dbd47                 sta .property_number
   496  4798 68                     pla
   497  4799 48                     pha
   498  479a 2980                   and #$80
   499  479c d00e                   bne .two_bytes
   500  479e a901                   lda #1
   501  47a0 8dbe47                 sta .property_length
   502  47a3 68                     pla
   503  47a4 2940                   and #$40
   504  47a6 f003                   beq +
   505  47a8 eebe47                 inc .property_length
   506  47ab 60                 +   rts
   507                          .two_bytes
   508  47ac 68                     pla ; we don't care about byte 1, bit 6 anymore
   509  47ad 20b244                 jsr read_next_byte ; property_length
   510  47b0 293f                   and #$3f ; property number
   511  47b2 8dbe47                 sta .property_length
   512  47b5 d005                   bne .end_pf_property_list
   513  47b7 a940                   lda #64
   514  47b9 8dbe47                 sta .property_length
   515                          } else {
   516                              pha
   517                              and #$1f ; property number
   518                              sta .property_number
   519                              pla
   520                              lsr
   521                              lsr
   522                              lsr
   523                              lsr
   524                              lsr
   525                              sta .property_length
   526                              inc .property_length
   527                          }
   528                          .end_pf_property_list
   529  47bc 60                     rts
   530                              ; SFTODODATA 2 CHECK 0-INIT REQ
   531  47bd 00                 .property_number !byte 0
   532  47be 00                 .property_length !byte 0
   533                          
   534                          find_first_prop
   535                              ; output: z_address is set to property block, or 0,0 if not set in obj
   536  47bf a61e                   ldx z_operand_value_low_arr
   537  47c1 a516                   lda z_operand_value_high_arr
   538  47c3 20ce48                 jsr calculate_object_address
   539                          !ifdef Z4PLUS {
   540  47c6 a00d                   ldy #13
   541                          } else {
   542                              ldy #8
   543                          }
   544  47c8 b149                   lda (object_tree_ptr),y ; low byte
   545  47ca aa                     tax
   546  47cb 88                     dey
   547  47cc b149                   lda (object_tree_ptr),y ; high byte
   548  47ce 48                     pha ; a is destroyed by set_z_address
   549  47cf 206f44                 jsr set_z_address
   550  47d2 68                     pla
   551  47d3 d005                   bne +
   552  47d5 e000                   cpx #0
   553  47d7 d001                   bne +
   554  47d9 60                     rts ; 0,0: no prop block exists, do nothing
   555  47da 20b244             +    jsr read_next_byte ; length of object short name (# of zchars)
   556                              ; skip short name (2 * bytes, since in words)
   557  47dd 48                     pha ; a is destroyed by skip_bytes_z_address
   558  47de 209444                 jsr skip_bytes_z_address
   559  47e1 68                     pla
   560  47e2 4c9444                 jmp skip_bytes_z_address
   561                          
   562                          find_prop
   563                              ; call find_first_prop before calling find_prop
   564                              ; output: x,a = address to property block, or 0,0 if not found
   565                              ; (also stored in .find_prop_result)
   566                              ; loop over the properties until the correct one found
   567  47e5 20a644                 jsr get_z_address
   568  47e8 d004                   bne .property_loop
   569  47ea e000                   cpx #0
   570  47ec f01c                   beq .find_prop_not_found ; 0,0: not a valid property block
   571                          .property_loop
   572  47ee 208547                 jsr calculate_property_length_number
   573  47f1 adbd47                 lda .property_number
   574  47f4 c900                   cmp #0
   575  47f6 f012                   beq .find_prop_not_found
   576  47f8 adbd47                 lda .property_number
   577  47fb c51f                   cmp z_operand_value_low_arr + 1; max 63 properties so only low_arr
   578  47fd f016                   beq .find_prop_found
   579                              ; skip property data
   580  47ff 20b244             -   jsr read_next_byte
   581  4802 cebe47                 dec .property_length
   582  4805 d0f8                   bne -
   583  4807 4cee47                 jmp .property_loop
   584                          .find_prop_not_found
   585  480a a200                   ldx #0
   586  480c a900                   lda #0
   587  480e 8e1f48                 stx .find_prop_result
   588  4811 8d2048                 sta .find_prop_result + 1
   589  4814 60                     rts
   590                          .find_prop_found
   591  4815 20a644                 jsr get_z_address
   592  4818 8e1f48                 stx .find_prop_result
   593  481b 8d2048                 sta .find_prop_result + 1
   594  481e 60                     rts
   595  481f 0000               .find_prop_result !byte 0,0 ; x,a
   596                          
   597                          ; SFTODO +make_acorn_screen_hole
   598                          z_ins_get_prop
   599                              ; get_prop object property -> (result)
   600  4821 20bf47                 jsr find_first_prop
   601  4824 20e547                 jsr find_prop
   602  4827 c900                   cmp #0
   603  4829 d00e                   bne .property_found
   604                              ; no property found, get default property
   605  482b a51f                   lda z_operand_value_low_arr + 1; max 63 properties so only low_arr
   606  482d 0a                     asl ; default property is words (2 bytes each)
   607  482e a8                     tay
   608  482f 88                     dey
   609  4830 b15b                   lda (default_properties_ptr),y
   610  4832 aa                     tax
   611  4833 88                     dey
   612  4834 b15b                   lda (default_properties_ptr),y
   613  4836 4c5248                 jmp .return_property_result
   614                          .property_found
   615  4839 adbe47                 lda .property_length
   616  483c c901                   cmp #1
   617  483e d009                   bne .not_one
   618                              ; property length is 1
   619  4840 20b244                 jsr read_next_byte
   620  4843 aa                     tax
   621  4844 a900                   lda #0
   622  4846 4c5248                 jmp .return_property_result
   623                          .not_one
   624                              ; property length is 2
   625  4849 20b244                 jsr read_next_byte
   626  484c 48                     pha
   627  484d 20b244                 jsr read_next_byte
   628  4850 aa                     tax
   629  4851 68                     pla
   630                          .return_property_result
   631  4852 4c2e40                 jmp z_store_result
   632                          !ifndef UNSAFE {
   633                          .not_two
   634                              ; error. only 1 or 2 allowed
   635  4855 a90a                   lda #ERROR_BAD_PROPERTY_LENGTH
   636  4857 205322                 jsr fatalerror
   637                          }
   638                          
   639                          z_ins_get_prop_addr
   640                              ; get_prop_addr object property -> (result)
   641  485a 20bf47                 jsr find_first_prop
   642  485d 20e547                 jsr find_prop
   643  4860 4c2e40                 jmp z_store_result
   644                          
   645                          z_ins_get_next_prop
   646                              ; get_next_prop object property -> (result)
   647  4863 20bf47                 jsr find_first_prop
   648  4866 a61f                   ldx z_operand_value_low_arr + 1
   649  4868 f00b                   beq + ; property == 0, return first property number
   650                              ; find the property, and return next number
   651  486a 20e547                 jsr find_prop
   652                              ; skip property data
   653  486d 20b244             -   jsr read_next_byte
   654  4870 cebe47                 dec .property_length
   655  4873 d0f8                   bne -
   656  4875 208547             +   jsr calculate_property_length_number
   657  4878 aebd47                 ldx .property_number
   658  487b a900                   lda #0
   659  487d 4c2e40                 jmp z_store_result
   660                          
   661                          z_ins_put_prop
   662                              ; put_prop object property value
   663  4880 20bf47                 jsr find_first_prop
   664  4883 20e547                 jsr find_prop
   665  4886 8614                   stx zp_mempos
   666  4888 18                     clc
   667  4889 694e                   adc #>story_start
   668  488b 8515                   sta zp_mempos + 1
   669  488d adbe47                 lda .property_length
   670  4890 c901                   cmp #1
   671  4892 d007                   bne +
   672  4894 a620                   ldx z_operand_value_low_arr + 2
   673  4896 a000                   ldy #0
   674  4898 9114                   sta (zp_mempos),y
   675  489a 60                     rts
   676                          +   
   677                          !ifndef UNSAFE {
   678  489b c902               	cmp #2
   679  489d d0b6                   bne .not_two
   680                          }
   681  489f a000                   ldy #0
   682  48a1 a518                   lda z_operand_value_high_arr + 2
   683  48a3 9114                   sta (zp_mempos),y
   684  48a5 c8                     iny 
   685  48a6 a520                   lda z_operand_value_low_arr + 2
   686  48a8 9114                   sta (zp_mempos),y
   687  48aa 60                     rts
   688                          
   689                          parse_object_table
   690  48ab ad0a4e                 lda story_start + header_object_table     ; high byte
   691  48ae ae0b4e                 ldx story_start + header_object_table + 1 ; low byte
   692                              ; property defaults table
   693  48b1 865b                   stx default_properties_ptr
   694  48b3 18                     clc
   695  48b4 694e                   adc #>story_start
   696  48b6 855c                   sta default_properties_ptr + 1
   697                          !ifndef Z4PLUS {
   698                              ldx #62 ; 31 words
   699                          }
   700                          !ifdef Z4PLUS {
   701  48b8 a27e                   ldx #126 ; 63 words
   702                          }
   703  48ba 8e5d45                 stx num_default_properties
   704                              ; store start of objects
   705  48bd a55b                   lda default_properties_ptr
   706  48bf 18                     clc
   707  48c0 6d5d45                 adc num_default_properties
   708  48c3 8d5e45                 sta objects_start_ptr
   709  48c6 a55c                   lda default_properties_ptr + 1
   710  48c8 6900                   adc #0
   711  48ca 8d5f45                 sta objects_start_ptr + 1
   712  48cd 60                     rts
   713                          
   714                          calculate_object_address
   715                              ; subroutine: calculate address for object
   716                              ; input: a,x object index (high/low)
   717                              ; output: object address in object_tree_ptr
   718                              ; used registers: a,x,y
   719                              ; side effects:
   720                          !ifdef Z3 {
   721                          	; To get address, decrease obj# by 1 and multiply by 9 (Calculate 8 * (obj# - 1) + (obj# - 1))
   722                          	dex ; x is one too high, since the first object is #1
   723                          	stx object_tree_ptr
   724                          	lda #0
   725                          	sta object_tree_ptr + 1
   726                          	txa
   727                          	asl ; * 2
   728                          	rol object_tree_ptr + 1 ; * 2
   729                          	asl ; * 4
   730                          	rol object_tree_ptr + 1 ; * 4
   731                          	asl ; * 8
   732                          	rol object_tree_ptr + 1 ; * 8
   733                          	adc object_tree_ptr ; C is already 0
   734                          	tax
   735                          	lda object_tree_ptr + 1
   736                          	adc #0
   737                          } else {
   738                          	; To get address, decrease obj# by 1 and multiply by 14 (Calculate 16 * (obj# - 1) - 2 * (obj# - 1))
   739  48ce ca                 	dex
   740  48cf e0ff               	cpx #$ff
   741  48d1 d002               	bne +
   742  48d3 e901               	sbc #1
   743  48d5 854e               +	sta object_temp + 1
   744  48d7 8a                 	txa
   745  48d8 0a                 	asl ; * 2
   746  48d9 854d               	sta object_temp
   747  48db 264e               	rol object_temp + 1 ; * 2
   748                          	; Now we have (obj# - 1) * 2 in object_temp
   749  48dd a44e               	ldy object_temp + 1
   750  48df 844a               	sty object_tree_ptr + 1
   751  48e1 0a                 	asl ; * 4
   752  48e2 264a               	rol object_tree_ptr + 1 ; * 4
   753  48e4 0a                 	asl ; * 8
   754  48e5 264a               	rol object_tree_ptr + 1 ; * 8
   755  48e7 0a                 	asl ; * 16
   756  48e8 264a               	rol object_tree_ptr + 1 ; * 16
   757  48ea 38                 	sec
   758  48eb e54d               	sbc object_temp
   759  48ed aa                 	tax
   760  48ee a54a               	lda object_tree_ptr + 1
   761  48f0 e54e               	sbc object_temp + 1
   762  48f2 18                 	clc
   763                          }
   764                          	; Object offset is now in a,x (high, low). Just need to add start address of object 1.
   765  48f3 a8                 	tay
   766  48f4 8a                 	txa
   767  48f5 6d5e45             	adc objects_start_ptr
   768  48f8 8549               	sta object_tree_ptr
   769  48fa 98                 	tya
   770  48fb 6d5f45             	adc objects_start_ptr + 1
   771  48fe 854a               	sta object_tree_ptr + 1
   772  4900 60                 	rts
   773                          	

; ******** Source: ozmoo.asm
   248                          
   249                          
   250                          .initialize
   251                          !ifdef ACORN_RELOCATABLE {
   252                          initialize
   253                          }
   254                          !ifdef ACORN {
   255                              ; Reset the stack pointer; setjmp relies on this.
   256  4901 a2ff                   ldx #$ff
   257  4903 9a                     txs
   258                          }
   259                          !ifdef TESTSCREEN {
   260                              jmp testscreen
   261                          }
   262                          
   263  4904 20054d             	jsr deletable_init_start
   264                          ;	jsr init_screen_colours
   265  4907 20004a             	jsr deletable_screen_init_1
   266                          !ifndef ACORN {
   267                          !if SPLASHWAIT > 0 {
   268                          	jsr splash_screen
   269                          }
   270                          
   271                          !ifdef VMEM {
   272                          !ifdef TARGET_C64 {
   273                              ; set up C64 SuperCPU if any
   274                              ; see: http://www.elysium.filety.pl/tools/supercpu/superprog.html
   275                              lda $d0bc ; SuperCPU control register (read only)
   276                              and #$80  ; DOS extension mode? 0 if SuperCPU, 1 if standard C64
   277                              beq .supercpu
   278                              ;bne .nosupercpu 
   279                              ; it doesn't matter what you store in the SuperCPU control registers
   280                              ; it is just the access itself that counts
   281                              ;sta $d07e ; enable hardware registers
   282                              ;sta $d076 ; basic optimization
   283                              ;sta $d077 ; no memory optimization
   284                              ;sta $d07f ; disable hardware registers
   285                              ;sta $d07a ; normal speed (1 MHz)
   286                          }
   287                              ; SuperCPU and REU doesn't work well together
   288                              ; https://www.lemon64.com/forum/viewtopic.php?t=68824&sid=330a8c62e22ebd2cf654c14ae8073fb9
   289                              ;
   290                          	jsr reu_start
   291                          .supercpu
   292                          }
   293                          }
   294  490a 20c94a             	jsr deletable_init
   295  490d 20ab48                 jsr parse_object_table
   296                          !ifndef Z5PLUS {
   297                              ; Setup default dictionary
   298                          	jsr parse_default_dictionary
   299                          }
   300                          
   301                          !ifdef Z5PLUS {
   302                              ; set up terminating characters
   303  4910 201119                 jsr parse_terminating_characters
   304                          }
   305                          	
   306  4913 200326             	jsr streams_init
   307  4916 207239             	jsr stack_init
   308                          
   309  4919 200f4a             	jsr deletable_screen_init_2
   310  491c a2ff               	ldx #$ff
   311  491e 208735             	jsr erase_window
   312                          
   313  4921 20434a             	jsr z_init
   314  4924 206e2c             	jsr z_execute
   315                          
   316                          !ifndef ACORN {
   317                          	; Back to normal memory banks
   318                          	+set_memory_normal
   319                          
   320                          	jsr $fda3 ; init I/O
   321                          	;jsr $fd50 ; init memory
   322                          	jsr $fd15 ; set I/O vectors
   323                          	jsr $ff5b ; more init
   324                              jmp ($a000)
   325                          } else {
   326                          clean_up_and_quit
   327  4927 209b2120bd2320d5...    +clean_up_and_quit_inline
   328                          }
   329                          	
   330                          program_end
   331                          
   332                          ; SF: It can be helpful for testing paged RAM builds to burn some non-paged RAM.
   333                          !ifdef WASTE_BYTES {
   334                              !fill WASTE_BYTES
   335                          }
   336                          
   337  493f 0000000000000000...	!align 255, 0, 0
   338                          z_trace_page
   339                          	!fill z_trace_size, 0
   340                          
   341                          !ifndef ACORN {
   342                          vmem_cache_start
   343                          
   344                          !ifdef ALLRAM {
   345                          	!if SPLASHWAIT > 0 {
   346                          		!source "splashscreen.asm"
   347                          	}
   348                          }
   349                          
   350                          end_of_routines_in_vmem_cache
   351                          
   352                          	!fill cache_pages * 256 - (* - vmem_cache_start),0 ; Typically 4 pages
   353                          
   354                          !ifdef VMEM {
   355                          	!if (stack_size + *) & 256 {
   356                          		!fill 256,0 ; Add one page to avoid vmem alignment issues
   357                          	}
   358                          } 
   359                          
   360                          vmem_cache_size = * - vmem_cache_start
   361                          vmem_cache_count = vmem_cache_size / 256
   362                          }
   363                          
   364                          !align 255, 0, 0 ; To make sure stack is page-aligned even if not using vmem.
   365                          !ifdef ACORN {
   366                          !ifdef VMEM {
   367                              ; The stack needs to be page-aligned. If we're using vmem, story_start needs
   368                              ; to be at a 512-byte boundary. We don't want a gap between the stack and
   369                              ; story_start because it will increase the size of saved games and mean
   370                              ; they're only compatible with builds of Ozmoo with the same alignment
   371                              ; padding, so we put the gap here.
   372                              ; SFTODODATA-ISH MAYBE SORT OF USABLE TO SQUEEZE SOMETHING IN
   373                              !if (stack_size & $100) = 0 {
   374                                  ; Stack is an even number of pages, so this must be a 512-byte boundary.
   375                                  !align 511, 0, 0
   376                              } else {
   377                                  ; Stack is an odd number of pages, so this must not be a 512-byte boundary.
   378                                  !align 511, 256, 0
   379                              }
   380                          }
   381                          }
   382                          
   383                          +make_acorn_screen_hole_before_stack
   384                          stack_start
   385                          
   386                          deletable_screen_init_1
   387                          	; start text output from bottom of the screen
   388                          	
   389                          !ifndef ACORN {
   390                              lda #147 ; clear screen
   391                              jsr s_printchar
   392                          }
   393  4a00 a000               	ldy #0
   394  4a02 8474               	sty current_window
   395  4a04 8483               	sty window_start_row + 3
   396                          !ifdef Z3 {
   397                          	iny
   398                          }
   399  4a06 8482               	sty window_start_row + 2
   400  4a08 8481               	sty window_start_row + 1
   401  4a0a a019               	+ldy_screen_height
   402  4a0c 8480               	sty window_start_row
   403                          !ifndef ACORN {
   404                          	ldy #0
   405                          	sty is_buffered_window
   406                          	ldx #$ff
   407                          	jmp erase_window
   408                          } else {
   409                              ; Don't clear the screen; on Acorn we are going to spend several seconds
   410                              ; doing the preload in deletable_init so we want to leave whatever the
   411                              ; loader left on screen up while we do that. deletable_screen_init_2 will
   412                              ; set is_buffered_window and call erase_window so everything will still be
   413                              ; set up properly when we start executing the game's code.
   414  4a0e 60                     rts
   415                          }
   416                          
   417                          deletable_screen_init_2
   418                          	; start text output from bottom of the screen
   419                          	
   420                          !ifndef ACORN {
   421                              lda #147 ; clear screen
   422                              jsr s_printchar
   423                          } else {
   424  4a0f a91c20eeffa90020...    +acorn_deletable_screen_init_2_inline
   425                          }
   426  4a30 a001               	ldy #1
   427  4a32 8408               	sty is_buffered_window
   428  4a34 a2ff               	ldx #$ff
   429  4a36 208735             	jsr erase_window
   430  4a39 a000               	ldy #0
   431  4a3b a201               	ldx #1
   432  4a3d 20af38             	jsr set_cursor
   433  4a40 4c8936             	jmp start_buffering
   434                          
   435                          z_init
   436                          !zone z_init {
   437                          
   438                          !ifdef DEBUG {
   439                          !ifdef PREOPT {
   440                          	jsr print_following_string
   441                          !ifndef ACORN {
   442                          	!pet "*** vmem optimization mode ***",13,13,0
   443                          } else {
   444                          	!text "*** vmem optimization mode ***",13,13,0
   445                          }
   446                          }	
   447                          }
   448                          
   449                          
   450  4a43 a000               	ldy #0
   451  4a45 8455               	sty z_exe_mode ; 0 = Normal
   452                          	
   453                          !ifdef TRACE {
   454                          	; Setup trace
   455                          	lda #0
   456                          	sta z_trace_index
   457                          	tay
   458                          -	sta z_trace_page,y
   459                          	iny
   460                          	bne -
   461                          }
   462                          	
   463                          !ifdef Z3 {
   464                          	lda story_start + header_flags_1
   465                          	and #(255 - 16 - 64) ; Statusline IS available, variable-pitch font is not default
   466                          	ora #32 ; Split screen available
   467                          	sta story_start + header_flags_1
   468                          } else {
   469                          !ifdef Z4 {
   470                          	lda story_start + header_flags_1
   471                          	and #(255 - 4 - 8) ; bold font, italic font not available
   472                          	ora #(16 + 128) ; Fixed-space style, timed input available
   473                          	sta story_start + header_flags_1
   474                          } else { ; Z5PLUS
   475  4a47 ad014e             	lda story_start + header_flags_1
   476                              !ifndef ACORN {
   477                                  COLOUR = 1
   478                              } else {
   479                                  COLOUR = 0
   480                              }
   481  4a4a 29f2               	and #(255 - 4 - 8 - (1 - COLOUR)) ; bold font, italic font not available
   482  4a4c 0990               	ora #(COLOUR + 16 + 128) ; Colours, Fixed-space style, timed input available
   483  4a4e 8d014e             	sta story_start + header_flags_1
   484  4a51 ad114e             	lda story_start + header_flags_2 + 1
   485  4a54 2947               	and #(255 - 8 - 16 - 32 - 128) ; pictures, undo, mouse, sound effect not available
   486  4a56 8d114e             	sta story_start + header_flags_2 + 1
   487                          }
   488                          }
   489                          !ifdef Z4PLUS {
   490  4a59 a908               	lda #TERPNO
   491  4a5b 8d1e4e             	sta story_start + header_interpreter_number ; Interpreter number (8 = C64)
   492  4a5e a944               	lda #68 ; "D" = release 4
   493  4a60 8d1f4e             	sta story_start + header_interpreter_version ; Interpreter version. Usually ASCII code for a capital letter
   494  4a63 a919               	+lda_screen_height
   495  4a65 8d204e             	sta story_start + header_screen_height_lines
   496                          !ifdef Z5PLUS {
   497  4a68 8d254e             	sta story_start + header_screen_height_units + 1
   498                          }
   499  4a6b a928                   +lda_screen_width
   500  4a6d 8d214e             	sta story_start + header_screen_width_chars
   501                          !ifdef Z5PLUS {
   502  4a70 8d234e             	sta story_start + header_screen_width_units + 1
   503                          }
   504                          }
   505  4a73 a900               	lda #0
   506  4a75 8d324e             	sta story_start + header_standard_revision_number ; major standard revision number which this terp complies to
   507  4a78 8d334e             	sta story_start + header_standard_revision_number + 1 ; minor standard revision number which this terp complies to
   508                          
   509                          !ifdef Z5PLUS {
   510                          	; a is already 0
   511  4a7b 8d224e             	sta story_start + header_screen_width_units
   512  4a7e 8d244e             	sta story_start + header_screen_height_units
   513  4a81 a901               	lda #1
   514  4a83 8d264e             	sta story_start + header_font_width_units
   515  4a86 8d274e             	sta story_start + header_font_height_units
   516                          	; TODO: Store default background and foreground colour in 2c, 2d (or comply to game's wish?)
   517                          }
   518                          	
   519                          	; Copy alphabet pointer from header, or default
   520  4a89 a228               	ldx #<default_alphabet
   521  4a8b a020               	ldy #>default_alphabet
   522                          !ifdef Z5PLUS {
   523  4a8d ad344e             	lda story_start + header_alphabet_table
   524  4a90 0d354e             	ora story_start + header_alphabet_table + 1
   525  4a93 f00a               	beq .no_custom_alphabet
   526  4a95 ae354e             	ldx story_start + header_alphabet_table + 1
   527  4a98 ad344e             	lda story_start + header_alphabet_table
   528  4a9b 18                 	clc
   529  4a9c 694e               	adc #>story_start
   530  4a9e a8                 	tay
   531                          .no_custom_alphabet
   532                          }
   533  4a9f 867e               	stx alphabet_table
   534  4aa1 847f               	sty alphabet_table + 1
   535                          	
   536                          	; Copy z_pc from header
   537  4aa3 a900               	lda #0
   538  4aa5 ae064e             	ldx story_start + header_initial_pc
   539  4aa8 ac074e             	ldy story_start + header_initial_pc + 1
   540                          !ifndef VMEM {
   541                          	sta z_pc
   542                          }
   543  4aab 203339             	jsr set_z_pc
   544  4aae 205139             	jsr get_page_at_z_pc
   545                          
   546                          	; Setup globals pointer
   547  4ab1 ad0d4e             	lda story_start + header_globals + 1
   548  4ab4 18                 	clc
   549  4ab5 69e0               	adc #<(story_start - 32)
   550  4ab7 8550               	sta z_low_global_vars_ptr
   551  4ab9 8552               	sta z_high_global_vars_ptr
   552  4abb ad0c4e             	lda story_start + header_globals
   553  4abe 694d               	adc #>(story_start - 32)
   554  4ac0 8551               	sta z_low_global_vars_ptr + 1
   555  4ac2 6901               	adc #1
   556  4ac4 8553               	sta z_high_global_vars_ptr + 1 
   557                          
   558                          !ifndef ACORN {
   559                          	; Init sound
   560                          	lda #0
   561                          	ldx #$18
   562                          -	sta $d400,x
   563                          	dex
   564                          	bpl -
   565                          	lda #$f
   566                          	sta $d418
   567                          	lda #$00
   568                          	sta $d405
   569                          	lda #$f2
   570                          	sta $d406
   571                          	
   572                          	; Init randomization
   573                          	lda #$ff
   574                          	sta $d40e
   575                          	sta $d40f
   576                          	ldx #$80
   577                          	stx $d412
   578                          }
   579                          !ifdef BENCHMARK {
   580                          !ifdef ACORN {
   581                              ; Populate A and X with the values they would have had if we'd done the
   582                              ; C64 init randomization above.
   583                          	lda #$ff
   584                          	ldx #$80
   585                          }
   586                          	ldy #1
   587                          	jmp z_rnd_init
   588                          } else {
   589  4ac6 4c382f             	jmp z_rnd_init_random
   590                          }
   591                          }
   592                          
   593                          !zone deletable_init {
   594                          !ifndef ACORN {
   595                          deletable_init_start
   596                          !ifdef CUSTOM_FONT {
   597                              lda #18
   598                          } else {
   599                          	lda #23
   600                          }
   601                              sta reg_screen_char_mode
   602                          	lda #$80
   603                          	sta charset_switchable
   604                          	jmp init_screen_colours ; _invisible
   605                          }
   606                          
   607                          deletable_init
   608  4ac9 d8                 	cld
   609                          !ifndef ACORN {
   610                              ; ; check if PAL or NTSC (needed for read_line timer)
   611                          ; w0  lda $d012
   612                          ; w1  cmp $d012
   613                              ; beq w1
   614                              ; bmi w0
   615                              ; and #$03
   616                              ; sta c64_model
   617                              ; enable lower case mode
   618                          
   619                          ; Read and parse config from boot disk
   620                          	; $BA holds last used device#
   621                          	ldy $ba
   622                          	cpy #8
   623                          	bcc .pick_default_boot_device
   624                          	cpy #12
   625                          	bcc .store_boot_device
   626                          .pick_default_boot_device
   627                          	ldy #8
   628                          .store_boot_device
   629                          	sty boot_device ; Boot device# stored
   630                          
   631                          !ifdef VMEM {
   632                          	lda #<config_load_address
   633                          	sta readblocks_mempos
   634                          	lda #>config_load_address
   635                          	sta readblocks_mempos + 1
   636                          	lda #CONF_TRK
   637                          	ldx #0
   638                          ; No need to load y with boot device#, already in place
   639                          	jsr read_track_sector
   640                          	inc readblocks_mempos + 1
   641                          	lda #CONF_TRK
   642                          	ldx #1
   643                          	ldy boot_device
   644                          	jsr read_track_sector
   645                          ;    jsr kernal_readchar   ; read keyboard
   646                          ; Copy game id
   647                          	ldx #3
   648                          -	lda config_load_address,x
   649                          	sta game_id,x
   650                          	dex
   651                          	bpl -
   652                          ; Copy disk info
   653                          	ldx config_load_address + 4
   654                          	dex
   655                          -	lda config_load_address + 4,x
   656                          	sta disk_info - 1,x
   657                          	dex
   658                          	bne -
   659                          	
   660                          	jsr auto_disk_config
   661                          ;	jsr init_screen_colours
   662                          } else { ; End of !ifdef VMEM
   663                          	sty disk_info + 4
   664                          	ldx #$30 ; First unavailable slot
   665                          	lda story_start + header_static_mem
   666                          	clc
   667                          	adc #(>stack_size) + 4
   668                          	sta zp_temp
   669                          	lda #>664
   670                          	sta zp_temp + 1
   671                          	lda #<664
   672                          .one_more_slot
   673                          	sec
   674                          	sbc zp_temp
   675                          	tay
   676                          	lda zp_temp + 1
   677                          	sbc #0
   678                          	sta zp_temp + 1
   679                          	bmi .no_more_slots
   680                          	inx
   681                          	cpx #$3a
   682                          	bcs .no_more_slots
   683                          	tya
   684                          	bcc .one_more_slot ; Always branch
   685                          .no_more_slots
   686                          	stx first_unavailable_save_slot_charcode
   687                          	txa
   688                          	and #$0f
   689                          	sta disk_info + 1 ; # of save slots
   690                          }
   691                          
   692                          	; ldy #0
   693                          	; ldx #0
   694                          	; jsr set_cursor
   695                          	
   696                          	; Default banks during execution: Like standard except Basic ROM is replaced by RAM.
   697                          	+set_memory_no_basic
   698                          } else {
   699  4aca a90585768d3d28a9...    +acorn_deletable_init_inline
   700                          }
   701                          
   702                          ; parse_header section
   703                          
   704                          !ifndef UNSAFE {
   705                              ; check z machine version
   706  4ccd ad004e                 lda story_start + header_version
   707  4cd0 c905               	cmp #ZMACHINEVERSION
   708  4cd2 f005               	beq .supported_version
   709  4cd4 a90b                   lda #ERROR_UNSUPPORTED_STORY_VERSION
   710  4cd6 205322                 jsr fatalerror
   711                          .supported_version
   712                          }
   713                          
   714                          	; Check how many z-machine memory blocks (256 bytes each) are not stored in raw disk sectors
   715                          !ifdef VMEM {
   716                          !ifndef ACORN {
   717                          	ldy story_start + header_static_mem
   718                          	lda story_start + header_static_mem + 1
   719                          	beq .maybe_inc_nonstored_blocks
   720                          	iny ; Add one page if statmem doesn't start on a new page ($xx00)
   721                          .maybe_inc_nonstored_blocks
   722                          	tya
   723                              and #255 - vmem_blockmask ; keep index into kB chunk
   724                          	beq .store_nonstored_blocks
   725                          	iny
   726                          !ifndef SMALLBLOCK {
   727                          	bne .maybe_inc_nonstored_blocks ; Always branch
   728                          }
   729                          .store_nonstored_blocks
   730                          	sty nonstored_blocks
   731                          	tya
   732                          	clc
   733                          	adc #>story_start
   734                          	sta vmap_first_ram_page
   735                          	lda #0
   736                          	sec
   737                          	sbc vmap_first_ram_page
   738                          	lsr
   739                          !ifndef SMALLBLOCK {
   740                          	lsr
   741                          } else {
   742                          	; This space constraint can not be a problem with big (1KB) vmem blocks.
   743                          	cmp #vmap_max_size ; Maximum space available
   744                          	bcc ++
   745                          	lda #vmap_max_size
   746                          ++	sta vmap_max_entries
   747                          }
   748                          }
   749                          
   750                          !ifdef VMEM_STRESS {
   751                              lda #2 ; one block for PC, one block for data
   752                          	sta vmap_max_entries
   753                          }
   754                          
   755  4cd9 20dd4c             	jsr prepare_static_high_memory
   756                          
   757                          !ifndef ACORN {
   758                          	jsr insert_disks_at_boot
   759                          
   760                          	lda use_reu
   761                          	bne .dont_preload
   762                          	jsr load_suggested_pages
   763                          .dont_preload
   764                          }
   765                          
   766                          } ; End of !ifdef VMEM
   767                          
   768                             ; ; check file length
   769                              ; ; Start by multiplying file length by 2
   770                          	; lda #0
   771                          	; sta filelength
   772                              ; lda story_start + header_filelength
   773                          	; sta filelength + 1
   774                              ; lda story_start + header_filelength + 1
   775                          	; asl
   776                          	; rol filelength + 1
   777                          	; rol filelength
   778                          ; !ifdef Z4PLUS {
   779                              ; ; Multiply file length by 2 again (for Z4, Z5 and Z8)
   780                          	; asl
   781                          	; rol filelength + 1
   782                          	; rol filelength
   783                          ; !ifdef Z8 {
   784                              ; ; Multiply file length by 2 again (for Z8)
   785                          	; asl
   786                          	; rol filelength + 1
   787                          	; rol filelength
   788                          ; }
   789                          ; }
   790                          	; sta filelength + 2
   791                          	; ldy filelength
   792                          	; ldx filelength + 1
   793                          	; beq +
   794                          	; inx
   795                          	; bne +
   796                          	; iny
   797                          ; +	sty fileblocks
   798                          	; stx fileblocks + 1
   799  4cdc 60                 	rts
   800                          }
   801                          
   802                          !ifdef VMEM {
   803                          !ifndef ACORN {
   804                          !zone disk_config {
   805                          auto_disk_config
   806                          ; Limit # of save slots to no more than 10
   807                          	lda disk_info + 1
   808                          	cmp #11
   809                          	bcc +
   810                          	lda #10
   811                          	sta disk_info + 1
   812                          	clc
   813                          +	adc #$30
   814                          	sta first_unavailable_save_slot_charcode 
   815                          
   816                          ; Figure out best device# for all disks set to auto device# (value = 0)
   817                          	lda #0
   818                          	tay ; Disk#
   819                          .next_disk
   820                          	tax ; Memory index
   821                          	lda disk_info + 4,x
   822                          	bne .device_selected
   823                          	cpy #2
   824                          	bcs .not_save_or_boot_disk
   825                          	; This is the save or boot disk
   826                          	lda boot_device
   827                          	bne .select_device ; Always branch
   828                          .not_save_or_boot_disk
   829                          	stx zp_temp ; Store current value of x (memory pointer)
   830                          	ldx boot_device
   831                          	bit use_reu
   832                          	bmi .use_this_device
   833                          	ldx #8
   834                          -	lda device_map - 8,x
   835                          	beq .use_this_device
   836                          	inx
   837                          	bne - ; Always branch
   838                          .use_this_device
   839                          	txa
   840                          	ldx zp_temp ; Retrieve current value of x (memory pointer)
   841                          .select_device
   842                          	sta disk_info + 4,x
   843                          .device_selected
   844                          	sta zp_temp + 1 ; Store currently selected device#
   845                          	lda disk_info + 7,x
   846                          	beq +
   847                          	; This is a story disk
   848                          	txa ; Save value of x
   849                          	ldx zp_temp + 1 ; Load currently selected device#
   850                          	inc device_map - 8,x ; Mark device as in use by a story disk
   851                          	tax
   852                          +	iny
   853                          	cpy disk_info + 2 ; # of disks
   854                          	bcs .done
   855                          	txa
   856                          	adc disk_info + 3,x
   857                          	bne .next_disk ; Always branch
   858                          .done
   859                          	rts
   860                          }
   861                          !zone insert_disks_at_boot {
   862                          insert_disks_at_boot
   863                          ;	jsr dollar
   864                          ;	jsr kernal_readchar
   865                          	jsr prepare_for_disk_msgs
   866                          	lda #0
   867                          	tay ; Disk#
   868                          .next_disk
   869                          	tax ; Memory index
   870                          	cpy #1
   871                          	bcc .dont_need_to_insert_this
   872                          	; Store in current_disks
   873                          	lda disk_info + 4,x
   874                          	stx zp_temp
   875                          	tax
   876                          	lda zp_temp
   877                          	sta current_disks - 8,x
   878                          	tax
   879                          	cpy #2
   880                          	bcc .copy_data_from_disk_1_to_reu
   881                          	stx zp_temp
   882                          	sty zp_temp + 1
   883                          	ldy zp_temp
   884                          	jsr print_insert_disk_msg
   885                          	ldx use_reu
   886                          	beq .restore_xy_disk_done
   887                          	jsr copy_data_from_disk_at_zp_temp_to_reu
   888                          .restore_xy_disk_done
   889                          	ldx zp_temp
   890                          	ldy zp_temp + 1
   891                          .dont_need_to_insert_this
   892                          +	iny
   893                          	cpy disk_info + 2 ; # of disks
   894                          	bcs .done
   895                          	txa
   896                          	adc disk_info + 3,x
   897                          	bne .next_disk ; Always branch
   898                          .done
   899                          	lda use_reu
   900                          	beq +
   901                          	lda #$ff ; Use REU
   902                          	sta use_reu
   903                          +	rts
   904                          	
   905                          .copy_data_from_disk_1_to_reu
   906                          	lda use_reu
   907                          	bpl .dont_need_to_insert_this
   908                          
   909                          	sty zp_temp + 1
   910                          
   911                          	; Prepare for copying data to REU
   912                          	lda #0
   913                          	ldx nonstored_blocks
   914                          	stx z_temp ; Lowbyte of current page in Z-machine memory
   915                          	sta z_temp + 1 ; Highbyte of current page in Z-machine memory
   916                          	ldx #1
   917                          	stx z_temp + 2 ; Lowbyte of current page in REU memory
   918                          	sta z_temp + 3 ; Highbyte of current page in REU memory
   919                          	sta z_temp + 6 ; Sector# to read next, lowbyte
   920                          	sta z_temp + 7 ; Sector# to read next, highbyte
   921                          	
   922                          	jsr copy_data_from_disk_at_zp_temp_to_reu
   923                          	jmp .restore_xy_disk_done
   924                          
   925                          copy_data_from_disk_at_zp_temp_to_reu
   926                          ; zp_temp holds memory index into disk_info where info on this disk begins
   927                          ; Perform initial copy of data to REU	
   928                          	ldx zp_temp
   929                          	lda disk_info + 6,x
   930                          	sta z_temp + 4 ; Last sector# on this disk. Store low-endian
   931                          	lda disk_info + 5,x
   932                          	sta z_temp + 5 ; Last sector# on this disk. Store low-endian
   933                          
   934                          .initial_copy_loop
   935                          	lda z_temp + 6
   936                          	cmp z_temp + 4
   937                          	lda z_temp + 7
   938                          	sbc z_temp + 5
   939                          	bcs .done_copying
   940                          
   941                          	lda z_temp + 1
   942                          	ldx z_temp ; (Not) Already loaded
   943                          	sta $7fd
   944                          	stx $7fe
   945                          	ldy #0 ; Value is unimportant except for the last block, where anything > 0 may be after file end
   946                          	jsr read_byte_at_z_address
   947                          	; Current Z-machine page is now in C64 page held in mempointer + 1
   948                          	lda z_temp + 3
   949                          	ldx z_temp + 2
   950                          	ldy mempointer + 1
   951                          	jsr copy_page_to_reu
   952                          	bcs .reu_error
   953                          
   954                          	ldx z_temp ; (Not) Already loaded
   955                          	stx $7ff
   956                          
   957                          	; Inc Z-machine page
   958                          	inc z_temp
   959                          	bne +
   960                          	inc z_temp + 1
   961                          
   962                          	; Inc REU page
   963                          +	inc z_temp + 2
   964                          	bne +
   965                          	inc z_temp + 3
   966                          
   967                          	; Inc disk block#
   968                          +	inc z_temp + 6
   969                          	bne +
   970                          	inc z_temp + 7
   971                          +	bne .initial_copy_loop ; Always branch
   972                          
   973                          .done_copying
   974                          	rts
   975                          
   976                          .reu_error
   977                          	lda #0
   978                          	sta use_reu
   979                          	lda #>.reu_error_msg
   980                          	ldx #<.reu_error_msg
   981                          	jsr printstring_raw
   982                          -	jsr kernal_getchar
   983                              beq -
   984                          	rts
   985                          
   986                          .reu_error_msg
   987                              !pet "REU error. [SPACE]",0
   988                          
   989                          copy_page_to_reu
   990                          	; a,x = REU page
   991                          	; y = C64 page
   992                          	jsr store_reu_transfer_params
   993                          	lda #%10010000;  c64 -> REU with immediate execution
   994                          	sta reu_command
   995                          	rts
   996                          
   997                          .no_reu
   998                          	lda #78 + 128
   999                          .print_reply_and_return
  1000                          	jsr s_printchar
  1001                          	lda #13
  1002                          	jsr s_printchar
  1003                          .no_reu_present	
  1004                          	rts
  1005                          
  1006                          reu_start
  1007                          	lda #0
  1008                          	sta use_reu
  1009                          	sta $c6 ; Empty keyboard buffer
  1010                          	ldx reu_c64base
  1011                          	inc reu_c64base
  1012                          	inx
  1013                          	cpx reu_c64base
  1014                          	bne .no_reu_present
  1015                          ; REU detected
  1016                          	lda #>.use_reu_question
  1017                          	ldx #<.use_reu_question
  1018                          	jsr printstring_raw
  1019                          -	jsr kernal_getchar
  1020                              beq -
  1021                          	cmp #89
  1022                          	bne .no_reu
  1023                          	ldx #$80 ; Use REU, set vmem to reu loading mode
  1024                          	stx use_reu
  1025                          	ora #$80
  1026                          	bne .print_reply_and_return ; Always branch
  1027                          .use_reu_question
  1028                              !pet 13,"Use REU? (Y/N) ",0
  1029                          
  1030                          }
  1031                          }
  1032                          
  1033                          prepare_static_high_memory
  1034  4cdd a9ff                   lda #$ff
  1035  4cdf 850a                   sta zp_pc_h
  1036  4ce1 850b                   sta zp_pc_l
  1037                          
  1038                          ; ; Clear vmap_z_h
  1039                          	; ldy vmap_max_entries
  1040  4ce3 a900               	lda #0
  1041                          ; -	sta vmap_z_h - 1,y
  1042                          	; dey
  1043                          	; bne -
  1044                          
  1045                          ; Clear quick index
  1046  4ce5 a206               	ldx #vmap_quick_index_length
  1047  4ce7 9561               -	sta vmap_next_quick_index,x ; Sets next quick index AND all entries in quick index to 0
  1048  4ce9 ca                 	dex
  1049  4cea 10fb               	bpl -
  1050                          	
  1051                          !ifndef ACORN {
  1052                          	lda #5
  1053                          	clc
  1054                          	adc config_load_address + 4
  1055                          	sta zp_temp
  1056                          	lda #>config_load_address
  1057                          ;	adc #0 ; Not needed if disk info is always <= 249 bytes
  1058                          	sta zp_temp + 1
  1059                          	ldy #0
  1060                          	lda (zp_temp),y ; # of blocks in the list
  1061                          	tax
  1062                          	cpx vmap_max_entries
  1063                          	bcc +
  1064                          	beq +
  1065                          	ldx vmap_max_entries
  1066                          +	stx vmap_used_entries  ; Number of bytes to copy
  1067                          	iny
  1068                          	lda (zp_temp),y
  1069                          	sta vmap_blocks_preloaded ; # of blocks already loaded
  1070                          
  1071                          	; If using REU, suggested blocks will just be ignored
  1072                          	bit use_reu
  1073                          	bpl +
  1074                          	sta vmap_used_entries
  1075                          +
  1076                          ;	sta zp_temp + 3 ; # of blocks already loaded
  1077                          
  1078                          ; Copy to vmap_z_h
  1079                          -	iny
  1080                          	lda (zp_temp),y
  1081                          	sta vmap_z_h - 2,y
  1082                          	dex
  1083                          	bne -
  1084                          	
  1085                          	; ldy #vmap_max_length - 1
  1086                          ; -	lda vmap_z_h,y
  1087                          	; and #%01000000 ; Check if non-swappable memory
  1088                          	; bne .dont_set
  1089                          	; sty vmap_first_swappable_index
  1090                          	; dey
  1091                          	; bpl -
  1092                          ; .dont_set
  1093                          	
  1094                          ; Point to lowbyte array	
  1095                          	ldy #0
  1096                          	lda (zp_temp),y
  1097                          	clc
  1098                          	adc zp_temp
  1099                          	adc #2
  1100                          	sta zp_temp
  1101                          	ldy vmap_used_entries
  1102                          	beq .no_entries
  1103                          	dey
  1104                          -	lda (zp_temp),y
  1105                          	sta vmap_z_l,y
  1106                          	dey
  1107                          	bpl -
  1108                          .no_entries
  1109                          } else { ; ACORN
  1110                          !ifdef PREOPT {
  1111                              ; vmap_used_entries can't be 0. SFTODO: I think?
  1112                              lda #1
  1113                              sta vmap_used_entries
  1114                              sta vmap_clock_index
  1115                          } else {
  1116                              ; +acorn_deletable_init_inline will initialise vmap_used_entries and we can
  1117                              ; just leave vmap_clock_index at its default value of 0.
  1118                          }
  1119                          }
  1120                          !ifdef TRACE_VM {
  1121                              jsr print_vm_map
  1122                          }
  1123  4cec 60                 	rts
  1124                          	
  1125                          !ifndef ACORN {
  1126                          load_suggested_pages
  1127                          ; Load all suggested pages which have not been pre-loaded
  1128                          -	lda vmap_blocks_preloaded ; First index which has not been loaded
  1129                          	beq ++ ; First block was loaded with header
  1130                          	cmp vmap_used_entries ; Total # of indexes in the list
  1131                          	bcs +
  1132                          	; jsr dollar
  1133                          	sta vmap_index
  1134                          	tax ; SF: I think this is redundant
  1135                          	jsr load_blocks_from_index
  1136                          ++	inc vmap_blocks_preloaded
  1137                          	bne - ; Always branch
  1138                          +
  1139                          	ldx vmap_used_entries
  1140                          	cpx vmap_max_entries
  1141                          	bcc +
  1142                          	dex
  1143                          +	stx vmap_clock_index
  1144                          
  1145                          !ifdef TRACE_VM {
  1146                              jsr print_vm_map
  1147                          }
  1148                              rts
  1149                          }
  1150                          } 
  1151                          
  1152                          !ifndef ACORN {
  1153                          !ifndef ALLRAM {
  1154                          	!if SPLASHWAIT > 0 {
  1155                          		!source "splashscreen.asm"
  1156                          	}
  1157                          }
  1158                          }
  1159                          
  1160                          !ifdef ACORN {
  1161  4ced a986853420f4ff86...    +acorn_init_code_in_stack
  1162                          }
  1163                          
  1164                          end_of_routines_in_stack_space
  1165                          !ifdef ACORN {
  1166                              ; It's fine for code to spill over past story_start *as long as it's going
  1167                              ; to be executed before it gets overwritten*. We don't have any preload data
  1168                              ; attached, unlike the C64, so this doesn't cause problems.
  1169  4d05 a201203f22ad0e02...    +acorn_init_code_overlapping_game_data
  1170                          !ifdef ACORN_RELOCATABLE {
  1171                              ; This must be the last thing in the executable.
  1172                          	ACORN_RELOCATE_WITH_DOUBLE_PAGE_ALIGNMENT = 1
  1173                              !source "acorn-relocate.asm"
  1174                          }
  1175                          end_of_routines
  1176                          }
  1177                          
  1178                          !ifndef ACORN {
  1179                          	!fill stack_size - (* - stack_start),0 ; 4 pages
  1180                          story_start
  1181                          } else {
  1182                          !if (end_of_routines_in_stack_space - stack_start) > stack_size {
  1183                              !error "Routines in stack space have overflowed stack"
  1184                          }
  1185                          !ifndef ACORN_ELECTRON_SWR {
  1186                          story_start = stack_start + stack_size
  1187                          } else {
  1188                          extra_vmem_start = stack_start + stack_size
  1189                          story_start = $8000
  1190                          }
  1191                          }
  1192                          !if (story_start & 0xff) != 0 {
  1193                              !error "story_start must be page-aligned"
  1194                          }
  1195                          !ifdef VMEM {
  1196                          vmem_start = story_start
  1197                          !if (vmem_start & 0x1ff) != 0 {
  1198                              !error "vmem_start must be at a 512-byte boundary"
  1199                          }
  1200                          
  1201                          !ifndef ACORN {
  1202                          !ifdef ALLRAM {
  1203                          
  1204                          !if $10000 - vmem_start > $cc00 {
  1205                          	vmem_end = vmem_start + $cc00
  1206                          } else {
  1207                          	vmem_end = $10000
  1208                          }
  1209                          
  1210                          } else {
  1211                          	vmem_end = $d000
  1212                          }	
  1213                          }
  1214                          
  1215                          }
  1216                          
  1217                          !ifndef ACORN {
  1218                          !ifdef vmem_cache_size {
  1219                          !if vmem_cache_size >= $200 {
  1220                          	config_load_address = vmem_cache_start
  1221                          }
  1222                          }
  1223                          !ifndef config_load_address {
  1224                          	config_load_address = $0400
  1225                          }
  1226                          }
  1227                          
  1228                          !ifdef ACORN_NO_SHADOW {
  1229                              +check_acorn_screen_hole
  1230                          }
  1231                          
  1232                          ; SFTODO: It might be possible to use the 12K private RAM in the B+ as sideways
  1233                          ; RAM. If we put it last in the list of RAM banks, it probably wouldn't require
  1234                          ; too much special casing - we'd just make sure not to count it as a full 16K
  1235                          ; during the initial load, then I suspect it would mostly "just work". (Though
  1236                          ; this would clash with e.g. my "private RAM MMFS"; it might be prudent to ask
  1237                          ; the user if we can use the 12K private RAM, since unlike normal SWR we can't
  1238                          ; reasonably detect if it's in use or not. And we can't check for PAGE=&E00
  1239                          ; because they could be using the more common SWMMFS in a regular sideways RAM
  1240                          ; bank and have the 12K private RAM free.) - actually, would need to check, but
  1241                          ; I think in practice "do any extended vectors point into a bank with top bit
  1242                          ; set?" might be a reliable way to detect private 12K use, I *think* the MMFS+
  1243                          ; variant will do that too.
